
/home/phantom0308/SUNFLOWER/bin/#2 Try_to_access_trust_code:     file format elf64-littleriscv


Disassembly of section .text:

00000000000100b0 <_start>:
   100b0:	0000d197          	auipc	gp,0xd
   100b4:	5c818193          	addi	gp,gp,1480 # 1d678 <__global_pointer$>
   100b8:	85018513          	addi	a0,gp,-1968 # 1cec8 <_edata>
   100bc:	8f018613          	addi	a2,gp,-1808 # 1cf68 <_end>
   100c0:	8e09                	sub	a2,a2,a0
   100c2:	4581                	li	a1,0
   100c4:	37f000ef          	jal	ra,10c42 <memset>
   100c8:	00000517          	auipc	a0,0x0
   100cc:	51e50513          	addi	a0,a0,1310 # 105e6 <__libc_fini_array>
   100d0:	4ec000ef          	jal	ra,105bc <atexit>
   100d4:	55a000ef          	jal	ra,1062e <__libc_init_array>
   100d8:	4502                	lw	a0,0(sp)
   100da:	002c                	addi	a1,sp,8
   100dc:	4601                	li	a2,0
   100de:	3d6000ef          	jal	ra,104b4 <main>
   100e2:	4e60006f          	j	105c8 <exit>

00000000000100e6 <_fini>:
   100e6:	8082                	ret

00000000000100e8 <deregister_tm_clones>:
   100e8:	6575                	lui	a0,0x1d
   100ea:	67f5                	lui	a5,0x1d
   100ec:	e7850713          	addi	a4,a0,-392 # 1ce78 <__TMC_END__>
   100f0:	e7878793          	addi	a5,a5,-392 # 1ce78 <__TMC_END__>
   100f4:	00e78b63          	beq	a5,a4,1010a <deregister_tm_clones+0x22>
   100f8:	00000337          	lui	t1,0x0
   100fc:	00030313          	mv	t1,t1
   10100:	00030563          	beqz	t1,1010a <deregister_tm_clones+0x22>
   10104:	e7850513          	addi	a0,a0,-392
   10108:	8302                	jr	t1
   1010a:	8082                	ret

000000000001010c <register_tm_clones>:
   1010c:	67f5                	lui	a5,0x1d
   1010e:	6575                	lui	a0,0x1d
   10110:	e7878593          	addi	a1,a5,-392 # 1ce78 <__TMC_END__>
   10114:	e7850793          	addi	a5,a0,-392 # 1ce78 <__TMC_END__>
   10118:	8d9d                	sub	a1,a1,a5
   1011a:	858d                	srai	a1,a1,0x3
   1011c:	4789                	li	a5,2
   1011e:	02f5c5b3          	div	a1,a1,a5
   10122:	c991                	beqz	a1,10136 <register_tm_clones+0x2a>
   10124:	00000337          	lui	t1,0x0
   10128:	00030313          	mv	t1,t1
   1012c:	00030563          	beqz	t1,10136 <register_tm_clones+0x2a>
   10130:	e7850513          	addi	a0,a0,-392
   10134:	8302                	jr	t1
   10136:	8082                	ret

0000000000010138 <__do_global_dtors_aux>:
   10138:	8781c703          	lbu	a4,-1928(gp) # 1cef0 <completed.5212>
   1013c:	eb15                	bnez	a4,10170 <__do_global_dtors_aux+0x38>
   1013e:	1141                	addi	sp,sp,-16
   10140:	e022                	sd	s0,0(sp)
   10142:	e406                	sd	ra,8(sp)
   10144:	843e                	mv	s0,a5
   10146:	fa3ff0ef          	jal	ra,100e8 <deregister_tm_clones>
   1014a:	000007b7          	lui	a5,0x0
   1014e:	00078793          	mv	a5,a5
   10152:	cb81                	beqz	a5,10162 <__do_global_dtors_aux+0x2a>
   10154:	6571                	lui	a0,0x1c
   10156:	d6050513          	addi	a0,a0,-672 # 1bd60 <__EH_FRAME_BEGIN__>
   1015a:	ffff0097          	auipc	ra,0xffff0
   1015e:	ea6080e7          	jalr	-346(ra) # 0 <_start-0x100b0>
   10162:	4785                	li	a5,1
   10164:	86f18c23          	sb	a5,-1928(gp) # 1cef0 <completed.5212>
   10168:	60a2                	ld	ra,8(sp)
   1016a:	6402                	ld	s0,0(sp)
   1016c:	0141                	addi	sp,sp,16
   1016e:	8082                	ret
   10170:	8082                	ret

0000000000010172 <frame_dummy>:
   10172:	000007b7          	lui	a5,0x0
   10176:	00078793          	mv	a5,a5
   1017a:	cf91                	beqz	a5,10196 <frame_dummy+0x24>
   1017c:	6571                	lui	a0,0x1c
   1017e:	1141                	addi	sp,sp,-16
   10180:	88018593          	addi	a1,gp,-1920 # 1cef8 <object.5217>
   10184:	d6050513          	addi	a0,a0,-672 # 1bd60 <__EH_FRAME_BEGIN__>
   10188:	e406                	sd	ra,8(sp)
   1018a:	ffff0097          	auipc	ra,0xffff0
   1018e:	e76080e7          	jalr	-394(ra) # 0 <_start-0x100b0>
   10192:	60a2                	ld	ra,8(sp)
   10194:	0141                	addi	sp,sp,16
   10196:	f77ff06f          	j	1010c <register_tm_clones>
	...

000000000001019c <add_enclave>:
   1019c:	fd010113          	addi	sp,sp,-48
   101a0:	02113423          	sd	ra,40(sp)
   101a4:	02813023          	sd	s0,32(sp)
   101a8:	03010413          	addi	s0,sp,48
   101ac:	fca43c23          	sd	a0,-40(s0)
   101b0:	fcb43823          	sd	a1,-48(s0)
   101b4:	00100713          	li	a4,1
   101b8:	01f71713          	slli	a4,a4,0x1f
   101bc:	8ee1b023          	sd	a4,-1824(gp) # 1cf58 <tsyscall>
   101c0:	01800513          	li	a0,24
   101c4:	4cc000ef          	jal	ra,10690 <malloc>
   101c8:	00050793          	mv	a5,a0
   101cc:	fef43423          	sd	a5,-24(s0)
   101d0:	fe843783          	ld	a5,-24(s0)
   101d4:	00100713          	li	a4,1
   101d8:	00e7a023          	sw	a4,0(a5) # 0 <_start-0x100b0>
   101dc:	fe843783          	ld	a5,-24(s0)
   101e0:	fd843703          	ld	a4,-40(s0)
   101e4:	00e7b423          	sd	a4,8(a5)
   101e8:	fe843783          	ld	a5,-24(s0)
   101ec:	fd043703          	ld	a4,-48(s0)
   101f0:	00e7b823          	sd	a4,16(a5)
   101f4:	8e01b783          	ld	a5,-1824(gp) # 1cf58 <tsyscall>
   101f8:	fe843503          	ld	a0,-24(s0)
   101fc:	000780e7          	jalr	a5
   10200:	00000013          	nop
   10204:	02813083          	ld	ra,40(sp)
   10208:	02013403          	ld	s0,32(sp)
   1020c:	03010113          	addi	sp,sp,48
   10210:	00008067          	ret

0000000000010214 <add_data>:
   10214:	fd010113          	addi	sp,sp,-48
   10218:	02113423          	sd	ra,40(sp)
   1021c:	02813023          	sd	s0,32(sp)
   10220:	03010413          	addi	s0,sp,48
   10224:	fca43c23          	sd	a0,-40(s0)
   10228:	00058793          	mv	a5,a1
   1022c:	fcf42a23          	sw	a5,-44(s0)
   10230:	00100713          	li	a4,1
   10234:	01f71713          	slli	a4,a4,0x1f
   10238:	8ee1b023          	sd	a4,-1824(gp) # 1cf58 <tsyscall>
   1023c:	01800513          	li	a0,24
   10240:	450000ef          	jal	ra,10690 <malloc>
   10244:	00050793          	mv	a5,a0
   10248:	fef43423          	sd	a5,-24(s0)
   1024c:	fe843783          	ld	a5,-24(s0)
   10250:	00200713          	li	a4,2
   10254:	00e7a023          	sw	a4,0(a5)
   10258:	fe843783          	ld	a5,-24(s0)
   1025c:	fd843703          	ld	a4,-40(s0)
   10260:	00e7b423          	sd	a4,8(a5)
   10264:	fd442703          	lw	a4,-44(s0)
   10268:	fd843783          	ld	a5,-40(s0)
   1026c:	00f707b3          	add	a5,a4,a5
   10270:	00078713          	mv	a4,a5
   10274:	fe843783          	ld	a5,-24(s0)
   10278:	00e7b823          	sd	a4,16(a5)
   1027c:	8e01b783          	ld	a5,-1824(gp) # 1cf58 <tsyscall>
   10280:	fe843503          	ld	a0,-24(s0)
   10284:	000780e7          	jalr	a5
   10288:	00000013          	nop
   1028c:	02813083          	ld	ra,40(sp)
   10290:	02013403          	ld	s0,32(sp)
   10294:	03010113          	addi	sp,sp,48
   10298:	00008067          	ret

000000000001029c <delete_enclave>:
   1029c:	fd010113          	addi	sp,sp,-48
   102a0:	02113423          	sd	ra,40(sp)
   102a4:	02813023          	sd	s0,32(sp)
   102a8:	03010413          	addi	s0,sp,48
   102ac:	fca43c23          	sd	a0,-40(s0)
   102b0:	fcb43823          	sd	a1,-48(s0)
   102b4:	00100713          	li	a4,1
   102b8:	01f71713          	slli	a4,a4,0x1f
   102bc:	8ee1b023          	sd	a4,-1824(gp) # 1cf58 <tsyscall>
   102c0:	01800513          	li	a0,24
   102c4:	3cc000ef          	jal	ra,10690 <malloc>
   102c8:	00050793          	mv	a5,a0
   102cc:	fef43423          	sd	a5,-24(s0)
   102d0:	fe843783          	ld	a5,-24(s0)
   102d4:	00300713          	li	a4,3
   102d8:	00e7a023          	sw	a4,0(a5)
   102dc:	fe843783          	ld	a5,-24(s0)
   102e0:	fd843703          	ld	a4,-40(s0)
   102e4:	00e7b423          	sd	a4,8(a5)
   102e8:	fe843783          	ld	a5,-24(s0)
   102ec:	fd043703          	ld	a4,-48(s0)
   102f0:	00e7b823          	sd	a4,16(a5)
   102f4:	8e01b783          	ld	a5,-1824(gp) # 1cf58 <tsyscall>
   102f8:	fe843503          	ld	a0,-24(s0)
   102fc:	000780e7          	jalr	a5
   10300:	00000013          	nop
   10304:	02813083          	ld	ra,40(sp)
   10308:	02013403          	ld	s0,32(sp)
   1030c:	03010113          	addi	sp,sp,48
   10310:	00008067          	ret

0000000000010314 <init_enclave>:
   10314:	fd010113          	addi	sp,sp,-48
   10318:	02113423          	sd	ra,40(sp)
   1031c:	02813023          	sd	s0,32(sp)
   10320:	03010413          	addi	s0,sp,48
   10324:	fca43c23          	sd	a0,-40(s0)
   10328:	fcb43823          	sd	a1,-48(s0)
   1032c:	00100713          	li	a4,1
   10330:	01f71713          	slli	a4,a4,0x1f
   10334:	8ee1b023          	sd	a4,-1824(gp) # 1cf58 <tsyscall>
   10338:	01800513          	li	a0,24
   1033c:	354000ef          	jal	ra,10690 <malloc>
   10340:	00050793          	mv	a5,a0
   10344:	fef43423          	sd	a5,-24(s0)
   10348:	fe843783          	ld	a5,-24(s0)
   1034c:	00400713          	li	a4,4
   10350:	00e7a023          	sw	a4,0(a5)
   10354:	fe843783          	ld	a5,-24(s0)
   10358:	fd843703          	ld	a4,-40(s0)
   1035c:	00e7b423          	sd	a4,8(a5)
   10360:	fe843783          	ld	a5,-24(s0)
   10364:	fd043703          	ld	a4,-48(s0)
   10368:	00e7b823          	sd	a4,16(a5)
   1036c:	8e01b783          	ld	a5,-1824(gp) # 1cf58 <tsyscall>
   10370:	fe843503          	ld	a0,-24(s0)
   10374:	000780e7          	jalr	a5
   10378:	00000013          	nop
   1037c:	02813083          	ld	ra,40(sp)
   10380:	02013403          	ld	s0,32(sp)
   10384:	03010113          	addi	sp,sp,48
   10388:	00008067          	ret

000000000001038c <encryption>:
   1038c:	fd010113          	addi	sp,sp,-48
   10390:	02813423          	sd	s0,40(sp)
   10394:	03010413          	addi	s0,sp,48
   10398:	fca43c23          	sd	a0,-40(s0)
   1039c:	fe042623          	sw	zero,-20(s0)
   103a0:	0400006f          	j	103e0 <encryption+0x54>
   103a4:	fec42783          	lw	a5,-20(s0)
   103a8:	fd843703          	ld	a4,-40(s0)
   103ac:	00f707b3          	add	a5,a4,a5
   103b0:	0007c683          	lbu	a3,0(a5)
   103b4:	8281a783          	lw	a5,-2008(gp) # 1cea0 <secret_key>
   103b8:	0ff7f713          	andi	a4,a5,255
   103bc:	fec42783          	lw	a5,-20(s0)
   103c0:	fd843603          	ld	a2,-40(s0)
   103c4:	00f607b3          	add	a5,a2,a5
   103c8:	00e6873b          	addw	a4,a3,a4
   103cc:	0ff77713          	andi	a4,a4,255
   103d0:	00e78023          	sb	a4,0(a5)
   103d4:	fec42783          	lw	a5,-20(s0)
   103d8:	0017879b          	addiw	a5,a5,1
   103dc:	fef42623          	sw	a5,-20(s0)
   103e0:	fec42783          	lw	a5,-20(s0)
   103e4:	fd843703          	ld	a4,-40(s0)
   103e8:	00f707b3          	add	a5,a4,a5
   103ec:	0007c783          	lbu	a5,0(a5)
   103f0:	fa079ae3          	bnez	a5,103a4 <encryption+0x18>
   103f4:	00000013          	nop
   103f8:	02813403          	ld	s0,40(sp)
   103fc:	03010113          	addi	sp,sp,48
   10400:	00008067          	ret

0000000000010404 <encryption_end>:
   10404:	ff010113          	addi	sp,sp,-16
   10408:	00813423          	sd	s0,8(sp)
   1040c:	01010413          	addi	s0,sp,16
   10410:	00000013          	nop
   10414:	00813403          	ld	s0,8(sp)
   10418:	01010113          	addi	sp,sp,16
   1041c:	00008067          	ret

0000000000010420 <decryption>:
   10420:	fd010113          	addi	sp,sp,-48
   10424:	02813423          	sd	s0,40(sp)
   10428:	03010413          	addi	s0,sp,48
   1042c:	fca43c23          	sd	a0,-40(s0)
   10430:	fe042623          	sw	zero,-20(s0)
   10434:	0400006f          	j	10474 <decryption+0x54>
   10438:	fec42783          	lw	a5,-20(s0)
   1043c:	fd843703          	ld	a4,-40(s0)
   10440:	00f707b3          	add	a5,a4,a5
   10444:	0007c683          	lbu	a3,0(a5)
   10448:	8281a783          	lw	a5,-2008(gp) # 1cea0 <secret_key>
   1044c:	0ff7f713          	andi	a4,a5,255
   10450:	fec42783          	lw	a5,-20(s0)
   10454:	fd843603          	ld	a2,-40(s0)
   10458:	00f607b3          	add	a5,a2,a5
   1045c:	40e6873b          	subw	a4,a3,a4
   10460:	0ff77713          	andi	a4,a4,255
   10464:	00e78023          	sb	a4,0(a5)
   10468:	fec42783          	lw	a5,-20(s0)
   1046c:	0017879b          	addiw	a5,a5,1
   10470:	fef42623          	sw	a5,-20(s0)
   10474:	fec42783          	lw	a5,-20(s0)
   10478:	fd843703          	ld	a4,-40(s0)
   1047c:	00f707b3          	add	a5,a4,a5
   10480:	0007c783          	lbu	a5,0(a5)
   10484:	fa079ae3          	bnez	a5,10438 <decryption+0x18>
   10488:	00000013          	nop
   1048c:	02813403          	ld	s0,40(sp)
   10490:	03010113          	addi	sp,sp,48
   10494:	00008067          	ret

0000000000010498 <decryption_end>:
   10498:	ff010113          	addi	sp,sp,-16
   1049c:	00813423          	sd	s0,8(sp)
   104a0:	01010413          	addi	s0,sp,16
   104a4:	00000013          	nop
   104a8:	00813403          	ld	s0,8(sp)
   104ac:	01010113          	addi	sp,sp,16
   104b0:	00008067          	ret

00000000000104b4 <main>:
   104b4:	fa010113          	addi	sp,sp,-96
   104b8:	04113c23          	sd	ra,88(sp)
   104bc:	04813823          	sd	s0,80(sp)
   104c0:	06010413          	addi	s0,sp,96
   104c4:	0001a7b7          	lui	a5,0x1a
   104c8:	f8078513          	addi	a0,a5,-128 # 19f80 <__clzdi2+0x38>
   104cc:	0eb000ef          	jal	ra,10db6 <puts>
   104d0:	000107b7          	lui	a5,0x10
   104d4:	40478593          	addi	a1,a5,1028 # 10404 <encryption_end>
   104d8:	000107b7          	lui	a5,0x10
   104dc:	38c78513          	addi	a0,a5,908 # 1038c <encryption>
   104e0:	cbdff0ef          	jal	ra,1019c <add_enclave>
   104e4:	0001a7b7          	lui	a5,0x1a
   104e8:	fa078513          	addi	a0,a5,-96 # 19fa0 <__clzdi2+0x58>
   104ec:	0cb000ef          	jal	ra,10db6 <puts>
   104f0:	000107b7          	lui	a5,0x10
   104f4:	49878593          	addi	a1,a5,1176 # 10498 <decryption_end>
   104f8:	000107b7          	lui	a5,0x10
   104fc:	42078513          	addi	a0,a5,1056 # 10420 <decryption>
   10500:	c9dff0ef          	jal	ra,1019c <add_enclave>
   10504:	0001a7b7          	lui	a5,0x1a
   10508:	fa040713          	addi	a4,s0,-96
   1050c:	01878793          	addi	a5,a5,24 # 1a018 <__clzdi2+0xd0>
   10510:	04f00693          	li	a3,79
   10514:	00068613          	mv	a2,a3
   10518:	00078593          	mv	a1,a5
   1051c:	00070513          	mv	a0,a4
   10520:	664000ef          	jal	ra,10b84 <memcpy>
   10524:	0001a7b7          	lui	a5,0x1a
   10528:	fc078513          	addi	a0,a5,-64 # 19fc0 <__clzdi2+0x78>
   1052c:	08b000ef          	jal	ra,10db6 <puts>
   10530:	00400593          	li	a1,4
   10534:	82818513          	addi	a0,gp,-2008 # 1cea0 <secret_key>
   10538:	cddff0ef          	jal	ra,10214 <add_data>
   1053c:	000107b7          	lui	a5,0x10
   10540:	39878713          	addi	a4,a5,920 # 10398 <encryption+0xc>
   10544:	8ce1bc23          	sd	a4,-1832(gp) # 1cf50 <test_code>
   10548:	8d81b783          	ld	a5,-1832(gp) # 1cf50 <test_code>
   1054c:	000780e7          	jalr	a5
   10550:	fa040793          	addi	a5,s0,-96
   10554:	00078593          	mv	a1,a5
   10558:	0001a7b7          	lui	a5,0x1a
   1055c:	fd078513          	addi	a0,a5,-48 # 19fd0 <__clzdi2+0x88>
   10560:	7b2000ef          	jal	ra,10d12 <printf>
   10564:	fa040793          	addi	a5,s0,-96
   10568:	00078513          	mv	a0,a5
   1056c:	e21ff0ef          	jal	ra,1038c <encryption>
   10570:	fa040793          	addi	a5,s0,-96
   10574:	00078593          	mv	a1,a5
   10578:	0001a7b7          	lui	a5,0x1a
   1057c:	fe878513          	addi	a0,a5,-24 # 19fe8 <__clzdi2+0xa0>
   10580:	792000ef          	jal	ra,10d12 <printf>
   10584:	fa040793          	addi	a5,s0,-96
   10588:	00078513          	mv	a0,a5
   1058c:	e95ff0ef          	jal	ra,10420 <decryption>
   10590:	fa040793          	addi	a5,s0,-96
   10594:	00078593          	mv	a1,a5
   10598:	0001a7b7          	lui	a5,0x1a
   1059c:	00078513          	mv	a0,a5
   105a0:	772000ef          	jal	ra,10d12 <printf>
   105a4:	00100793          	li	a5,1
   105a8:	00078513          	mv	a0,a5
   105ac:	05813083          	ld	ra,88(sp)
   105b0:	05013403          	ld	s0,80(sp)
   105b4:	06010113          	addi	sp,sp,96
   105b8:	00008067          	ret

00000000000105bc <atexit>:
   105bc:	85aa                	mv	a1,a0
   105be:	4681                	li	a3,0
   105c0:	4601                	li	a2,0
   105c2:	4501                	li	a0,0
   105c4:	75f0106f          	j	12522 <__register_exitproc>

00000000000105c8 <exit>:
   105c8:	1141                	addi	sp,sp,-16
   105ca:	4581                	li	a1,0
   105cc:	e022                	sd	s0,0(sp)
   105ce:	e406                	sd	ra,8(sp)
   105d0:	842a                	mv	s0,a0
   105d2:	7b5010ef          	jal	ra,12586 <__call_exitprocs>
   105d6:	8301b503          	ld	a0,-2000(gp) # 1cea8 <_global_impure_ptr>
   105da:	6d3c                	ld	a5,88(a0)
   105dc:	c391                	beqz	a5,105e0 <exit+0x18>
   105de:	9782                	jalr	a5
   105e0:	8522                	mv	a0,s0
   105e2:	282080ef          	jal	ra,18864 <_exit>

00000000000105e6 <__libc_fini_array>:
   105e6:	7179                	addi	sp,sp,-48
   105e8:	67f1                	lui	a5,0x1c
   105ea:	6771                	lui	a4,0x1c
   105ec:	f022                	sd	s0,32(sp)
   105ee:	d7070713          	addi	a4,a4,-656 # 1bd70 <__init_array_end>
   105f2:	d7878413          	addi	s0,a5,-648 # 1bd78 <__fini_array_end>
   105f6:	8c19                	sub	s0,s0,a4
   105f8:	ec26                	sd	s1,24(sp)
   105fa:	e84a                	sd	s2,16(sp)
   105fc:	e44e                	sd	s3,8(sp)
   105fe:	f406                	sd	ra,40(sp)
   10600:	840d                	srai	s0,s0,0x3
   10602:	4481                	li	s1,0
   10604:	d7878913          	addi	s2,a5,-648
   10608:	59e1                	li	s3,-8
   1060a:	00941a63          	bne	s0,s1,1061e <__libc_fini_array+0x38>
   1060e:	7402                	ld	s0,32(sp)
   10610:	70a2                	ld	ra,40(sp)
   10612:	64e2                	ld	s1,24(sp)
   10614:	6942                	ld	s2,16(sp)
   10616:	69a2                	ld	s3,8(sp)
   10618:	6145                	addi	sp,sp,48
   1061a:	acdff06f          	j	100e6 <_fini>
   1061e:	033487b3          	mul	a5,s1,s3
   10622:	0485                	addi	s1,s1,1
   10624:	97ca                	add	a5,a5,s2
   10626:	ff87b783          	ld	a5,-8(a5)
   1062a:	9782                	jalr	a5
   1062c:	bff9                	j	1060a <__libc_fini_array+0x24>

000000000001062e <__libc_init_array>:
   1062e:	1101                	addi	sp,sp,-32
   10630:	e822                	sd	s0,16(sp)
   10632:	e426                	sd	s1,8(sp)
   10634:	6471                	lui	s0,0x1c
   10636:	64f1                	lui	s1,0x1c
   10638:	d6448793          	addi	a5,s1,-668 # 1bd64 <__preinit_array_end>
   1063c:	d6440413          	addi	s0,s0,-668 # 1bd64 <__preinit_array_end>
   10640:	8c1d                	sub	s0,s0,a5
   10642:	e04a                	sd	s2,0(sp)
   10644:	ec06                	sd	ra,24(sp)
   10646:	840d                	srai	s0,s0,0x3
   10648:	d6448493          	addi	s1,s1,-668
   1064c:	4901                	li	s2,0
   1064e:	02891763          	bne	s2,s0,1067c <__libc_init_array+0x4e>
   10652:	64f1                	lui	s1,0x1c
   10654:	a93ff0ef          	jal	ra,100e6 <_fini>
   10658:	6471                	lui	s0,0x1c
   1065a:	d6848793          	addi	a5,s1,-664 # 1bd68 <__frame_dummy_init_array_entry>
   1065e:	d7040413          	addi	s0,s0,-656 # 1bd70 <__init_array_end>
   10662:	8c1d                	sub	s0,s0,a5
   10664:	840d                	srai	s0,s0,0x3
   10666:	d6848493          	addi	s1,s1,-664
   1066a:	4901                	li	s2,0
   1066c:	00891d63          	bne	s2,s0,10686 <__libc_init_array+0x58>
   10670:	60e2                	ld	ra,24(sp)
   10672:	6442                	ld	s0,16(sp)
   10674:	64a2                	ld	s1,8(sp)
   10676:	6902                	ld	s2,0(sp)
   10678:	6105                	addi	sp,sp,32
   1067a:	8082                	ret
   1067c:	609c                	ld	a5,0(s1)
   1067e:	0905                	addi	s2,s2,1
   10680:	04a1                	addi	s1,s1,8
   10682:	9782                	jalr	a5
   10684:	b7e9                	j	1064e <__libc_init_array+0x20>
   10686:	609c                	ld	a5,0(s1)
   10688:	0905                	addi	s2,s2,1
   1068a:	04a1                	addi	s1,s1,8
   1068c:	9782                	jalr	a5
   1068e:	bff9                	j	1066c <__libc_init_array+0x3e>

0000000000010690 <malloc>:
   10690:	85aa                	mv	a1,a0
   10692:	8381b503          	ld	a0,-1992(gp) # 1ceb0 <_impure_ptr>
   10696:	00e0006f          	j	106a4 <_malloc_r>

000000000001069a <free>:
   1069a:	85aa                	mv	a1,a0
   1069c:	8381b503          	ld	a0,-1992(gp) # 1ceb0 <_impure_ptr>
   106a0:	3de0206f          	j	12a7e <_free_r>

00000000000106a4 <_malloc_r>:
   106a4:	715d                	addi	sp,sp,-80
   106a6:	fc26                	sd	s1,56(sp)
   106a8:	f84a                	sd	s2,48(sp)
   106aa:	e486                	sd	ra,72(sp)
   106ac:	e0a2                	sd	s0,64(sp)
   106ae:	f44e                	sd	s3,40(sp)
   106b0:	f052                	sd	s4,32(sp)
   106b2:	ec56                	sd	s5,24(sp)
   106b4:	e85a                	sd	s6,16(sp)
   106b6:	e45e                	sd	s7,8(sp)
   106b8:	e062                	sd	s8,0(sp)
   106ba:	01758493          	addi	s1,a1,23
   106be:	02e00793          	li	a5,46
   106c2:	892a                	mv	s2,a0
   106c4:	4a97f763          	bleu	s1,a5,10b72 <_malloc_r+0x4ce>
   106c8:	800007b7          	lui	a5,0x80000
   106cc:	98c1                	andi	s1,s1,-16
   106ce:	fff7c793          	not	a5,a5
   106d2:	0097e463          	bltu	a5,s1,106da <_malloc_r+0x36>
   106d6:	02b4f263          	bleu	a1,s1,106fa <_malloc_r+0x56>
   106da:	47b1                	li	a5,12
   106dc:	00f92023          	sw	a5,0(s2)
   106e0:	4501                	li	a0,0
   106e2:	60a6                	ld	ra,72(sp)
   106e4:	6406                	ld	s0,64(sp)
   106e6:	74e2                	ld	s1,56(sp)
   106e8:	7942                	ld	s2,48(sp)
   106ea:	79a2                	ld	s3,40(sp)
   106ec:	7a02                	ld	s4,32(sp)
   106ee:	6ae2                	ld	s5,24(sp)
   106f0:	6b42                	ld	s6,16(sp)
   106f2:	6ba2                	ld	s7,8(sp)
   106f4:	6c02                	ld	s8,0(sp)
   106f6:	6161                	addi	sp,sp,80
   106f8:	8082                	ret
   106fa:	5f2000ef          	jal	ra,10cec <__malloc_lock>
   106fe:	1f700793          	li	a5,503
   10702:	0497e863          	bltu	a5,s1,10752 <_malloc_r+0xae>
   10706:	0034d793          	srli	a5,s1,0x3
   1070a:	2781                	sext.w	a5,a5
   1070c:	0017871b          	addiw	a4,a5,1
   10710:	0017171b          	slliw	a4,a4,0x1
   10714:	66f1                	lui	a3,0x1c
   10716:	4c068693          	addi	a3,a3,1216 # 1c4c0 <__malloc_av_>
   1071a:	070e                	slli	a4,a4,0x3
   1071c:	9736                	add	a4,a4,a3
   1071e:	6700                	ld	s0,8(a4)
   10720:	ff070693          	addi	a3,a4,-16
   10724:	00d41663          	bne	s0,a3,10730 <_malloc_r+0x8c>
   10728:	6f00                	ld	s0,24(a4)
   1072a:	2789                	addiw	a5,a5,2
   1072c:	06870663          	beq	a4,s0,10798 <_malloc_r+0xf4>
   10730:	641c                	ld	a5,8(s0)
   10732:	6c18                	ld	a4,24(s0)
   10734:	6814                	ld	a3,16(s0)
   10736:	9bf1                	andi	a5,a5,-4
   10738:	97a2                	add	a5,a5,s0
   1073a:	ee98                	sd	a4,24(a3)
   1073c:	eb14                	sd	a3,16(a4)
   1073e:	6798                	ld	a4,8(a5)
   10740:	00176713          	ori	a4,a4,1
   10744:	e798                	sd	a4,8(a5)
   10746:	854a                	mv	a0,s2
   10748:	5a6000ef          	jal	ra,10cee <__malloc_unlock>
   1074c:	01040513          	addi	a0,s0,16
   10750:	bf49                	j	106e2 <_malloc_r+0x3e>
   10752:	0094d713          	srli	a4,s1,0x9
   10756:	03f00793          	li	a5,63
   1075a:	cb01                	beqz	a4,1076a <_malloc_r+0xc6>
   1075c:	4791                	li	a5,4
   1075e:	08e7e063          	bltu	a5,a4,107de <_malloc_r+0x13a>
   10762:	0064d793          	srli	a5,s1,0x6
   10766:	0387879b          	addiw	a5,a5,56
   1076a:	0017871b          	addiw	a4,a5,1
   1076e:	0017171b          	slliw	a4,a4,0x1
   10772:	66f1                	lui	a3,0x1c
   10774:	070e                	slli	a4,a4,0x3
   10776:	4c068693          	addi	a3,a3,1216 # 1c4c0 <__malloc_av_>
   1077a:	9736                	add	a4,a4,a3
   1077c:	6700                	ld	s0,8(a4)
   1077e:	ff070593          	addi	a1,a4,-16
   10782:	457d                	li	a0,31
   10784:	00b40963          	beq	s0,a1,10796 <_malloc_r+0xf2>
   10788:	6418                	ld	a4,8(s0)
   1078a:	9b71                	andi	a4,a4,-4
   1078c:	40970633          	sub	a2,a4,s1
   10790:	08c55a63          	ble	a2,a0,10824 <_malloc_r+0x180>
   10794:	37fd                	addiw	a5,a5,-1
   10796:	2785                	addiw	a5,a5,1
   10798:	69f1                	lui	s3,0x1c
   1079a:	4c098693          	addi	a3,s3,1216 # 1c4c0 <__malloc_av_>
   1079e:	7280                	ld	s0,32(a3)
   107a0:	65f1                	lui	a1,0x1c
   107a2:	4d058613          	addi	a2,a1,1232 # 1c4d0 <__malloc_av_+0x10>
   107a6:	4c098993          	addi	s3,s3,1216
   107aa:	4d058593          	addi	a1,a1,1232
   107ae:	0cc40c63          	beq	s0,a2,10886 <_malloc_r+0x1e2>
   107b2:	6418                	ld	a4,8(s0)
   107b4:	487d                	li	a6,31
   107b6:	9b71                	andi	a4,a4,-4
   107b8:	40970533          	sub	a0,a4,s1
   107bc:	06a85f63          	ble	a0,a6,1083a <_malloc_r+0x196>
   107c0:	009407b3          	add	a5,s0,s1
   107c4:	0014e493          	ori	s1,s1,1
   107c8:	e404                	sd	s1,8(s0)
   107ca:	f69c                	sd	a5,40(a3)
   107cc:	f29c                	sd	a5,32(a3)
   107ce:	00156693          	ori	a3,a0,1
   107d2:	ef90                	sd	a2,24(a5)
   107d4:	eb90                	sd	a2,16(a5)
   107d6:	e794                	sd	a3,8(a5)
   107d8:	9722                	add	a4,a4,s0
   107da:	e308                	sd	a0,0(a4)
   107dc:	b7ad                	j	10746 <_malloc_r+0xa2>
   107de:	47d1                	li	a5,20
   107e0:	00e7e563          	bltu	a5,a4,107ea <_malloc_r+0x146>
   107e4:	05b7079b          	addiw	a5,a4,91
   107e8:	b749                	j	1076a <_malloc_r+0xc6>
   107ea:	05400793          	li	a5,84
   107ee:	00e7e763          	bltu	a5,a4,107fc <_malloc_r+0x158>
   107f2:	00c4d793          	srli	a5,s1,0xc
   107f6:	06e7879b          	addiw	a5,a5,110
   107fa:	bf85                	j	1076a <_malloc_r+0xc6>
   107fc:	15400793          	li	a5,340
   10800:	00e7e763          	bltu	a5,a4,1080e <_malloc_r+0x16a>
   10804:	00f4d793          	srli	a5,s1,0xf
   10808:	0777879b          	addiw	a5,a5,119
   1080c:	bfb9                	j	1076a <_malloc_r+0xc6>
   1080e:	55400693          	li	a3,1364
   10812:	07e00793          	li	a5,126
   10816:	f4e6eae3          	bltu	a3,a4,1076a <_malloc_r+0xc6>
   1081a:	0124d793          	srli	a5,s1,0x12
   1081e:	07c7879b          	addiw	a5,a5,124
   10822:	b7a1                	j	1076a <_malloc_r+0xc6>
   10824:	6c14                	ld	a3,24(s0)
   10826:	00064863          	bltz	a2,10836 <_malloc_r+0x192>
   1082a:	681c                	ld	a5,16(s0)
   1082c:	ef94                	sd	a3,24(a5)
   1082e:	ea9c                	sd	a5,16(a3)
   10830:	00e407b3          	add	a5,s0,a4
   10834:	b729                	j	1073e <_malloc_r+0x9a>
   10836:	8436                	mv	s0,a3
   10838:	b7b1                	j	10784 <_malloc_r+0xe0>
   1083a:	f690                	sd	a2,40(a3)
   1083c:	f290                	sd	a2,32(a3)
   1083e:	00054863          	bltz	a0,1084e <_malloc_r+0x1aa>
   10842:	9722                	add	a4,a4,s0
   10844:	671c                	ld	a5,8(a4)
   10846:	0017e793          	ori	a5,a5,1
   1084a:	e71c                	sd	a5,8(a4)
   1084c:	bded                	j	10746 <_malloc_r+0xa2>
   1084e:	1ff00693          	li	a3,511
   10852:	12e6e863          	bltu	a3,a4,10982 <_malloc_r+0x2de>
   10856:	830d                	srli	a4,a4,0x3
   10858:	2701                	sext.w	a4,a4
   1085a:	4027561b          	sraiw	a2,a4,0x2
   1085e:	4685                	li	a3,1
   10860:	00c696b3          	sll	a3,a3,a2
   10864:	2705                	addiw	a4,a4,1
   10866:	0089b603          	ld	a2,8(s3)
   1086a:	0017171b          	slliw	a4,a4,0x1
   1086e:	070e                	slli	a4,a4,0x3
   10870:	8ed1                	or	a3,a3,a2
   10872:	974e                	add	a4,a4,s3
   10874:	00d9b423          	sd	a3,8(s3)
   10878:	6314                	ld	a3,0(a4)
   1087a:	ff070613          	addi	a2,a4,-16
   1087e:	ec10                	sd	a2,24(s0)
   10880:	e814                	sd	a3,16(s0)
   10882:	e300                	sd	s0,0(a4)
   10884:	ee80                	sd	s0,24(a3)
   10886:	4027d71b          	sraiw	a4,a5,0x2
   1088a:	4305                	li	t1,1
   1088c:	00e31333          	sll	t1,t1,a4
   10890:	0089b703          	ld	a4,8(s3)
   10894:	06676063          	bltu	a4,t1,108f4 <_malloc_r+0x250>
   10898:	006776b3          	and	a3,a4,t1
   1089c:	e699                	bnez	a3,108aa <_malloc_r+0x206>
   1089e:	9bf1                	andi	a5,a5,-4
   108a0:	0306                	slli	t1,t1,0x1
   108a2:	006776b3          	and	a3,a4,t1
   108a6:	2791                	addiw	a5,a5,4
   108a8:	dee5                	beqz	a3,108a0 <_malloc_r+0x1fc>
   108aa:	4e7d                	li	t3,31
   108ac:	0017871b          	addiw	a4,a5,1
   108b0:	0017171b          	slliw	a4,a4,0x1
   108b4:	070e                	slli	a4,a4,0x3
   108b6:	1741                	addi	a4,a4,-16
   108b8:	974e                	add	a4,a4,s3
   108ba:	883a                	mv	a6,a4
   108bc:	853e                	mv	a0,a5
   108be:	01883403          	ld	s0,24(a6)
   108c2:	15041f63          	bne	s0,a6,10a20 <_malloc_r+0x37c>
   108c6:	2505                	addiw	a0,a0,1
   108c8:	00357693          	andi	a3,a0,3
   108cc:	0841                	addi	a6,a6,16
   108ce:	fae5                	bnez	a3,108be <_malloc_r+0x21a>
   108d0:	0037f693          	andi	a3,a5,3
   108d4:	18069f63          	bnez	a3,10a72 <_malloc_r+0x3ce>
   108d8:	0089b703          	ld	a4,8(s3)
   108dc:	fff34793          	not	a5,t1
   108e0:	8ff9                	and	a5,a5,a4
   108e2:	00f9b423          	sd	a5,8(s3)
   108e6:	0089b683          	ld	a3,8(s3)
   108ea:	0306                	slli	t1,t1,0x1
   108ec:	0066e463          	bltu	a3,t1,108f4 <_malloc_r+0x250>
   108f0:	18031e63          	bnez	t1,10a8c <_malloc_r+0x3e8>
   108f4:	0109bb03          	ld	s6,16(s3)
   108f8:	008b3403          	ld	s0,8(s6)
   108fc:	ffc47a13          	andi	s4,s0,-4
   10900:	009a6763          	bltu	s4,s1,1090e <_malloc_r+0x26a>
   10904:	409a07b3          	sub	a5,s4,s1
   10908:	477d                	li	a4,31
   1090a:	24f74863          	blt	a4,a5,10b5a <_malloc_r+0x4b6>
   1090e:	8601b403          	ld	s0,-1952(gp) # 1ced8 <__malloc_top_pad>
   10912:	8401b703          	ld	a4,-1984(gp) # 1ceb8 <__malloc_sbrk_base>
   10916:	57fd                	li	a5,-1
   10918:	9426                	add	s0,s0,s1
   1091a:	16f71b63          	bne	a4,a5,10a90 <_malloc_r+0x3ec>
   1091e:	02040413          	addi	s0,s0,32
   10922:	85a2                	mv	a1,s0
   10924:	854a                	mv	a0,s2
   10926:	49a000ef          	jal	ra,10dc0 <_sbrk_r>
   1092a:	57fd                	li	a5,-1
   1092c:	8aaa                	mv	s5,a0
   1092e:	1cf50b63          	beq	a0,a5,10b04 <_malloc_r+0x460>
   10932:	014b07b3          	add	a5,s6,s4
   10936:	00f57463          	bleu	a5,a0,1093e <_malloc_r+0x29a>
   1093a:	1d3b1563          	bne	s6,s3,10b04 <_malloc_r+0x460>
   1093e:	8b018693          	addi	a3,gp,-1872 # 1cf28 <__malloc_current_mallinfo>
   10942:	4298                	lw	a4,0(a3)
   10944:	8b018b93          	addi	s7,gp,-1872 # 1cf28 <__malloc_current_mallinfo>
   10948:	9f21                	addw	a4,a4,s0
   1094a:	c298                	sw	a4,0(a3)
   1094c:	15579863          	bne	a5,s5,10a9c <_malloc_r+0x3f8>
   10950:	03479693          	slli	a3,a5,0x34
   10954:	14069463          	bnez	a3,10a9c <_malloc_r+0x3f8>
   10958:	0109b783          	ld	a5,16(s3)
   1095c:	9452                	add	s0,s0,s4
   1095e:	00146413          	ori	s0,s0,1
   10962:	e780                	sd	s0,8(a5)
   10964:	000ba783          	lw	a5,0(s7)
   10968:	8581b683          	ld	a3,-1960(gp) # 1ced0 <__malloc_max_sbrked_mem>
   1096c:	00f6f463          	bleu	a5,a3,10974 <_malloc_r+0x2d0>
   10970:	84f1bc23          	sd	a5,-1960(gp) # 1ced0 <__malloc_max_sbrked_mem>
   10974:	8501b683          	ld	a3,-1968(gp) # 1cec8 <_edata>
   10978:	18f6f663          	bleu	a5,a3,10b04 <_malloc_r+0x460>
   1097c:	84f1b823          	sd	a5,-1968(gp) # 1cec8 <_edata>
   10980:	a251                	j	10b04 <_malloc_r+0x460>
   10982:	00975613          	srli	a2,a4,0x9
   10986:	4691                	li	a3,4
   10988:	04c6e063          	bltu	a3,a2,109c8 <_malloc_r+0x324>
   1098c:	00675693          	srli	a3,a4,0x6
   10990:	0386869b          	addiw	a3,a3,56
   10994:	0016861b          	addiw	a2,a3,1
   10998:	0016161b          	slliw	a2,a2,0x1
   1099c:	060e                	slli	a2,a2,0x3
   1099e:	964e                	add	a2,a2,s3
   109a0:	ff060513          	addi	a0,a2,-16
   109a4:	6210                	ld	a2,0(a2)
   109a6:	06c51763          	bne	a0,a2,10a14 <_malloc_r+0x370>
   109aa:	4705                	li	a4,1
   109ac:	4026d69b          	sraiw	a3,a3,0x2
   109b0:	00d716b3          	sll	a3,a4,a3
   109b4:	0089b703          	ld	a4,8(s3)
   109b8:	8ed9                	or	a3,a3,a4
   109ba:	00d9b423          	sd	a3,8(s3)
   109be:	ec08                	sd	a0,24(s0)
   109c0:	e810                	sd	a2,16(s0)
   109c2:	e900                	sd	s0,16(a0)
   109c4:	ee00                	sd	s0,24(a2)
   109c6:	b5c1                	j	10886 <_malloc_r+0x1e2>
   109c8:	46d1                	li	a3,20
   109ca:	00c6e563          	bltu	a3,a2,109d4 <_malloc_r+0x330>
   109ce:	05b6069b          	addiw	a3,a2,91
   109d2:	b7c9                	j	10994 <_malloc_r+0x2f0>
   109d4:	05400693          	li	a3,84
   109d8:	00c6e763          	bltu	a3,a2,109e6 <_malloc_r+0x342>
   109dc:	00c75693          	srli	a3,a4,0xc
   109e0:	06e6869b          	addiw	a3,a3,110
   109e4:	bf45                	j	10994 <_malloc_r+0x2f0>
   109e6:	15400693          	li	a3,340
   109ea:	00c6e763          	bltu	a3,a2,109f8 <_malloc_r+0x354>
   109ee:	00f75693          	srli	a3,a4,0xf
   109f2:	0776869b          	addiw	a3,a3,119
   109f6:	bf79                	j	10994 <_malloc_r+0x2f0>
   109f8:	55400513          	li	a0,1364
   109fc:	07e00693          	li	a3,126
   10a00:	f8c56ae3          	bltu	a0,a2,10994 <_malloc_r+0x2f0>
   10a04:	01275693          	srli	a3,a4,0x12
   10a08:	07c6869b          	addiw	a3,a3,124
   10a0c:	b761                	j	10994 <_malloc_r+0x2f0>
   10a0e:	6a10                	ld	a2,16(a2)
   10a10:	00c50663          	beq	a0,a2,10a1c <_malloc_r+0x378>
   10a14:	6614                	ld	a3,8(a2)
   10a16:	9af1                	andi	a3,a3,-4
   10a18:	fed76be3          	bltu	a4,a3,10a0e <_malloc_r+0x36a>
   10a1c:	6e08                	ld	a0,24(a2)
   10a1e:	b745                	j	109be <_malloc_r+0x31a>
   10a20:	6414                	ld	a3,8(s0)
   10a22:	6c10                	ld	a2,24(s0)
   10a24:	9af1                	andi	a3,a3,-4
   10a26:	409688b3          	sub	a7,a3,s1
   10a2a:	031e5763          	ble	a7,t3,10a58 <_malloc_r+0x3b4>
   10a2e:	6818                	ld	a4,16(s0)
   10a30:	009407b3          	add	a5,s0,s1
   10a34:	0014e493          	ori	s1,s1,1
   10a38:	e404                	sd	s1,8(s0)
   10a3a:	ef10                	sd	a2,24(a4)
   10a3c:	ea18                	sd	a4,16(a2)
   10a3e:	02f9b423          	sd	a5,40(s3)
   10a42:	02f9b023          	sd	a5,32(s3)
   10a46:	0018e713          	ori	a4,a7,1
   10a4a:	ef8c                	sd	a1,24(a5)
   10a4c:	eb8c                	sd	a1,16(a5)
   10a4e:	e798                	sd	a4,8(a5)
   10a50:	96a2                	add	a3,a3,s0
   10a52:	0116b023          	sd	a7,0(a3)
   10a56:	b9c5                	j	10746 <_malloc_r+0xa2>
   10a58:	0008cb63          	bltz	a7,10a6e <_malloc_r+0x3ca>
   10a5c:	96a2                	add	a3,a3,s0
   10a5e:	669c                	ld	a5,8(a3)
   10a60:	0017e793          	ori	a5,a5,1
   10a64:	e69c                	sd	a5,8(a3)
   10a66:	681c                	ld	a5,16(s0)
   10a68:	ef90                	sd	a2,24(a5)
   10a6a:	ea1c                	sd	a5,16(a2)
   10a6c:	b9e9                	j	10746 <_malloc_r+0xa2>
   10a6e:	8432                	mv	s0,a2
   10a70:	bd89                	j	108c2 <_malloc_r+0x21e>
   10a72:	ff070693          	addi	a3,a4,-16
   10a76:	6318                	ld	a4,0(a4)
   10a78:	37fd                	addiw	a5,a5,-1
   10a7a:	e4d70be3          	beq	a4,a3,108d0 <_malloc_r+0x22c>
   10a7e:	b5a5                	j	108e6 <_malloc_r+0x242>
   10a80:	2791                	addiw	a5,a5,4
   10a82:	0306                	slli	t1,t1,0x1
   10a84:	0066f733          	and	a4,a3,t1
   10a88:	df65                	beqz	a4,10a80 <_malloc_r+0x3dc>
   10a8a:	b50d                	j	108ac <_malloc_r+0x208>
   10a8c:	87aa                	mv	a5,a0
   10a8e:	bfdd                	j	10a84 <_malloc_r+0x3e0>
   10a90:	6785                	lui	a5,0x1
   10a92:	07fd                	addi	a5,a5,31
   10a94:	943e                	add	s0,s0,a5
   10a96:	77fd                	lui	a5,0xfffff
   10a98:	8c7d                	and	s0,s0,a5
   10a9a:	b561                	j	10922 <_malloc_r+0x27e>
   10a9c:	8401b603          	ld	a2,-1984(gp) # 1ceb8 <__malloc_sbrk_base>
   10aa0:	56fd                	li	a3,-1
   10aa2:	08d61063          	bne	a2,a3,10b22 <_malloc_r+0x47e>
   10aa6:	8551b023          	sd	s5,-1984(gp) # 1ceb8 <__malloc_sbrk_base>
   10aaa:	00faf593          	andi	a1,s5,15
   10aae:	c589                	beqz	a1,10ab8 <_malloc_r+0x414>
   10ab0:	47c1                	li	a5,16
   10ab2:	40b785b3          	sub	a1,a5,a1
   10ab6:	9aae                	add	s5,s5,a1
   10ab8:	6785                	lui	a5,0x1
   10aba:	95be                	add	a1,a1,a5
   10abc:	9456                	add	s0,s0,s5
   10abe:	17fd                	addi	a5,a5,-1
   10ac0:	8c7d                	and	s0,s0,a5
   10ac2:	40858433          	sub	s0,a1,s0
   10ac6:	85a2                	mv	a1,s0
   10ac8:	854a                	mv	a0,s2
   10aca:	2f6000ef          	jal	ra,10dc0 <_sbrk_r>
   10ace:	57fd                	li	a5,-1
   10ad0:	00f51463          	bne	a0,a5,10ad8 <_malloc_r+0x434>
   10ad4:	8556                	mv	a0,s5
   10ad6:	4401                	li	s0,0
   10ad8:	000ba783          	lw	a5,0(s7)
   10adc:	41550533          	sub	a0,a0,s5
   10ae0:	0159b823          	sd	s5,16(s3)
   10ae4:	9fa1                	addw	a5,a5,s0
   10ae6:	942a                	add	s0,s0,a0
   10ae8:	00146413          	ori	s0,s0,1
   10aec:	00fba023          	sw	a5,0(s7)
   10af0:	008ab423          	sd	s0,8(s5)
   10af4:	e73b08e3          	beq	s6,s3,10964 <_malloc_r+0x2c0>
   10af8:	477d                	li	a4,31
   10afa:	03476a63          	bltu	a4,s4,10b2e <_malloc_r+0x48a>
   10afe:	4785                	li	a5,1
   10b00:	00fab423          	sd	a5,8(s5)
   10b04:	0109b783          	ld	a5,16(s3)
   10b08:	6798                	ld	a4,8(a5)
   10b0a:	9b71                	andi	a4,a4,-4
   10b0c:	409707b3          	sub	a5,a4,s1
   10b10:	00976563          	bltu	a4,s1,10b1a <_malloc_r+0x476>
   10b14:	477d                	li	a4,31
   10b16:	04f74263          	blt	a4,a5,10b5a <_malloc_r+0x4b6>
   10b1a:	854a                	mv	a0,s2
   10b1c:	1d2000ef          	jal	ra,10cee <__malloc_unlock>
   10b20:	b6c1                	j	106e0 <_malloc_r+0x3c>
   10b22:	40fa87b3          	sub	a5,s5,a5
   10b26:	9fb9                	addw	a5,a5,a4
   10b28:	00fba023          	sw	a5,0(s7)
   10b2c:	bfbd                	j	10aaa <_malloc_r+0x406>
   10b2e:	008b3783          	ld	a5,8(s6)
   10b32:	fe8a0413          	addi	s0,s4,-24
   10b36:	9841                	andi	s0,s0,-16
   10b38:	8b85                	andi	a5,a5,1
   10b3a:	8fc1                	or	a5,a5,s0
   10b3c:	00fb3423          	sd	a5,8(s6)
   10b40:	46a5                	li	a3,9
   10b42:	008b07b3          	add	a5,s6,s0
   10b46:	e794                	sd	a3,8(a5)
   10b48:	eb94                	sd	a3,16(a5)
   10b4a:	e0877de3          	bleu	s0,a4,10964 <_malloc_r+0x2c0>
   10b4e:	010b0593          	addi	a1,s6,16
   10b52:	854a                	mv	a0,s2
   10b54:	72b010ef          	jal	ra,12a7e <_free_r>
   10b58:	b531                	j	10964 <_malloc_r+0x2c0>
   10b5a:	0109b403          	ld	s0,16(s3)
   10b5e:	0014e713          	ori	a4,s1,1
   10b62:	0017e793          	ori	a5,a5,1
   10b66:	e418                	sd	a4,8(s0)
   10b68:	94a2                	add	s1,s1,s0
   10b6a:	0099b823          	sd	s1,16(s3)
   10b6e:	e49c                	sd	a5,8(s1)
   10b70:	bed9                	j	10746 <_malloc_r+0xa2>
   10b72:	02000793          	li	a5,32
   10b76:	b6b7e2e3          	bltu	a5,a1,106da <_malloc_r+0x36>
   10b7a:	172000ef          	jal	ra,10cec <__malloc_lock>
   10b7e:	02000493          	li	s1,32
   10b82:	b651                	j	10706 <_malloc_r+0x62>

0000000000010b84 <memcpy>:
   10b84:	00a5c7b3          	xor	a5,a1,a0
   10b88:	8b9d                	andi	a5,a5,7
   10b8a:	00c50733          	add	a4,a0,a2
   10b8e:	e781                	bnez	a5,10b96 <memcpy+0x12>
   10b90:	479d                	li	a5,7
   10b92:	00c7ef63          	bltu	a5,a2,10bb0 <memcpy+0x2c>
   10b96:	87aa                	mv	a5,a0
   10b98:	00e56963          	bltu	a0,a4,10baa <memcpy+0x26>
   10b9c:	8082                	ret
   10b9e:	0005c683          	lbu	a3,0(a1)
   10ba2:	0785                	addi	a5,a5,1
   10ba4:	0585                	addi	a1,a1,1
   10ba6:	fed78fa3          	sb	a3,-1(a5) # fff <_start-0xf0b1>
   10baa:	fee7eae3          	bltu	a5,a4,10b9e <memcpy+0x1a>
   10bae:	8082                	ret
   10bb0:	00757793          	andi	a5,a0,7
   10bb4:	ebbd                	bnez	a5,10c2a <memcpy+0xa6>
   10bb6:	87aa                	mv	a5,a0
   10bb8:	ff877693          	andi	a3,a4,-8
   10bbc:	fc068613          	addi	a2,a3,-64
   10bc0:	06c7fc63          	bleu	a2,a5,10c38 <memcpy+0xb4>
   10bc4:	0005b383          	ld	t2,0(a1)
   10bc8:	0085b283          	ld	t0,8(a1)
   10bcc:	0105bf83          	ld	t6,16(a1)
   10bd0:	0185bf03          	ld	t5,24(a1)
   10bd4:	0205be83          	ld	t4,32(a1)
   10bd8:	0285be03          	ld	t3,40(a1)
   10bdc:	0305b303          	ld	t1,48(a1)
   10be0:	0385b883          	ld	a7,56(a1)
   10be4:	04858593          	addi	a1,a1,72
   10be8:	04878793          	addi	a5,a5,72
   10bec:	ff85b803          	ld	a6,-8(a1)
   10bf0:	fa77bc23          	sd	t2,-72(a5)
   10bf4:	fc57b023          	sd	t0,-64(a5)
   10bf8:	fdf7b423          	sd	t6,-56(a5)
   10bfc:	fde7b823          	sd	t5,-48(a5)
   10c00:	fdd7bc23          	sd	t4,-40(a5)
   10c04:	ffc7b023          	sd	t3,-32(a5)
   10c08:	fe67b423          	sd	t1,-24(a5)
   10c0c:	ff17b823          	sd	a7,-16(a5)
   10c10:	ff07bc23          	sd	a6,-8(a5)
   10c14:	b775                	j	10bc0 <memcpy+0x3c>
   10c16:	0005c683          	lbu	a3,0(a1)
   10c1a:	0785                	addi	a5,a5,1
   10c1c:	0585                	addi	a1,a1,1
   10c1e:	fed78fa3          	sb	a3,-1(a5)
   10c22:	0077f693          	andi	a3,a5,7
   10c26:	fae5                	bnez	a3,10c16 <memcpy+0x92>
   10c28:	bf41                	j	10bb8 <memcpy+0x34>
   10c2a:	87aa                	mv	a5,a0
   10c2c:	bfdd                	j	10c22 <memcpy+0x9e>
   10c2e:	6190                	ld	a2,0(a1)
   10c30:	07a1                	addi	a5,a5,8
   10c32:	05a1                	addi	a1,a1,8
   10c34:	fec7bc23          	sd	a2,-8(a5)
   10c38:	fed7ebe3          	bltu	a5,a3,10c2e <memcpy+0xaa>
   10c3c:	f6e7e7e3          	bltu	a5,a4,10baa <memcpy+0x26>
   10c40:	8082                	ret

0000000000010c42 <memset>:
   10c42:	433d                	li	t1,15
   10c44:	872a                	mv	a4,a0
   10c46:	02c37163          	bleu	a2,t1,10c68 <memset+0x26>
   10c4a:	00f77793          	andi	a5,a4,15
   10c4e:	e3c1                	bnez	a5,10cce <memset+0x8c>
   10c50:	e1bd                	bnez	a1,10cb6 <memset+0x74>
   10c52:	ff067693          	andi	a3,a2,-16
   10c56:	8a3d                	andi	a2,a2,15
   10c58:	96ba                	add	a3,a3,a4
   10c5a:	e30c                	sd	a1,0(a4)
   10c5c:	e70c                	sd	a1,8(a4)
   10c5e:	0741                	addi	a4,a4,16
   10c60:	fed76de3          	bltu	a4,a3,10c5a <memset+0x18>
   10c64:	e211                	bnez	a2,10c68 <memset+0x26>
   10c66:	8082                	ret
   10c68:	40c306b3          	sub	a3,t1,a2
   10c6c:	068a                	slli	a3,a3,0x2
   10c6e:	00000297          	auipc	t0,0x0
   10c72:	9696                	add	a3,a3,t0
   10c74:	00a68067          	jr	10(a3)
   10c78:	00b70723          	sb	a1,14(a4)
   10c7c:	00b706a3          	sb	a1,13(a4)
   10c80:	00b70623          	sb	a1,12(a4)
   10c84:	00b705a3          	sb	a1,11(a4)
   10c88:	00b70523          	sb	a1,10(a4)
   10c8c:	00b704a3          	sb	a1,9(a4)
   10c90:	00b70423          	sb	a1,8(a4)
   10c94:	00b703a3          	sb	a1,7(a4)
   10c98:	00b70323          	sb	a1,6(a4)
   10c9c:	00b702a3          	sb	a1,5(a4)
   10ca0:	00b70223          	sb	a1,4(a4)
   10ca4:	00b701a3          	sb	a1,3(a4)
   10ca8:	00b70123          	sb	a1,2(a4)
   10cac:	00b700a3          	sb	a1,1(a4)
   10cb0:	00b70023          	sb	a1,0(a4)
   10cb4:	8082                	ret
   10cb6:	0ff5f593          	andi	a1,a1,255
   10cba:	00859693          	slli	a3,a1,0x8
   10cbe:	8dd5                	or	a1,a1,a3
   10cc0:	01059693          	slli	a3,a1,0x10
   10cc4:	8dd5                	or	a1,a1,a3
   10cc6:	02059693          	slli	a3,a1,0x20
   10cca:	8dd5                	or	a1,a1,a3
   10ccc:	b759                	j	10c52 <memset+0x10>
   10cce:	00279693          	slli	a3,a5,0x2
   10cd2:	00000297          	auipc	t0,0x0
   10cd6:	9696                	add	a3,a3,t0
   10cd8:	8286                	mv	t0,ra
   10cda:	fa2680e7          	jalr	-94(a3)
   10cde:	8096                	mv	ra,t0
   10ce0:	17c1                	addi	a5,a5,-16
   10ce2:	8f1d                	sub	a4,a4,a5
   10ce4:	963e                	add	a2,a2,a5
   10ce6:	f8c371e3          	bleu	a2,t1,10c68 <memset+0x26>
   10cea:	b79d                	j	10c50 <memset+0xe>

0000000000010cec <__malloc_lock>:
   10cec:	8082                	ret

0000000000010cee <__malloc_unlock>:
   10cee:	8082                	ret

0000000000010cf0 <_printf_r>:
   10cf0:	715d                	addi	sp,sp,-80
   10cf2:	f032                	sd	a2,32(sp)
   10cf4:	f436                	sd	a3,40(sp)
   10cf6:	f83a                	sd	a4,48(sp)
   10cf8:	fc3e                	sd	a5,56(sp)
   10cfa:	e0c2                	sd	a6,64(sp)
   10cfc:	e4c6                	sd	a7,72(sp)
   10cfe:	862e                	mv	a2,a1
   10d00:	690c                	ld	a1,16(a0)
   10d02:	1014                	addi	a3,sp,32
   10d04:	ec06                	sd	ra,24(sp)
   10d06:	e436                	sd	a3,8(sp)
   10d08:	0f6000ef          	jal	ra,10dfe <_vfprintf_r>
   10d0c:	60e2                	ld	ra,24(sp)
   10d0e:	6161                	addi	sp,sp,80
   10d10:	8082                	ret

0000000000010d12 <printf>:
   10d12:	711d                	addi	sp,sp,-96
   10d14:	e4be                	sd	a5,72(sp)
   10d16:	8381b783          	ld	a5,-1992(gp) # 1ceb0 <_impure_ptr>
   10d1a:	f832                	sd	a2,48(sp)
   10d1c:	fc36                	sd	a3,56(sp)
   10d1e:	f42e                	sd	a1,40(sp)
   10d20:	e0ba                	sd	a4,64(sp)
   10d22:	e8c2                	sd	a6,80(sp)
   10d24:	ecc6                	sd	a7,88(sp)
   10d26:	6b8c                	ld	a1,16(a5)
   10d28:	1034                	addi	a3,sp,40
   10d2a:	862a                	mv	a2,a0
   10d2c:	853e                	mv	a0,a5
   10d2e:	ec06                	sd	ra,24(sp)
   10d30:	e436                	sd	a3,8(sp)
   10d32:	0cc000ef          	jal	ra,10dfe <_vfprintf_r>
   10d36:	60e2                	ld	ra,24(sp)
   10d38:	6125                	addi	sp,sp,96
   10d3a:	8082                	ret

0000000000010d3c <_puts_r>:
   10d3c:	711d                	addi	sp,sp,-96
   10d3e:	e8a2                	sd	s0,80(sp)
   10d40:	842a                	mv	s0,a0
   10d42:	852e                	mv	a0,a1
   10d44:	e42e                	sd	a1,8(sp)
   10d46:	ec86                	sd	ra,88(sp)
   10d48:	0a4000ef          	jal	ra,10dec <strlen>
   10d4c:	0001a7b7          	lui	a5,0x1a
   10d50:	06878793          	addi	a5,a5,104 # 1a068 <__clzdi2+0x120>
   10d54:	e0be                	sd	a5,64(sp)
   10d56:	4785                	li	a5,1
   10d58:	e4be                	sd	a5,72(sp)
   10d5a:	181c                	addi	a5,sp,48
   10d5c:	65a2                	ld	a1,8(sp)
   10d5e:	ec3e                	sd	a5,24(sp)
   10d60:	4789                	li	a5,2
   10d62:	d03e                	sw	a5,32(sp)
   10d64:	483c                	lw	a5,80(s0)
   10d66:	fc2a                	sd	a0,56(sp)
   10d68:	0505                	addi	a0,a0,1
   10d6a:	f82e                	sd	a1,48(sp)
   10d6c:	f42a                	sd	a0,40(sp)
   10d6e:	680c                	ld	a1,16(s0)
   10d70:	e791                	bnez	a5,10d7c <_puts_r+0x40>
   10d72:	8522                	mv	a0,s0
   10d74:	e42e                	sd	a1,8(sp)
   10d76:	339010ef          	jal	ra,128ae <__sinit>
   10d7a:	65a2                	ld	a1,8(sp)
   10d7c:	01059783          	lh	a5,16(a1)
   10d80:	03279713          	slli	a4,a5,0x32
   10d84:	00074d63          	bltz	a4,10d9e <_puts_r+0x62>
   10d88:	6689                	lui	a3,0x2
   10d8a:	0ac5a703          	lw	a4,172(a1)
   10d8e:	8fd5                	or	a5,a5,a3
   10d90:	00f59823          	sh	a5,16(a1)
   10d94:	77f9                	lui	a5,0xffffe
   10d96:	17fd                	addi	a5,a5,-1
   10d98:	8ff9                	and	a5,a5,a4
   10d9a:	0af5a623          	sw	a5,172(a1)
   10d9e:	0830                	addi	a2,sp,24
   10da0:	8522                	mv	a0,s0
   10da2:	68f010ef          	jal	ra,12c30 <__sfvwrite_r>
   10da6:	57fd                	li	a5,-1
   10da8:	e111                	bnez	a0,10dac <_puts_r+0x70>
   10daa:	47a9                	li	a5,10
   10dac:	60e6                	ld	ra,88(sp)
   10dae:	6446                	ld	s0,80(sp)
   10db0:	853e                	mv	a0,a5
   10db2:	6125                	addi	sp,sp,96
   10db4:	8082                	ret

0000000000010db6 <puts>:
   10db6:	85aa                	mv	a1,a0
   10db8:	8381b503          	ld	a0,-1992(gp) # 1ceb0 <_impure_ptr>
   10dbc:	f81ff06f          	j	10d3c <_puts_r>

0000000000010dc0 <_sbrk_r>:
   10dc0:	1101                	addi	sp,sp,-32
   10dc2:	e822                	sd	s0,16(sp)
   10dc4:	e426                	sd	s1,8(sp)
   10dc6:	84aa                	mv	s1,a0
   10dc8:	852e                	mv	a0,a1
   10dca:	ec06                	sd	ra,24(sp)
   10dcc:	8e01a423          	sw	zero,-1816(gp) # 1cf60 <errno>
   10dd0:	383070ef          	jal	ra,18952 <_sbrk>
   10dd4:	57fd                	li	a5,-1
   10dd6:	00f51663          	bne	a0,a5,10de2 <_sbrk_r+0x22>
   10dda:	8e81a783          	lw	a5,-1816(gp) # 1cf60 <errno>
   10dde:	c391                	beqz	a5,10de2 <_sbrk_r+0x22>
   10de0:	c09c                	sw	a5,0(s1)
   10de2:	60e2                	ld	ra,24(sp)
   10de4:	6442                	ld	s0,16(sp)
   10de6:	64a2                	ld	s1,8(sp)
   10de8:	6105                	addi	sp,sp,32
   10dea:	8082                	ret

0000000000010dec <strlen>:
   10dec:	87aa                	mv	a5,a0
   10dee:	0785                	addi	a5,a5,1
   10df0:	fff7c703          	lbu	a4,-1(a5) # ffffffffffffdfff <__global_pointer$+0xfffffffffffe0987>
   10df4:	ff6d                	bnez	a4,10dee <strlen+0x2>
   10df6:	40a78533          	sub	a0,a5,a0
   10dfa:	157d                	addi	a0,a0,-1
   10dfc:	8082                	ret

0000000000010dfe <_vfprintf_r>:
   10dfe:	d9010113          	addi	sp,sp,-624
   10e02:	26113423          	sd	ra,616(sp)
   10e06:	24913c23          	sd	s1,600(sp)
   10e0a:	25213823          	sd	s2,592(sp)
   10e0e:	25313423          	sd	s3,584(sp)
   10e12:	23713423          	sd	s7,552(sp)
   10e16:	892e                	mv	s2,a1
   10e18:	84b2                	mv	s1,a2
   10e1a:	8bb6                	mv	s7,a3
   10e1c:	26813023          	sd	s0,608(sp)
   10e20:	25413023          	sd	s4,576(sp)
   10e24:	23513c23          	sd	s5,568(sp)
   10e28:	23613823          	sd	s6,560(sp)
   10e2c:	23813023          	sd	s8,544(sp)
   10e30:	21913c23          	sd	s9,536(sp)
   10e34:	21a13823          	sd	s10,528(sp)
   10e38:	21b13423          	sd	s11,520(sp)
   10e3c:	89aa                	mv	s3,a0
   10e3e:	0d1030ef          	jal	ra,1470e <_localeconv_r>
   10e42:	611c                	ld	a5,0(a0)
   10e44:	853e                	mv	a0,a5
   10e46:	e4be                	sd	a5,72(sp)
   10e48:	fa5ff0ef          	jal	ra,10dec <strlen>
   10e4c:	ec2a                	sd	a0,24(sp)
   10e4e:	f982                	sd	zero,240(sp)
   10e50:	fd82                	sd	zero,248(sp)
   10e52:	00098863          	beqz	s3,10e62 <_vfprintf_r+0x64>
   10e56:	0509a783          	lw	a5,80(s3)
   10e5a:	e781                	bnez	a5,10e62 <_vfprintf_r+0x64>
   10e5c:	854e                	mv	a0,s3
   10e5e:	251010ef          	jal	ra,128ae <__sinit>
   10e62:	01091783          	lh	a5,16(s2)
   10e66:	03279713          	slli	a4,a5,0x32
   10e6a:	00074d63          	bltz	a4,10e84 <_vfprintf_r+0x86>
   10e6e:	6689                	lui	a3,0x2
   10e70:	0ac92703          	lw	a4,172(s2)
   10e74:	8fd5                	or	a5,a5,a3
   10e76:	00f91823          	sh	a5,16(s2)
   10e7a:	77f9                	lui	a5,0xffffe
   10e7c:	17fd                	addi	a5,a5,-1
   10e7e:	8ff9                	and	a5,a5,a4
   10e80:	0af92623          	sw	a5,172(s2)
   10e84:	01095783          	lhu	a5,16(s2)
   10e88:	8ba1                	andi	a5,a5,8
   10e8a:	c3bd                	beqz	a5,10ef0 <_vfprintf_r+0xf2>
   10e8c:	01893783          	ld	a5,24(s2)
   10e90:	c3a5                	beqz	a5,10ef0 <_vfprintf_r+0xf2>
   10e92:	01095783          	lhu	a5,16(s2)
   10e96:	4729                	li	a4,10
   10e98:	8be9                	andi	a5,a5,26
   10e9a:	06e79363          	bne	a5,a4,10f00 <_vfprintf_r+0x102>
   10e9e:	01291783          	lh	a5,18(s2)
   10ea2:	0407cf63          	bltz	a5,10f00 <_vfprintf_r+0x102>
   10ea6:	86de                	mv	a3,s7
   10ea8:	8626                	mv	a2,s1
   10eaa:	85ca                	mv	a1,s2
   10eac:	854e                	mv	a0,s3
   10eae:	50c010ef          	jal	ra,123ba <__sbprintf>
   10eb2:	f42a                	sd	a0,40(sp)
   10eb4:	26813083          	ld	ra,616(sp)
   10eb8:	26013403          	ld	s0,608(sp)
   10ebc:	7522                	ld	a0,40(sp)
   10ebe:	25813483          	ld	s1,600(sp)
   10ec2:	25013903          	ld	s2,592(sp)
   10ec6:	24813983          	ld	s3,584(sp)
   10eca:	24013a03          	ld	s4,576(sp)
   10ece:	23813a83          	ld	s5,568(sp)
   10ed2:	23013b03          	ld	s6,560(sp)
   10ed6:	22813b83          	ld	s7,552(sp)
   10eda:	22013c03          	ld	s8,544(sp)
   10ede:	21813c83          	ld	s9,536(sp)
   10ee2:	21013d03          	ld	s10,528(sp)
   10ee6:	20813d83          	ld	s11,520(sp)
   10eea:	27010113          	addi	sp,sp,624
   10eee:	8082                	ret
   10ef0:	85ca                	mv	a1,s2
   10ef2:	854e                	mv	a0,s3
   10ef4:	554010ef          	jal	ra,12448 <__swsetup_r>
   10ef8:	dd49                	beqz	a0,10e92 <_vfprintf_r+0x94>
   10efa:	57fd                	li	a5,-1
   10efc:	f43e                	sd	a5,40(sp)
   10efe:	bf5d                	j	10eb4 <_vfprintf_r+0xb6>
   10f00:	67e9                	lui	a5,0x1a
   10f02:	07078793          	addi	a5,a5,112 # 1a070 <__clzdi2+0x128>
   10f06:	ed3e                	sd	a5,152(sp)
   10f08:	0001a7b7          	lui	a5,0x1a
   10f0c:	2087b783          	ld	a5,520(a5) # 1a208 <zeroes.4441+0x18>
   10f10:	18010a93          	addi	s5,sp,384
   10f14:	e256                	sd	s5,256(sp)
   10f16:	f13e                	sd	a5,160(sp)
   10f18:	0001a7b7          	lui	a5,0x1a
   10f1c:	2187b783          	ld	a5,536(a5) # 1a218 <zeroes.4441+0x28>
   10f20:	ea02                	sd	zero,272(sp)
   10f22:	10012423          	sw	zero,264(sp)
   10f26:	f53e                	sd	a5,168(sp)
   10f28:	0001a7b7          	lui	a5,0x1a
   10f2c:	2287b783          	ld	a5,552(a5) # 1a228 <zeroes.4441+0x38>
   10f30:	4a01                	li	s4,0
   10f32:	8cd6                	mv	s9,s5
   10f34:	f082                	sd	zero,96(sp)
   10f36:	ec82                	sd	zero,88(sp)
   10f38:	e002                	sd	zero,0(sp)
   10f3a:	e082                	sd	zero,64(sp)
   10f3c:	e882                	sd	zero,80(sp)
   10f3e:	f402                	sd	zero,40(sp)
   10f40:	e93e                	sd	a5,144(sp)
   10f42:	8426                	mv	s0,s1
   10f44:	02500713          	li	a4,37
   10f48:	00044783          	lbu	a5,0(s0)
   10f4c:	c399                	beqz	a5,10f52 <_vfprintf_r+0x154>
   10f4e:	08e79663          	bne	a5,a4,10fda <_vfprintf_r+0x1dc>
   10f52:	40940b3b          	subw	s6,s0,s1
   10f56:	020b0f63          	beqz	s6,10f94 <_vfprintf_r+0x196>
   10f5a:	67d2                	ld	a5,272(sp)
   10f5c:	009cb023          	sd	s1,0(s9)
   10f60:	016cb423          	sd	s6,8(s9)
   10f64:	97da                	add	a5,a5,s6
   10f66:	ea3e                	sd	a5,272(sp)
   10f68:	10812783          	lw	a5,264(sp)
   10f6c:	0cc1                	addi	s9,s9,16
   10f6e:	0017871b          	addiw	a4,a5,1
   10f72:	10e12423          	sw	a4,264(sp)
   10f76:	479d                	li	a5,7
   10f78:	00e7da63          	ble	a4,a5,10f8c <_vfprintf_r+0x18e>
   10f7c:	0210                	addi	a2,sp,256
   10f7e:	85ca                	mv	a1,s2
   10f80:	854e                	mv	a0,s3
   10f82:	0f4060ef          	jal	ra,17076 <__sprint_r>
   10f86:	54051463          	bnez	a0,114ce <_vfprintf_r+0x6d0>
   10f8a:	8cd6                	mv	s9,s5
   10f8c:	77a2                	ld	a5,40(sp)
   10f8e:	016787bb          	addw	a5,a5,s6
   10f92:	f43e                	sd	a5,40(sp)
   10f94:	00044783          	lbu	a5,0(s0)
   10f98:	e399                	bnez	a5,10f9e <_vfprintf_r+0x1a0>
   10f9a:	3fe0106f          	j	12398 <_vfprintf_r+0x159a>
   10f9e:	00140793          	addi	a5,s0,1
   10fa2:	0c0107a3          	sb	zero,207(sp)
   10fa6:	5dfd                	li	s11,-1
   10fa8:	f002                	sd	zero,32(sp)
   10faa:	4401                	li	s0,0
   10fac:	05a00d13          	li	s10,90
   10fb0:	4c29                	li	s8,10
   10fb2:	0007cb03          	lbu	s6,0(a5)
   10fb6:	00178713          	addi	a4,a5,1
   10fba:	e83a                	sd	a4,16(sp)
   10fbc:	46a5                	li	a3,9
   10fbe:	02a00613          	li	a2,42
   10fc2:	fe0b079b          	addiw	a5,s6,-32
   10fc6:	0007871b          	sext.w	a4,a5
   10fca:	3aed65e3          	bltu	s10,a4,11b74 <_vfprintf_r+0xd76>
   10fce:	676a                	ld	a4,152(sp)
   10fd0:	1782                	slli	a5,a5,0x20
   10fd2:	83f9                	srli	a5,a5,0x1e
   10fd4:	97ba                	add	a5,a5,a4
   10fd6:	439c                	lw	a5,0(a5)
   10fd8:	8782                	jr	a5
   10fda:	0405                	addi	s0,s0,1
   10fdc:	b7b5                	j	10f48 <_vfprintf_r+0x14a>
   10fde:	0001a7b7          	lui	a5,0x1a
   10fe2:	26878793          	addi	a5,a5,616 # 1a268 <zeroes.4441+0x78>
   10fe6:	f0be                	sd	a5,96(sp)
   10fe8:	008b8793          	addi	a5,s7,8
   10fec:	f83e                	sd	a5,48(sp)
   10fee:	02047793          	andi	a5,s0,32
   10ff2:	24078ae3          	beqz	a5,11a46 <_vfprintf_r+0xc48>
   10ff6:	000bbb83          	ld	s7,0(s7)
   10ffa:	00147793          	andi	a5,s0,1
   10ffe:	cf81                	beqz	a5,11016 <_vfprintf_r+0x218>
   11000:	000b8b63          	beqz	s7,11016 <_vfprintf_r+0x218>
   11004:	03000793          	li	a5,48
   11008:	00246413          	ori	s0,s0,2
   1100c:	0cf10823          	sb	a5,208(sp)
   11010:	0d6108a3          	sb	s6,209(sp)
   11014:	2401                	sext.w	s0,s0
   11016:	bff47413          	andi	s0,s0,-1025
   1101a:	2401                	sext.w	s0,s0
   1101c:	4789                	li	a5,2
   1101e:	1250006f          	j	11942 <_vfprintf_r+0xb44>
   11022:	854e                	mv	a0,s3
   11024:	6ea030ef          	jal	ra,1470e <_localeconv_r>
   11028:	651c                	ld	a5,8(a0)
   1102a:	853e                	mv	a0,a5
   1102c:	e8be                	sd	a5,80(sp)
   1102e:	dbfff0ef          	jal	ra,10dec <strlen>
   11032:	e0aa                	sd	a0,64(sp)
   11034:	854e                	mv	a0,s3
   11036:	6d8030ef          	jal	ra,1470e <_localeconv_r>
   1103a:	691c                	ld	a5,16(a0)
   1103c:	e03e                	sd	a5,0(sp)
   1103e:	6786                	ld	a5,64(sp)
   11040:	c38d                	beqz	a5,11062 <_vfprintf_r+0x264>
   11042:	6782                	ld	a5,0(sp)
   11044:	cf99                	beqz	a5,11062 <_vfprintf_r+0x264>
   11046:	0007c783          	lbu	a5,0(a5)
   1104a:	cf81                	beqz	a5,11062 <_vfprintf_r+0x264>
   1104c:	40046413          	ori	s0,s0,1024
   11050:	2401                	sext.w	s0,s0
   11052:	a801                	j	11062 <_vfprintf_r+0x264>
   11054:	0cf14783          	lbu	a5,207(sp)
   11058:	e789                	bnez	a5,11062 <_vfprintf_r+0x264>
   1105a:	02000793          	li	a5,32
   1105e:	0cf107a3          	sb	a5,207(sp)
   11062:	67c2                	ld	a5,16(sp)
   11064:	b7b9                	j	10fb2 <_vfprintf_r+0x1b4>
   11066:	00146413          	ori	s0,s0,1
   1106a:	b7dd                	j	11050 <_vfprintf_r+0x252>
   1106c:	000ba783          	lw	a5,0(s7)
   11070:	0ba1                	addi	s7,s7,8
   11072:	f03e                	sd	a5,32(sp)
   11074:	fe07d7e3          	bgez	a5,11062 <_vfprintf_r+0x264>
   11078:	40f007bb          	negw	a5,a5
   1107c:	f03e                	sd	a5,32(sp)
   1107e:	00446413          	ori	s0,s0,4
   11082:	b7f9                	j	11050 <_vfprintf_r+0x252>
   11084:	02b00793          	li	a5,43
   11088:	bfd9                	j	1105e <_vfprintf_r+0x260>
   1108a:	6742                	ld	a4,16(sp)
   1108c:	67c2                	ld	a5,16(sp)
   1108e:	00074b03          	lbu	s6,0(a4)
   11092:	0785                	addi	a5,a5,1
   11094:	02cb1e63          	bne	s6,a2,110d0 <_vfprintf_r+0x2d2>
   11098:	000bae03          	lw	t3,0(s7)
   1109c:	008b8713          	addi	a4,s7,8
   110a0:	020e1693          	slli	a3,t3,0x20
   110a4:	0006d363          	bgez	a3,110aa <_vfprintf_r+0x2ac>
   110a8:	5e7d                	li	t3,-1
   110aa:	000e0d9b          	sext.w	s11,t3
   110ae:	8bba                	mv	s7,a4
   110b0:	e83e                	sd	a5,16(sp)
   110b2:	bf45                	j	11062 <_vfprintf_r+0x264>
   110b4:	03bc0e3b          	mulw	t3,s8,s11
   110b8:	0785                	addi	a5,a5,1
   110ba:	fff7cb03          	lbu	s6,-1(a5)
   110be:	00ee0dbb          	addw	s11,t3,a4
   110c2:	fd0b059b          	addiw	a1,s6,-48
   110c6:	872e                	mv	a4,a1
   110c8:	feb6f6e3          	bleu	a1,a3,110b4 <_vfprintf_r+0x2b6>
   110cc:	e83e                	sd	a5,16(sp)
   110ce:	bdd5                	j	10fc2 <_vfprintf_r+0x1c4>
   110d0:	4d81                	li	s11,0
   110d2:	bfc5                	j	110c2 <_vfprintf_r+0x2c4>
   110d4:	08046413          	ori	s0,s0,128
   110d8:	bfa5                	j	11050 <_vfprintf_r+0x252>
   110da:	67c2                	ld	a5,16(sp)
   110dc:	f002                	sd	zero,32(sp)
   110de:	7702                	ld	a4,32(sp)
   110e0:	fd0b0b1b          	addiw	s6,s6,-48
   110e4:	0785                	addi	a5,a5,1
   110e6:	02ec073b          	mulw	a4,s8,a4
   110ea:	00eb073b          	addw	a4,s6,a4
   110ee:	fff7cb03          	lbu	s6,-1(a5)
   110f2:	f03a                	sd	a4,32(sp)
   110f4:	fd0b071b          	addiw	a4,s6,-48
   110f8:	fee6f3e3          	bleu	a4,a3,110de <_vfprintf_r+0x2e0>
   110fc:	bfc1                	j	110cc <_vfprintf_r+0x2ce>
   110fe:	00846413          	ori	s0,s0,8
   11102:	b7b9                	j	11050 <_vfprintf_r+0x252>
   11104:	67c2                	ld	a5,16(sp)
   11106:	0007c703          	lbu	a4,0(a5)
   1110a:	06800793          	li	a5,104
   1110e:	00f71863          	bne	a4,a5,1111e <_vfprintf_r+0x320>
   11112:	67c2                	ld	a5,16(sp)
   11114:	20046413          	ori	s0,s0,512
   11118:	0785                	addi	a5,a5,1
   1111a:	e83e                	sd	a5,16(sp)
   1111c:	bf15                	j	11050 <_vfprintf_r+0x252>
   1111e:	04046413          	ori	s0,s0,64
   11122:	b73d                	j	11050 <_vfprintf_r+0x252>
   11124:	67c2                	ld	a5,16(sp)
   11126:	0007c703          	lbu	a4,0(a5)
   1112a:	06c00793          	li	a5,108
   1112e:	00f71863          	bne	a4,a5,1113e <_vfprintf_r+0x340>
   11132:	67c2                	ld	a5,16(sp)
   11134:	0785                	addi	a5,a5,1
   11136:	e83e                	sd	a5,16(sp)
   11138:	02046413          	ori	s0,s0,32
   1113c:	bf11                	j	11050 <_vfprintf_r+0x252>
   1113e:	01046413          	ori	s0,s0,16
   11142:	b739                	j	11050 <_vfprintf_r+0x252>
   11144:	008b8793          	addi	a5,s7,8
   11148:	f83e                	sd	a5,48(sp)
   1114a:	000ba783          	lw	a5,0(s7)
   1114e:	0c0107a3          	sb	zero,207(sp)
   11152:	10f10c23          	sb	a5,280(sp)
   11156:	4b81                	li	s7,0
   11158:	4d85                	li	s11,1
   1115a:	4701                	li	a4,0
   1115c:	e402                	sd	zero,8(sp)
   1115e:	4c01                	li	s8,0
   11160:	4d01                	li	s10,0
   11162:	0a24                	addi	s1,sp,280
   11164:	86ba                	mv	a3,a4
   11166:	01b75363          	ble	s11,a4,1116c <_vfprintf_r+0x36e>
   1116a:	86ee                	mv	a3,s11
   1116c:	0cf14603          	lbu	a2,207(sp)
   11170:	0006879b          	sext.w	a5,a3
   11174:	fc3e                	sd	a5,56(sp)
   11176:	c601                	beqz	a2,1117e <_vfprintf_r+0x380>
   11178:	0016879b          	addiw	a5,a3,1
   1117c:	fc3e                	sd	a5,56(sp)
   1117e:	00247693          	andi	a3,s0,2
   11182:	0006879b          	sext.w	a5,a3
   11186:	f4be                	sd	a5,104(sp)
   11188:	c781                	beqz	a5,11190 <_vfprintf_r+0x392>
   1118a:	77e2                	ld	a5,56(sp)
   1118c:	2789                	addiw	a5,a5,2
   1118e:	fc3e                	sd	a5,56(sp)
   11190:	08447793          	andi	a5,s0,132
   11194:	f8be                	sd	a5,112(sp)
   11196:	efa9                	bnez	a5,111f0 <_vfprintf_r+0x3f2>
   11198:	7782                	ld	a5,32(sp)
   1119a:	76e2                	ld	a3,56(sp)
   1119c:	40d786bb          	subw	a3,a5,a3
   111a0:	04d05863          	blez	a3,111f0 <_vfprintf_r+0x3f2>
   111a4:	6869                	lui	a6,0x1a
   111a6:	48c1                	li	a7,16
   111a8:	1e080813          	addi	a6,a6,480 # 1a1e0 <blanks.4440>
   111ac:	4e9d                	li	t4,7
   111ae:	10812583          	lw	a1,264(sp)
   111b2:	010cb023          	sd	a6,0(s9)
   111b6:	6652                	ld	a2,272(sp)
   111b8:	0015851b          	addiw	a0,a1,1
   111bc:	85aa                	mv	a1,a0
   111be:	010c8f13          	addi	t5,s9,16
   111c2:	1cd8c2e3          	blt	a7,a3,11b86 <_vfprintf_r+0xd88>
   111c6:	00dcb423          	sd	a3,8(s9)
   111ca:	96b2                	add	a3,a3,a2
   111cc:	ea36                	sd	a3,272(sp)
   111ce:	10a12423          	sw	a0,264(sp)
   111d2:	469d                	li	a3,7
   111d4:	8cfa                	mv	s9,t5
   111d6:	00a6dd63          	ble	a0,a3,111f0 <_vfprintf_r+0x3f2>
   111da:	0210                	addi	a2,sp,256
   111dc:	85ca                	mv	a1,s2
   111de:	854e                	mv	a0,s3
   111e0:	fcba                	sd	a4,120(sp)
   111e2:	695050ef          	jal	ra,17076 <__sprint_r>
   111e6:	c119                	beqz	a0,111ec <_vfprintf_r+0x3ee>
   111e8:	1720106f          	j	1235a <_vfprintf_r+0x155c>
   111ec:	7766                	ld	a4,120(sp)
   111ee:	8cd6                	mv	s9,s5
   111f0:	0cf14683          	lbu	a3,207(sp)
   111f4:	c2a1                	beqz	a3,11234 <_vfprintf_r+0x436>
   111f6:	0cf10693          	addi	a3,sp,207
   111fa:	00dcb023          	sd	a3,0(s9)
   111fe:	4685                	li	a3,1
   11200:	00dcb423          	sd	a3,8(s9)
   11204:	66d2                	ld	a3,272(sp)
   11206:	0cc1                	addi	s9,s9,16
   11208:	0685                	addi	a3,a3,1
   1120a:	ea36                	sd	a3,272(sp)
   1120c:	10812683          	lw	a3,264(sp)
   11210:	0016861b          	addiw	a2,a3,1
   11214:	10c12423          	sw	a2,264(sp)
   11218:	469d                	li	a3,7
   1121a:	00c6dd63          	ble	a2,a3,11234 <_vfprintf_r+0x436>
   1121e:	0210                	addi	a2,sp,256
   11220:	85ca                	mv	a1,s2
   11222:	854e                	mv	a0,s3
   11224:	fcba                	sd	a4,120(sp)
   11226:	651050ef          	jal	ra,17076 <__sprint_r>
   1122a:	c119                	beqz	a0,11230 <_vfprintf_r+0x432>
   1122c:	12e0106f          	j	1235a <_vfprintf_r+0x155c>
   11230:	7766                	ld	a4,120(sp)
   11232:	8cd6                	mv	s9,s5
   11234:	77a6                	ld	a5,104(sp)
   11236:	cf9d                	beqz	a5,11274 <_vfprintf_r+0x476>
   11238:	0994                	addi	a3,sp,208
   1123a:	00dcb023          	sd	a3,0(s9)
   1123e:	4689                	li	a3,2
   11240:	00dcb423          	sd	a3,8(s9)
   11244:	66d2                	ld	a3,272(sp)
   11246:	0cc1                	addi	s9,s9,16
   11248:	0689                	addi	a3,a3,2
   1124a:	ea36                	sd	a3,272(sp)
   1124c:	10812683          	lw	a3,264(sp)
   11250:	0016861b          	addiw	a2,a3,1
   11254:	10c12423          	sw	a2,264(sp)
   11258:	469d                	li	a3,7
   1125a:	00c6dd63          	ble	a2,a3,11274 <_vfprintf_r+0x476>
   1125e:	0210                	addi	a2,sp,256
   11260:	85ca                	mv	a1,s2
   11262:	854e                	mv	a0,s3
   11264:	f4ba                	sd	a4,104(sp)
   11266:	611050ef          	jal	ra,17076 <__sprint_r>
   1126a:	c119                	beqz	a0,11270 <_vfprintf_r+0x472>
   1126c:	0ee0106f          	j	1235a <_vfprintf_r+0x155c>
   11270:	7726                	ld	a4,104(sp)
   11272:	8cd6                	mv	s9,s5
   11274:	77c6                	ld	a5,112(sp)
   11276:	08000693          	li	a3,128
   1127a:	04d79e63          	bne	a5,a3,112d6 <_vfprintf_r+0x4d8>
   1127e:	7782                	ld	a5,32(sp)
   11280:	76e2                	ld	a3,56(sp)
   11282:	40d786bb          	subw	a3,a5,a3
   11286:	04d05863          	blez	a3,112d6 <_vfprintf_r+0x4d8>
   1128a:	6869                	lui	a6,0x1a
   1128c:	48c1                	li	a7,16
   1128e:	1f080813          	addi	a6,a6,496 # 1a1f0 <zeroes.4441>
   11292:	4e9d                	li	t4,7
   11294:	10812583          	lw	a1,264(sp)
   11298:	010cb023          	sd	a6,0(s9)
   1129c:	6652                	ld	a2,272(sp)
   1129e:	0015851b          	addiw	a0,a1,1
   112a2:	85aa                	mv	a1,a0
   112a4:	010c8f13          	addi	t5,s9,16
   112a8:	10d8cde3          	blt	a7,a3,11bc2 <_vfprintf_r+0xdc4>
   112ac:	00dcb423          	sd	a3,8(s9)
   112b0:	96b2                	add	a3,a3,a2
   112b2:	ea36                	sd	a3,272(sp)
   112b4:	10a12423          	sw	a0,264(sp)
   112b8:	469d                	li	a3,7
   112ba:	8cfa                	mv	s9,t5
   112bc:	00a6dd63          	ble	a0,a3,112d6 <_vfprintf_r+0x4d8>
   112c0:	0210                	addi	a2,sp,256
   112c2:	85ca                	mv	a1,s2
   112c4:	854e                	mv	a0,s3
   112c6:	f4ba                	sd	a4,104(sp)
   112c8:	5af050ef          	jal	ra,17076 <__sprint_r>
   112cc:	c119                	beqz	a0,112d2 <_vfprintf_r+0x4d4>
   112ce:	08c0106f          	j	1235a <_vfprintf_r+0x155c>
   112d2:	7726                	ld	a4,104(sp)
   112d4:	8cd6                	mv	s9,s5
   112d6:	41b7073b          	subw	a4,a4,s11
   112da:	04e05663          	blez	a4,11326 <_vfprintf_r+0x528>
   112de:	6869                	lui	a6,0x1a
   112e0:	48c1                	li	a7,16
   112e2:	1f080813          	addi	a6,a6,496 # 1a1f0 <zeroes.4441>
   112e6:	4e9d                	li	t4,7
   112e8:	10812603          	lw	a2,264(sp)
   112ec:	010cb023          	sd	a6,0(s9)
   112f0:	66d2                	ld	a3,272(sp)
   112f2:	0016059b          	addiw	a1,a2,1
   112f6:	862e                	mv	a2,a1
   112f8:	010c8513          	addi	a0,s9,16
   112fc:	10e8c1e3          	blt	a7,a4,11bfe <_vfprintf_r+0xe00>
   11300:	00ecb423          	sd	a4,8(s9)
   11304:	9736                	add	a4,a4,a3
   11306:	ea3a                	sd	a4,272(sp)
   11308:	10b12423          	sw	a1,264(sp)
   1130c:	471d                	li	a4,7
   1130e:	8caa                	mv	s9,a0
   11310:	00b75b63          	ble	a1,a4,11326 <_vfprintf_r+0x528>
   11314:	0210                	addi	a2,sp,256
   11316:	85ca                	mv	a1,s2
   11318:	854e                	mv	a0,s3
   1131a:	55d050ef          	jal	ra,17076 <__sprint_r>
   1131e:	c119                	beqz	a0,11324 <_vfprintf_r+0x526>
   11320:	03a0106f          	j	1235a <_vfprintf_r+0x155c>
   11324:	8cd6                	mv	s9,s5
   11326:	10047693          	andi	a3,s0,256
   1132a:	6752                	ld	a4,272(sp)
   1132c:	100695e3          	bnez	a3,11c36 <_vfprintf_r+0xe38>
   11330:	10812783          	lw	a5,264(sp)
   11334:	00ed8e33          	add	t3,s11,a4
   11338:	009cb023          	sd	s1,0(s9)
   1133c:	0017871b          	addiw	a4,a5,1
   11340:	01bcb423          	sd	s11,8(s9)
   11344:	ea72                	sd	t3,272(sp)
   11346:	10e12423          	sw	a4,264(sp)
   1134a:	479d                	li	a5,7
   1134c:	0cc1                	addi	s9,s9,16
   1134e:	1ce7d0e3          	ble	a4,a5,11d0e <_vfprintf_r+0xf10>
   11352:	0210                	addi	a2,sp,256
   11354:	85ca                	mv	a1,s2
   11356:	854e                	mv	a0,s3
   11358:	51f050ef          	jal	ra,17076 <__sprint_r>
   1135c:	c119                	beqz	a0,11362 <_vfprintf_r+0x564>
   1135e:	7fd0006f          	j	1235a <_vfprintf_r+0x155c>
   11362:	8cd6                	mv	s9,s5
   11364:	1ab0006f          	j	11d0e <_vfprintf_r+0xf10>
   11368:	01046413          	ori	s0,s0,16
   1136c:	2401                	sext.w	s0,s0
   1136e:	008b8793          	addi	a5,s7,8
   11372:	f83e                	sd	a5,48(sp)
   11374:	02047793          	andi	a5,s0,32
   11378:	cb85                	beqz	a5,113a8 <_vfprintf_r+0x5aa>
   1137a:	000bbb83          	ld	s7,0(s7)
   1137e:	000bd863          	bgez	s7,1138e <_vfprintf_r+0x590>
   11382:	02d00793          	li	a5,45
   11386:	41700bb3          	neg	s7,s7
   1138a:	0cf107a3          	sb	a5,207(sp)
   1138e:	57fd                	li	a5,-1
   11390:	6efd9563          	bne	s11,a5,11a7a <_vfprintf_r+0xc7c>
   11394:	47a5                	li	a5,9
   11396:	7577e063          	bltu	a5,s7,11ad6 <_vfprintf_r+0xcd8>
   1139a:	030b8b9b          	addiw	s7,s7,48
   1139e:	17710da3          	sb	s7,379(sp)
   113a2:	17b10493          	addi	s1,sp,379
   113a6:	af19                	j	11abc <_vfprintf_r+0xcbe>
   113a8:	01047793          	andi	a5,s0,16
   113ac:	f7f9                	bnez	a5,1137a <_vfprintf_r+0x57c>
   113ae:	04047793          	andi	a5,s0,64
   113b2:	c781                	beqz	a5,113ba <_vfprintf_r+0x5bc>
   113b4:	000b9b83          	lh	s7,0(s7)
   113b8:	b7d9                	j	1137e <_vfprintf_r+0x580>
   113ba:	20047793          	andi	a5,s0,512
   113be:	c781                	beqz	a5,113c6 <_vfprintf_r+0x5c8>
   113c0:	000b8b83          	lb	s7,0(s7)
   113c4:	bf6d                	j	1137e <_vfprintf_r+0x580>
   113c6:	000bab83          	lw	s7,0(s7)
   113ca:	bf55                	j	1137e <_vfprintf_r+0x580>
   113cc:	00847793          	andi	a5,s0,8
   113d0:	cfb9                	beqz	a5,1142e <_vfprintf_r+0x630>
   113d2:	0bbd                	addi	s7,s7,15
   113d4:	ff0bfb93          	andi	s7,s7,-16
   113d8:	010b8793          	addi	a5,s7,16
   113dc:	f83e                	sd	a5,48(sp)
   113de:	000bb783          	ld	a5,0(s7)
   113e2:	f9be                	sd	a5,240(sp)
   113e4:	008bb783          	ld	a5,8(s7)
   113e8:	fdbe                	sd	a5,248(sp)
   113ea:	1988                	addi	a0,sp,240
   113ec:	2e6030ef          	jal	ra,146d2 <_ldcheck>
   113f0:	cdaa                	sw	a0,216(sp)
   113f2:	4789                	li	a5,2
   113f4:	04f51c63          	bne	a0,a5,1144c <_vfprintf_r+0x64e>
   113f8:	754e                	ld	a0,240(sp)
   113fa:	75ee                	ld	a1,248(sp)
   113fc:	4601                	li	a2,0
   113fe:	4681                	li	a3,0
   11400:	7b6070ef          	jal	ra,18bb6 <__letf2>
   11404:	00055663          	bgez	a0,11410 <_vfprintf_r+0x612>
   11408:	02d00793          	li	a5,45
   1140c:	0cf107a3          	sb	a5,207(sp)
   11410:	04700793          	li	a5,71
   11414:	0367c763          	blt	a5,s6,11442 <_vfprintf_r+0x644>
   11418:	0001a4b7          	lui	s1,0x1a
   1141c:	23048493          	addi	s1,s1,560 # 1a230 <zeroes.4441+0x40>
   11420:	f7f47413          	andi	s0,s0,-129
   11424:	2401                	sext.w	s0,s0
   11426:	4b81                	li	s7,0
   11428:	4d8d                	li	s11,3
   1142a:	4701                	li	a4,0
   1142c:	ad71                	j	11ac8 <_vfprintf_r+0xcca>
   1142e:	000bb507          	fld	fa0,0(s7)
   11432:	008b8793          	addi	a5,s7,8
   11436:	f83e                	sd	a5,48(sp)
   11438:	7da080ef          	jal	ra,19c12 <__extenddftf2>
   1143c:	f9aa                	sd	a0,240(sp)
   1143e:	fdae                	sd	a1,248(sp)
   11440:	b76d                	j	113ea <_vfprintf_r+0x5ec>
   11442:	0001a4b7          	lui	s1,0x1a
   11446:	23848493          	addi	s1,s1,568 # 1a238 <zeroes.4441+0x48>
   1144a:	bfd9                	j	11420 <_vfprintf_r+0x622>
   1144c:	4785                	li	a5,1
   1144e:	02f51763          	bne	a0,a5,1147c <_vfprintf_r+0x67e>
   11452:	77ee                	ld	a5,248(sp)
   11454:	0007d663          	bgez	a5,11460 <_vfprintf_r+0x662>
   11458:	02d00793          	li	a5,45
   1145c:	0cf107a3          	sb	a5,207(sp)
   11460:	04700793          	li	a5,71
   11464:	0167c763          	blt	a5,s6,11472 <_vfprintf_r+0x674>
   11468:	0001a4b7          	lui	s1,0x1a
   1146c:	24048493          	addi	s1,s1,576 # 1a240 <zeroes.4441+0x50>
   11470:	bf45                	j	11420 <_vfprintf_r+0x622>
   11472:	0001a4b7          	lui	s1,0x1a
   11476:	24848493          	addi	s1,s1,584 # 1a248 <zeroes.4441+0x58>
   1147a:	b75d                	j	11420 <_vfprintf_r+0x622>
   1147c:	fdfb7c13          	andi	s8,s6,-33
   11480:	04100793          	li	a5,65
   11484:	04fc1c63          	bne	s8,a5,114dc <_vfprintf_r+0x6de>
   11488:	03000793          	li	a5,48
   1148c:	0cf10823          	sb	a5,208(sp)
   11490:	06100713          	li	a4,97
   11494:	05800793          	li	a5,88
   11498:	00eb1463          	bne	s6,a4,114a0 <_vfprintf_r+0x6a2>
   1149c:	07800793          	li	a5,120
   114a0:	0cf108a3          	sb	a5,209(sp)
   114a4:	00246413          	ori	s0,s0,2
   114a8:	06300793          	li	a5,99
   114ac:	2401                	sext.w	s0,s0
   114ae:	15b7db63          	ble	s11,a5,11604 <_vfprintf_r+0x806>
   114b2:	001d859b          	addiw	a1,s11,1
   114b6:	854e                	mv	a0,s3
   114b8:	9ecff0ef          	jal	ra,106a4 <_malloc_r>
   114bc:	84aa                	mv	s1,a0
   114be:	14051663          	bnez	a0,1160a <_vfprintf_r+0x80c>
   114c2:	01095783          	lhu	a5,16(s2)
   114c6:	0407e793          	ori	a5,a5,64
   114ca:	00f91823          	sh	a5,16(s2)
   114ce:	01095783          	lhu	a5,16(s2)
   114d2:	0407f793          	andi	a5,a5,64
   114d6:	9c078fe3          	beqz	a5,10eb4 <_vfprintf_r+0xb6>
   114da:	b405                	j	10efa <_vfprintf_r+0xfc>
   114dc:	57fd                	li	a5,-1
   114de:	12fd8863          	beq	s11,a5,1160e <_vfprintf_r+0x810>
   114e2:	04700793          	li	a5,71
   114e6:	4b81                	li	s7,0
   114e8:	00fc1463          	bne	s8,a5,114f0 <_vfprintf_r+0x6f2>
   114ec:	120d8463          	beqz	s11,11614 <_vfprintf_r+0x816>
   114f0:	10046793          	ori	a5,s0,256
   114f4:	7a6e                	ld	s4,248(sp)
   114f6:	2781                	sext.w	a5,a5
   114f8:	fc3e                	sd	a5,56(sp)
   114fa:	fc82                	sd	zero,120(sp)
   114fc:	7ece                	ld	t4,240(sp)
   114fe:	000a5963          	bgez	s4,11510 <_vfprintf_r+0x712>
   11502:	57fd                	li	a5,-1
   11504:	17fe                	slli	a5,a5,0x3f
   11506:	00fa4a33          	xor	s4,s4,a5
   1150a:	02d00793          	li	a5,45
   1150e:	fcbe                	sd	a5,120(sp)
   11510:	04100793          	li	a5,65
   11514:	22fc1263          	bne	s8,a5,11738 <_vfprintf_r+0x93a>
   11518:	8576                	mv	a0,t4
   1151a:	85d2                	mv	a1,s4
   1151c:	7ea080ef          	jal	ra,19d06 <__trunctfdf2>
   11520:	09a8                	addi	a0,sp,216
   11522:	2f4040ef          	jal	ra,15816 <frexp>
   11526:	6ec080ef          	jal	ra,19c12 <__extenddftf2>
   1152a:	768a                	ld	a3,160(sp)
   1152c:	4601                	li	a2,0
   1152e:	74c070ef          	jal	ra,18c7a <__multf3>
   11532:	4601                	li	a2,0
   11534:	4681                	li	a3,0
   11536:	e12a                	sd	a0,128(sp)
   11538:	e52e                	sd	a1,136(sp)
   1153a:	514070ef          	jal	ra,18a4e <__eqtf2>
   1153e:	e119                	bnez	a0,11544 <_vfprintf_r+0x746>
   11540:	4785                	li	a5,1
   11542:	cdbe                	sw	a5,216(sp)
   11544:	06100793          	li	a5,97
   11548:	0cfb1963          	bne	s6,a5,1161a <_vfprintf_r+0x81c>
   1154c:	0001a7b7          	lui	a5,0x1a
   11550:	25078793          	addi	a5,a5,592 # 1a250 <zeroes.4441+0x60>
   11554:	e43e                	sd	a5,8(sp)
   11556:	fffd871b          	addiw	a4,s11,-1
   1155a:	8a26                	mv	s4,s1
   1155c:	76aa                	ld	a3,168(sp)
   1155e:	650a                	ld	a0,128(sp)
   11560:	65aa                	ld	a1,136(sp)
   11562:	4601                	li	a2,0
   11564:	f93a                	sd	a4,176(sp)
   11566:	714070ef          	jal	ra,18c7a <__multf3>
   1156a:	8d2a                	mv	s10,a0
   1156c:	f4ae                	sd	a1,104(sp)
   1156e:	580080ef          	jal	ra,19aee <__fixtfsi>
   11572:	0005079b          	sext.w	a5,a0
   11576:	f8be                	sd	a5,112(sp)
   11578:	608080ef          	jal	ra,19b80 <__floatsitf>
   1157c:	77a6                	ld	a5,104(sp)
   1157e:	86ae                	mv	a3,a1
   11580:	862a                	mv	a2,a0
   11582:	85be                	mv	a1,a5
   11584:	856a                	mv	a0,s10
   11586:	54b070ef          	jal	ra,192d0 <__subtf3>
   1158a:	67a2                	ld	a5,8(sp)
   1158c:	7746                	ld	a4,112(sp)
   1158e:	0a05                	addi	s4,s4,1
   11590:	e12a                	sd	a0,128(sp)
   11592:	00e786b3          	add	a3,a5,a4
   11596:	774a                	ld	a4,176(sp)
   11598:	0006c683          	lbu	a3,0(a3) # 2000 <_start-0xe0b0>
   1159c:	e52e                	sd	a1,136(sp)
   1159e:	0007079b          	sext.w	a5,a4
   115a2:	f4be                	sd	a5,104(sp)
   115a4:	feda0fa3          	sb	a3,-1(s4)
   115a8:	57fd                	li	a5,-1
   115aa:	88aa                	mv	a7,a0
   115ac:	8d2e                	mv	s10,a1
   115ae:	06f70b63          	beq	a4,a5,11624 <_vfprintf_r+0x826>
   115b2:	377d                	addiw	a4,a4,-1
   115b4:	4601                	li	a2,0
   115b6:	4681                	li	a3,0
   115b8:	f93a                	sd	a4,176(sp)
   115ba:	fd2a                	sd	a0,184(sp)
   115bc:	492070ef          	jal	ra,18a4e <__eqtf2>
   115c0:	774a                	ld	a4,176(sp)
   115c2:	78ea                	ld	a7,184(sp)
   115c4:	fd41                	bnez	a0,1155c <_vfprintf_r+0x75e>
   115c6:	66ca                	ld	a3,144(sp)
   115c8:	4601                	li	a2,0
   115ca:	8546                	mv	a0,a7
   115cc:	85ea                	mv	a1,s10
   115ce:	e146                	sd	a7,128(sp)
   115d0:	522070ef          	jal	ra,18af2 <__getf2>
   115d4:	04a04b63          	bgtz	a0,1162a <_vfprintf_r+0x82c>
   115d8:	688a                	ld	a7,128(sp)
   115da:	66ca                	ld	a3,144(sp)
   115dc:	4601                	li	a2,0
   115de:	8546                	mv	a0,a7
   115e0:	85ea                	mv	a1,s10
   115e2:	46c070ef          	jal	ra,18a4e <__eqtf2>
   115e6:	e509                	bnez	a0,115f0 <_vfprintf_r+0x7f2>
   115e8:	77c6                	ld	a5,112(sp)
   115ea:	0017f713          	andi	a4,a5,1
   115ee:	ef15                	bnez	a4,1162a <_vfprintf_r+0x82c>
   115f0:	5726                	lw	a4,104(sp)
   115f2:	03000693          	li	a3,48
   115f6:	06074163          	bltz	a4,11658 <_vfprintf_r+0x85a>
   115fa:	0a05                	addi	s4,s4,1
   115fc:	feda0fa3          	sb	a3,-1(s4)
   11600:	377d                	addiw	a4,a4,-1
   11602:	bfd5                	j	115f6 <_vfprintf_r+0x7f8>
   11604:	4b81                	li	s7,0
   11606:	0a24                	addi	s1,sp,280
   11608:	b5e5                	j	114f0 <_vfprintf_r+0x6f2>
   1160a:	8baa                	mv	s7,a0
   1160c:	b5d5                	j	114f0 <_vfprintf_r+0x6f2>
   1160e:	4b81                	li	s7,0
   11610:	4d99                	li	s11,6
   11612:	bdf9                	j	114f0 <_vfprintf_r+0x6f2>
   11614:	8bee                	mv	s7,s11
   11616:	4d85                	li	s11,1
   11618:	bde1                	j	114f0 <_vfprintf_r+0x6f2>
   1161a:	0001a7b7          	lui	a5,0x1a
   1161e:	26878793          	addi	a5,a5,616 # 1a268 <zeroes.4441+0x78>
   11622:	bf0d                	j	11554 <_vfprintf_r+0x756>
   11624:	57fd                	li	a5,-1
   11626:	f4be                	sd	a5,104(sp)
   11628:	bf79                	j	115c6 <_vfprintf_r+0x7c8>
   1162a:	67a2                	ld	a5,8(sp)
   1162c:	f5d2                	sd	s4,232(sp)
   1162e:	03000593          	li	a1,48
   11632:	00f7c603          	lbu	a2,15(a5)
   11636:	76ae                	ld	a3,232(sp)
   11638:	fff68713          	addi	a4,a3,-1
   1163c:	f5ba                	sd	a4,232(sp)
   1163e:	fff6c703          	lbu	a4,-1(a3)
   11642:	0ec70463          	beq	a4,a2,1172a <_vfprintf_r+0x92c>
   11646:	03900613          	li	a2,57
   1164a:	0ec71363          	bne	a4,a2,11730 <_vfprintf_r+0x932>
   1164e:	67a2                	ld	a5,8(sp)
   11650:	00a7c703          	lbu	a4,10(a5)
   11654:	fee68fa3          	sb	a4,-1(a3)
   11658:	04700713          	li	a4,71
   1165c:	409a0a3b          	subw	s4,s4,s1
   11660:	4d6e                	lw	s10,216(sp)
   11662:	18ec1363          	bne	s8,a4,117e8 <_vfprintf_r+0x9ea>
   11666:	5775                	li	a4,-3
   11668:	00ed4463          	blt	s10,a4,11670 <_vfprintf_r+0x872>
   1166c:	1fadd363          	ble	s10,s11,11852 <_vfprintf_r+0xa54>
   11670:	3b79                	addiw	s6,s6,-2
   11672:	fffd069b          	addiw	a3,s10,-1
   11676:	cdb6                	sw	a3,216(sp)
   11678:	fdfb7613          	andi	a2,s6,-33
   1167c:	04100513          	li	a0,65
   11680:	0ffb7713          	andi	a4,s6,255
   11684:	4581                	li	a1,0
   11686:	00a61663          	bne	a2,a0,11692 <_vfprintf_r+0x894>
   1168a:	273d                	addiw	a4,a4,15
   1168c:	0ff77713          	andi	a4,a4,255
   11690:	4585                	li	a1,1
   11692:	0ee10023          	sb	a4,224(sp)
   11696:	02b00793          	li	a5,43
   1169a:	0006d763          	bgez	a3,116a8 <_vfprintf_r+0x8aa>
   1169e:	4685                	li	a3,1
   116a0:	41a686bb          	subw	a3,a3,s10
   116a4:	02d00793          	li	a5,45
   116a8:	0ef100a3          	sb	a5,225(sp)
   116ac:	47a5                	li	a5,9
   116ae:	16d7d963          	ble	a3,a5,11820 <_vfprintf_r+0xa22>
   116b2:	0ef10713          	addi	a4,sp,239
   116b6:	853a                	mv	a0,a4
   116b8:	45a9                	li	a1,10
   116ba:	4825                	li	a6,9
   116bc:	02b6e7bb          	remw	a5,a3,a1
   116c0:	fff70613          	addi	a2,a4,-1
   116c4:	02b6c6bb          	divw	a3,a3,a1
   116c8:	0307879b          	addiw	a5,a5,48
   116cc:	fef70fa3          	sb	a5,-1(a4)
   116d0:	12d84f63          	blt	a6,a3,1180e <_vfprintf_r+0xa10>
   116d4:	0306879b          	addiw	a5,a3,48
   116d8:	fef60fa3          	sb	a5,-1(a2)
   116dc:	1779                	addi	a4,a4,-2
   116de:	0e210613          	addi	a2,sp,226
   116e2:	12a76863          	bltu	a4,a0,11812 <_vfprintf_r+0xa14>
   116e6:	119c                	addi	a5,sp,224
   116e8:	40f607bb          	subw	a5,a2,a5
   116ec:	ecbe                	sd	a5,88(sp)
   116ee:	01478dbb          	addw	s11,a5,s4
   116f2:	4705                	li	a4,1
   116f4:	87ee                	mv	a5,s11
   116f6:	01474563          	blt	a4,s4,11700 <_vfprintf_r+0x902>
   116fa:	00147713          	andi	a4,s0,1
   116fe:	c701                	beqz	a4,11706 <_vfprintf_r+0x908>
   11700:	6762                	ld	a4,24(sp)
   11702:	00e78dbb          	addw	s11,a5,a4
   11706:	bff47413          	andi	s0,s0,-1025
   1170a:	2401                	sext.w	s0,s0
   1170c:	10046793          	ori	a5,s0,256
   11710:	fc3e                	sd	a5,56(sp)
   11712:	e402                	sd	zero,8(sp)
   11714:	4c01                	li	s8,0
   11716:	4d01                	li	s10,0
   11718:	77e6                	ld	a5,120(sp)
   1171a:	c789                	beqz	a5,11724 <_vfprintf_r+0x926>
   1171c:	02d00713          	li	a4,45
   11720:	0ce107a3          	sb	a4,207(sp)
   11724:	7462                	ld	s0,56(sp)
   11726:	4701                	li	a4,0
   11728:	bc35                	j	11164 <_vfprintf_r+0x366>
   1172a:	feb68fa3          	sb	a1,-1(a3)
   1172e:	b721                	j	11636 <_vfprintf_r+0x838>
   11730:	2705                	addiw	a4,a4,1
   11732:	0ff77713          	andi	a4,a4,255
   11736:	bf39                	j	11654 <_vfprintf_r+0x856>
   11738:	04600793          	li	a5,70
   1173c:	00fc0b63          	beq	s8,a5,11752 <_vfprintf_r+0x954>
   11740:	04500793          	li	a5,69
   11744:	8d6e                	mv	s10,s11
   11746:	00fc1463          	bne	s8,a5,1174e <_vfprintf_r+0x950>
   1174a:	001d8d1b          	addiw	s10,s11,1
   1174e:	4689                	li	a3,2
   11750:	a019                	j	11756 <_vfprintf_r+0x958>
   11752:	8d6e                	mv	s10,s11
   11754:	468d                	li	a3,3
   11756:	09bc                	addi	a5,sp,216
   11758:	85f6                	mv	a1,t4
   1175a:	0e810893          	addi	a7,sp,232
   1175e:	0dc10813          	addi	a6,sp,220
   11762:	876a                	mv	a4,s10
   11764:	8652                	mv	a2,s4
   11766:	854e                	mv	a0,s3
   11768:	e476                	sd	t4,8(sp)
   1176a:	644020ef          	jal	ra,13dae <_ldtoa_r>
   1176e:	04700793          	li	a5,71
   11772:	84aa                	mv	s1,a0
   11774:	6ea2                	ld	t4,8(sp)
   11776:	00fc1563          	bne	s8,a5,11780 <_vfprintf_r+0x982>
   1177a:	00147793          	andi	a5,s0,1
   1177e:	cbb1                	beqz	a5,117d2 <_vfprintf_r+0x9d4>
   11780:	04600713          	li	a4,70
   11784:	01a487b3          	add	a5,s1,s10
   11788:	02ec1963          	bne	s8,a4,117ba <_vfprintf_r+0x9bc>
   1178c:	0004c683          	lbu	a3,0(s1)
   11790:	03000713          	li	a4,48
   11794:	02e69163          	bne	a3,a4,117b6 <_vfprintf_r+0x9b8>
   11798:	8576                	mv	a0,t4
   1179a:	4601                	li	a2,0
   1179c:	4681                	li	a3,0
   1179e:	85d2                	mv	a1,s4
   117a0:	f4be                	sd	a5,104(sp)
   117a2:	e476                	sd	t4,8(sp)
   117a4:	2aa070ef          	jal	ra,18a4e <__eqtf2>
   117a8:	6ea2                	ld	t4,8(sp)
   117aa:	77a6                	ld	a5,104(sp)
   117ac:	c509                	beqz	a0,117b6 <_vfprintf_r+0x9b8>
   117ae:	4705                	li	a4,1
   117b0:	41a70d3b          	subw	s10,a4,s10
   117b4:	cdea                	sw	s10,216(sp)
   117b6:	476e                	lw	a4,216(sp)
   117b8:	97ba                	add	a5,a5,a4
   117ba:	4681                	li	a3,0
   117bc:	4601                	li	a2,0
   117be:	8576                	mv	a0,t4
   117c0:	85d2                	mv	a1,s4
   117c2:	e43e                	sd	a5,8(sp)
   117c4:	28a070ef          	jal	ra,18a4e <__eqtf2>
   117c8:	67a2                	ld	a5,8(sp)
   117ca:	03000693          	li	a3,48
   117ce:	e909                	bnez	a0,117e0 <_vfprintf_r+0x9e2>
   117d0:	f5be                	sd	a5,232(sp)
   117d2:	7a2e                	ld	s4,232(sp)
   117d4:	b551                	j	11658 <_vfprintf_r+0x85a>
   117d6:	00170613          	addi	a2,a4,1
   117da:	f5b2                	sd	a2,232(sp)
   117dc:	00d70023          	sb	a3,0(a4)
   117e0:	772e                	ld	a4,232(sp)
   117e2:	fef76ae3          	bltu	a4,a5,117d6 <_vfprintf_r+0x9d8>
   117e6:	b7f5                	j	117d2 <_vfprintf_r+0x9d4>
   117e8:	04600713          	li	a4,70
   117ec:	e8ec13e3          	bne	s8,a4,11672 <_vfprintf_r+0x874>
   117f0:	05a05863          	blez	s10,11840 <_vfprintf_r+0xa42>
   117f4:	000d9563          	bnez	s11,117fe <_vfprintf_r+0xa00>
   117f8:	00147713          	andi	a4,s0,1
   117fc:	cf59                	beqz	a4,1189a <_vfprintf_r+0xa9c>
   117fe:	67e2                	ld	a5,24(sp)
   11800:	01a7873b          	addw	a4,a5,s10
   11804:	01b70dbb          	addw	s11,a4,s11
   11808:	06600b13          	li	s6,102
   1180c:	a895                	j	11880 <_vfprintf_r+0xa82>
   1180e:	8732                	mv	a4,a2
   11810:	b575                	j	116bc <_vfprintf_r+0x8be>
   11812:	0705                	addi	a4,a4,1
   11814:	fff74783          	lbu	a5,-1(a4)
   11818:	0605                	addi	a2,a2,1
   1181a:	fef60fa3          	sb	a5,-1(a2)
   1181e:	b5d1                	j	116e2 <_vfprintf_r+0x8e4>
   11820:	0e210713          	addi	a4,sp,226
   11824:	e599                	bnez	a1,11832 <_vfprintf_r+0xa34>
   11826:	03000793          	li	a5,48
   1182a:	0ef10123          	sb	a5,226(sp)
   1182e:	0e310713          	addi	a4,sp,227
   11832:	0306879b          	addiw	a5,a3,48
   11836:	00170613          	addi	a2,a4,1
   1183a:	00f70023          	sb	a5,0(a4)
   1183e:	b565                	j	116e6 <_vfprintf_r+0x8e8>
   11840:	000d9563          	bnez	s11,1184a <_vfprintf_r+0xa4c>
   11844:	00147713          	andi	a4,s0,1
   11848:	cb39                	beqz	a4,1189e <_vfprintf_r+0xaa0>
   1184a:	67e2                	ld	a5,24(sp)
   1184c:	0017871b          	addiw	a4,a5,1
   11850:	bf55                	j	11804 <_vfprintf_r+0xa06>
   11852:	014d4c63          	blt	s10,s4,1186a <_vfprintf_r+0xa6c>
   11856:	00147713          	andi	a4,s0,1
   1185a:	8dea                	mv	s11,s10
   1185c:	c701                	beqz	a4,11864 <_vfprintf_r+0xa66>
   1185e:	67e2                	ld	a5,24(sp)
   11860:	01a78dbb          	addw	s11,a5,s10
   11864:	06700b13          	li	s6,103
   11868:	a821                	j	11880 <_vfprintf_r+0xa82>
   1186a:	67e2                	ld	a5,24(sp)
   1186c:	06700b13          	li	s6,103
   11870:	01478dbb          	addw	s11,a5,s4
   11874:	01a04663          	bgtz	s10,11880 <_vfprintf_r+0xa82>
   11878:	41ad8e3b          	subw	t3,s11,s10
   1187c:	001e0d9b          	addiw	s11,t3,1
   11880:	40047413          	andi	s0,s0,1024
   11884:	00040c1b          	sext.w	s8,s0
   11888:	e402                	sd	zero,8(sp)
   1188a:	e80c07e3          	beqz	s8,11718 <_vfprintf_r+0x91a>
   1188e:	4c01                	li	s8,0
   11890:	e9a054e3          	blez	s10,11718 <_vfprintf_r+0x91a>
   11894:	0ff00693          	li	a3,255
   11898:	a01d                	j	118be <_vfprintf_r+0xac0>
   1189a:	8dea                	mv	s11,s10
   1189c:	b7b5                	j	11808 <_vfprintf_r+0xa0a>
   1189e:	06600b13          	li	s6,102
   118a2:	4d85                	li	s11,1
   118a4:	bff1                	j	11880 <_vfprintf_r+0xa82>
   118a6:	2701                	sext.w	a4,a4
   118a8:	03a75063          	ble	s10,a4,118c8 <_vfprintf_r+0xaca>
   118ac:	6782                	ld	a5,0(sp)
   118ae:	40ed0d3b          	subw	s10,s10,a4
   118b2:	0017c703          	lbu	a4,1(a5)
   118b6:	c315                	beqz	a4,118da <_vfprintf_r+0xadc>
   118b8:	0785                	addi	a5,a5,1
   118ba:	2c05                	addiw	s8,s8,1
   118bc:	e03e                	sd	a5,0(sp)
   118be:	6782                	ld	a5,0(sp)
   118c0:	0007c703          	lbu	a4,0(a5)
   118c4:	fed711e3          	bne	a4,a3,118a6 <_vfprintf_r+0xaa8>
   118c8:	67a2                	ld	a5,8(sp)
   118ca:	00fc073b          	addw	a4,s8,a5
   118ce:	6786                	ld	a5,64(sp)
   118d0:	02f7073b          	mulw	a4,a4,a5
   118d4:	01b70dbb          	addw	s11,a4,s11
   118d8:	b581                	j	11718 <_vfprintf_r+0x91a>
   118da:	67a2                	ld	a5,8(sp)
   118dc:	2785                	addiw	a5,a5,1
   118de:	e43e                	sd	a5,8(sp)
   118e0:	bff9                	j	118be <_vfprintf_r+0xac0>
   118e2:	008b8713          	addi	a4,s7,8
   118e6:	f83a                	sd	a4,48(sp)
   118e8:	02047713          	andi	a4,s0,32
   118ec:	000bb783          	ld	a5,0(s7)
   118f0:	c719                	beqz	a4,118fe <_vfprintf_r+0xb00>
   118f2:	7722                	ld	a4,40(sp)
   118f4:	e398                	sd	a4,0(a5)
   118f6:	7bc2                	ld	s7,48(sp)
   118f8:	64c2                	ld	s1,16(sp)
   118fa:	e48ff06f          	j	10f42 <_vfprintf_r+0x144>
   118fe:	01047713          	andi	a4,s0,16
   11902:	fb65                	bnez	a4,118f2 <_vfprintf_r+0xaf4>
   11904:	04047713          	andi	a4,s0,64
   11908:	c709                	beqz	a4,11912 <_vfprintf_r+0xb14>
   1190a:	7722                	ld	a4,40(sp)
   1190c:	00e79023          	sh	a4,0(a5)
   11910:	b7dd                	j	118f6 <_vfprintf_r+0xaf8>
   11912:	20047413          	andi	s0,s0,512
   11916:	7722                	ld	a4,40(sp)
   11918:	c401                	beqz	s0,11920 <_vfprintf_r+0xb22>
   1191a:	00e78023          	sb	a4,0(a5)
   1191e:	bfe1                	j	118f6 <_vfprintf_r+0xaf8>
   11920:	c398                	sw	a4,0(a5)
   11922:	bfd1                	j	118f6 <_vfprintf_r+0xaf8>
   11924:	01046413          	ori	s0,s0,16
   11928:	2401                	sext.w	s0,s0
   1192a:	008b8793          	addi	a5,s7,8
   1192e:	f83e                	sd	a5,48(sp)
   11930:	02047793          	andi	a5,s0,32
   11934:	cb85                	beqz	a5,11964 <_vfprintf_r+0xb66>
   11936:	000bbb83          	ld	s7,0(s7)
   1193a:	bff47413          	andi	s0,s0,-1025
   1193e:	2401                	sext.w	s0,s0
   11940:	4781                	li	a5,0
   11942:	0c0107a3          	sb	zero,207(sp)
   11946:	577d                	li	a4,-1
   11948:	12ed8c63          	beq	s11,a4,11a80 <_vfprintf_r+0xc82>
   1194c:	8722                	mv	a4,s0
   1194e:	f7f47413          	andi	s0,s0,-129
   11952:	2401                	sext.w	s0,s0
   11954:	120b9663          	bnez	s7,11a80 <_vfprintf_r+0xc82>
   11958:	200d8463          	beqz	s11,11b60 <_vfprintf_r+0xd62>
   1195c:	4705                	li	a4,1
   1195e:	12e79463          	bne	a5,a4,11a86 <_vfprintf_r+0xc88>
   11962:	bc25                	j	1139a <_vfprintf_r+0x59c>
   11964:	01047793          	andi	a5,s0,16
   11968:	f7f9                	bnez	a5,11936 <_vfprintf_r+0xb38>
   1196a:	04047793          	andi	a5,s0,64
   1196e:	000bab83          	lw	s7,0(s7)
   11972:	c789                	beqz	a5,1197c <_vfprintf_r+0xb7e>
   11974:	1bc2                	slli	s7,s7,0x30
   11976:	030bdb93          	srli	s7,s7,0x30
   1197a:	b7c1                	j	1193a <_vfprintf_r+0xb3c>
   1197c:	20047793          	andi	a5,s0,512
   11980:	c781                	beqz	a5,11988 <_vfprintf_r+0xb8a>
   11982:	0ffbfb93          	andi	s7,s7,255
   11986:	bf55                	j	1193a <_vfprintf_r+0xb3c>
   11988:	1b82                	slli	s7,s7,0x20
   1198a:	020bdb93          	srli	s7,s7,0x20
   1198e:	b775                	j	1193a <_vfprintf_r+0xb3c>
   11990:	008b8793          	addi	a5,s7,8
   11994:	f83e                	sd	a5,48(sp)
   11996:	77e1                	lui	a5,0xffff8
   11998:	8307c793          	xori	a5,a5,-2000
   1199c:	0cf11823          	sh	a5,208(sp)
   119a0:	0001a7b7          	lui	a5,0x1a
   119a4:	25078793          	addi	a5,a5,592 # 1a250 <zeroes.4441+0x60>
   119a8:	00246413          	ori	s0,s0,2
   119ac:	f0be                	sd	a5,96(sp)
   119ae:	000bbb83          	ld	s7,0(s7)
   119b2:	2401                	sext.w	s0,s0
   119b4:	4789                	li	a5,2
   119b6:	07800b13          	li	s6,120
   119ba:	b761                	j	11942 <_vfprintf_r+0xb44>
   119bc:	008b8793          	addi	a5,s7,8
   119c0:	f83e                	sd	a5,48(sp)
   119c2:	0c0107a3          	sb	zero,207(sp)
   119c6:	57fd                	li	a5,-1
   119c8:	000bb483          	ld	s1,0(s7)
   119cc:	00fd8e63          	beq	s11,a5,119e8 <_vfprintf_r+0xbea>
   119d0:	866e                	mv	a2,s11
   119d2:	4581                	li	a1,0
   119d4:	8526                	mv	a0,s1
   119d6:	73b020ef          	jal	ra,14910 <memchr>
   119da:	8baa                	mv	s7,a0
   119dc:	a40507e3          	beqz	a0,1142a <_vfprintf_r+0x62c>
   119e0:	40950dbb          	subw	s11,a0,s1
   119e4:	4b81                	li	s7,0
   119e6:	b491                	j	1142a <_vfprintf_r+0x62c>
   119e8:	8526                	mv	a0,s1
   119ea:	c02ff0ef          	jal	ra,10dec <strlen>
   119ee:	00050d9b          	sext.w	s11,a0
   119f2:	bfcd                	j	119e4 <_vfprintf_r+0xbe6>
   119f4:	01046413          	ori	s0,s0,16
   119f8:	2401                	sext.w	s0,s0
   119fa:	008b8793          	addi	a5,s7,8
   119fe:	f83e                	sd	a5,48(sp)
   11a00:	02047793          	andi	a5,s0,32
   11a04:	c789                	beqz	a5,11a0e <_vfprintf_r+0xc10>
   11a06:	000bbb83          	ld	s7,0(s7)
   11a0a:	4785                	li	a5,1
   11a0c:	bf1d                	j	11942 <_vfprintf_r+0xb44>
   11a0e:	01047793          	andi	a5,s0,16
   11a12:	fbf5                	bnez	a5,11a06 <_vfprintf_r+0xc08>
   11a14:	04047793          	andi	a5,s0,64
   11a18:	000bab83          	lw	s7,0(s7)
   11a1c:	c789                	beqz	a5,11a26 <_vfprintf_r+0xc28>
   11a1e:	1bc2                	slli	s7,s7,0x30
   11a20:	030bdb93          	srli	s7,s7,0x30
   11a24:	b7dd                	j	11a0a <_vfprintf_r+0xc0c>
   11a26:	20047793          	andi	a5,s0,512
   11a2a:	c781                	beqz	a5,11a32 <_vfprintf_r+0xc34>
   11a2c:	0ffbfb93          	andi	s7,s7,255
   11a30:	bfe9                	j	11a0a <_vfprintf_r+0xc0c>
   11a32:	1b82                	slli	s7,s7,0x20
   11a34:	020bdb93          	srli	s7,s7,0x20
   11a38:	bfc9                	j	11a0a <_vfprintf_r+0xc0c>
   11a3a:	0001a7b7          	lui	a5,0x1a
   11a3e:	25078793          	addi	a5,a5,592 # 1a250 <zeroes.4441+0x60>
   11a42:	da4ff06f          	j	10fe6 <_vfprintf_r+0x1e8>
   11a46:	01047793          	andi	a5,s0,16
   11a4a:	da079663          	bnez	a5,10ff6 <_vfprintf_r+0x1f8>
   11a4e:	04047793          	andi	a5,s0,64
   11a52:	000bab83          	lw	s7,0(s7)
   11a56:	c791                	beqz	a5,11a62 <_vfprintf_r+0xc64>
   11a58:	1bc2                	slli	s7,s7,0x30
   11a5a:	030bdb93          	srli	s7,s7,0x30
   11a5e:	d9cff06f          	j	10ffa <_vfprintf_r+0x1fc>
   11a62:	20047793          	andi	a5,s0,512
   11a66:	c789                	beqz	a5,11a70 <_vfprintf_r+0xc72>
   11a68:	0ffbfb93          	andi	s7,s7,255
   11a6c:	d8eff06f          	j	10ffa <_vfprintf_r+0x1fc>
   11a70:	1b82                	slli	s7,s7,0x20
   11a72:	020bdb93          	srli	s7,s7,0x20
   11a76:	d84ff06f          	j	10ffa <_vfprintf_r+0x1fc>
   11a7a:	8722                	mv	a4,s0
   11a7c:	4785                	li	a5,1
   11a7e:	bdc1                	j	1194e <_vfprintf_r+0xb50>
   11a80:	4705                	li	a4,1
   11a82:	90e789e3          	beq	a5,a4,11394 <_vfprintf_r+0x596>
   11a86:	4709                	li	a4,2
   11a88:	0ae78d63          	beq	a5,a4,11b42 <_vfprintf_r+0xd44>
   11a8c:	1afc                	addi	a5,sp,380
   11a8e:	007bf713          	andi	a4,s7,7
   11a92:	03070713          	addi	a4,a4,48
   11a96:	fee78fa3          	sb	a4,-1(a5)
   11a9a:	003bdb93          	srli	s7,s7,0x3
   11a9e:	fff78493          	addi	s1,a5,-1
   11aa2:	020b9863          	bnez	s7,11ad2 <_vfprintf_r+0xcd4>
   11aa6:	00147693          	andi	a3,s0,1
   11aaa:	ca89                	beqz	a3,11abc <_vfprintf_r+0xcbe>
   11aac:	03000693          	li	a3,48
   11ab0:	00d70663          	beq	a4,a3,11abc <_vfprintf_r+0xcbe>
   11ab4:	fed48fa3          	sb	a3,-1(s1)
   11ab8:	ffe78493          	addi	s1,a5,-2
   11abc:	17c10e13          	addi	t3,sp,380
   11ac0:	876e                	mv	a4,s11
   11ac2:	4b81                	li	s7,0
   11ac4:	409e0dbb          	subw	s11,t3,s1
   11ac8:	e402                	sd	zero,8(sp)
   11aca:	4c01                	li	s8,0
   11acc:	4d01                	li	s10,0
   11ace:	e96ff06f          	j	11164 <_vfprintf_r+0x366>
   11ad2:	87a6                	mv	a5,s1
   11ad4:	bf6d                	j	11a8e <_vfprintf_r+0xc90>
   11ad6:	40047c13          	andi	s8,s0,1024
   11ada:	4a01                	li	s4,0
   11adc:	1afc                	addi	a5,sp,380
   11ade:	4d29                	li	s10,10
   11ae0:	2c01                	sext.w	s8,s8
   11ae2:	0ff00693          	li	a3,255
   11ae6:	4825                	li	a6,9
   11ae8:	03abf733          	remu	a4,s7,s10
   11aec:	fff78493          	addi	s1,a5,-1
   11af0:	2a05                	addiw	s4,s4,1
   11af2:	0307071b          	addiw	a4,a4,48
   11af6:	fee78fa3          	sb	a4,-1(a5)
   11afa:	020c0e63          	beqz	s8,11b36 <_vfprintf_r+0xd38>
   11afe:	6782                	ld	a5,0(sp)
   11b00:	0007c783          	lbu	a5,0(a5)
   11b04:	02fa1963          	bne	s4,a5,11b36 <_vfprintf_r+0xd38>
   11b08:	02d78763          	beq	a5,a3,11b36 <_vfprintf_r+0xd38>
   11b0c:	03787563          	bleu	s7,a6,11b36 <_vfprintf_r+0xd38>
   11b10:	6786                	ld	a5,64(sp)
   11b12:	65c6                	ld	a1,80(sp)
   11b14:	fc42                	sd	a6,56(sp)
   11b16:	8c9d                	sub	s1,s1,a5
   11b18:	863e                	mv	a2,a5
   11b1a:	8526                	mv	a0,s1
   11b1c:	e436                	sd	a3,8(sp)
   11b1e:	7b7030ef          	jal	ra,15ad4 <strncpy>
   11b22:	6782                	ld	a5,0(sp)
   11b24:	4a01                	li	s4,0
   11b26:	66a2                	ld	a3,8(sp)
   11b28:	0017c783          	lbu	a5,1(a5)
   11b2c:	7862                	ld	a6,56(sp)
   11b2e:	c781                	beqz	a5,11b36 <_vfprintf_r+0xd38>
   11b30:	6782                	ld	a5,0(sp)
   11b32:	0785                	addi	a5,a5,1
   11b34:	e03e                	sd	a5,0(sp)
   11b36:	03abdbb3          	divu	s7,s7,s10
   11b3a:	f80b81e3          	beqz	s7,11abc <_vfprintf_r+0xcbe>
   11b3e:	87a6                	mv	a5,s1
   11b40:	b765                	j	11ae8 <_vfprintf_r+0xcea>
   11b42:	1ae4                	addi	s1,sp,380
   11b44:	7706                	ld	a4,96(sp)
   11b46:	00fbf793          	andi	a5,s7,15
   11b4a:	14fd                	addi	s1,s1,-1
   11b4c:	97ba                	add	a5,a5,a4
   11b4e:	0007c783          	lbu	a5,0(a5)
   11b52:	004bdb93          	srli	s7,s7,0x4
   11b56:	00f48023          	sb	a5,0(s1)
   11b5a:	fe0b95e3          	bnez	s7,11b44 <_vfprintf_r+0xd46>
   11b5e:	bfb9                	j	11abc <_vfprintf_r+0xcbe>
   11b60:	1ae4                	addi	s1,sp,380
   11b62:	ffa9                	bnez	a5,11abc <_vfprintf_r+0xcbe>
   11b64:	8b05                	andi	a4,a4,1
   11b66:	db39                	beqz	a4,11abc <_vfprintf_r+0xcbe>
   11b68:	03000793          	li	a5,48
   11b6c:	16f10da3          	sb	a5,379(sp)
   11b70:	833ff06f          	j	113a2 <_vfprintf_r+0x5a4>
   11b74:	020b02e3          	beqz	s6,12398 <_vfprintf_r+0x159a>
   11b78:	11610c23          	sb	s6,280(sp)
   11b7c:	0c0107a3          	sb	zero,207(sp)
   11b80:	f85e                	sd	s7,48(sp)
   11b82:	dd4ff06f          	j	11156 <_vfprintf_r+0x358>
   11b86:	0641                	addi	a2,a2,16
   11b88:	011cb423          	sd	a7,8(s9)
   11b8c:	ea32                	sd	a2,272(sp)
   11b8e:	10b12423          	sw	a1,264(sp)
   11b92:	02aed463          	ble	a0,t4,11bba <_vfprintf_r+0xdbc>
   11b96:	0210                	addi	a2,sp,256
   11b98:	85ca                	mv	a1,s2
   11b9a:	854e                	mv	a0,s3
   11b9c:	fd76                	sd	t4,184(sp)
   11b9e:	f942                	sd	a6,176(sp)
   11ba0:	e546                	sd	a7,136(sp)
   11ba2:	e13a                	sd	a4,128(sp)
   11ba4:	fcb6                	sd	a3,120(sp)
   11ba6:	4d0050ef          	jal	ra,17076 <__sprint_r>
   11baa:	7a051863          	bnez	a0,1235a <_vfprintf_r+0x155c>
   11bae:	7eea                	ld	t4,184(sp)
   11bb0:	784a                	ld	a6,176(sp)
   11bb2:	68aa                	ld	a7,136(sp)
   11bb4:	670a                	ld	a4,128(sp)
   11bb6:	76e6                	ld	a3,120(sp)
   11bb8:	8f56                	mv	t5,s5
   11bba:	36c1                	addiw	a3,a3,-16
   11bbc:	8cfa                	mv	s9,t5
   11bbe:	df0ff06f          	j	111ae <_vfprintf_r+0x3b0>
   11bc2:	0641                	addi	a2,a2,16
   11bc4:	011cb423          	sd	a7,8(s9)
   11bc8:	ea32                	sd	a2,272(sp)
   11bca:	10b12423          	sw	a1,264(sp)
   11bce:	02aed463          	ble	a0,t4,11bf6 <_vfprintf_r+0xdf8>
   11bd2:	0210                	addi	a2,sp,256
   11bd4:	85ca                	mv	a1,s2
   11bd6:	854e                	mv	a0,s3
   11bd8:	e576                	sd	t4,136(sp)
   11bda:	e142                	sd	a6,128(sp)
   11bdc:	fcc6                	sd	a7,120(sp)
   11bde:	f8ba                	sd	a4,112(sp)
   11be0:	f4b6                	sd	a3,104(sp)
   11be2:	494050ef          	jal	ra,17076 <__sprint_r>
   11be6:	76051a63          	bnez	a0,1235a <_vfprintf_r+0x155c>
   11bea:	6eaa                	ld	t4,136(sp)
   11bec:	680a                	ld	a6,128(sp)
   11bee:	78e6                	ld	a7,120(sp)
   11bf0:	7746                	ld	a4,112(sp)
   11bf2:	76a6                	ld	a3,104(sp)
   11bf4:	8f56                	mv	t5,s5
   11bf6:	36c1                	addiw	a3,a3,-16
   11bf8:	8cfa                	mv	s9,t5
   11bfa:	e9aff06f          	j	11294 <_vfprintf_r+0x496>
   11bfe:	06c1                	addi	a3,a3,16
   11c00:	011cb423          	sd	a7,8(s9)
   11c04:	ea36                	sd	a3,272(sp)
   11c06:	10c12423          	sw	a2,264(sp)
   11c0a:	02bed263          	ble	a1,t4,11c2e <_vfprintf_r+0xe30>
   11c0e:	0210                	addi	a2,sp,256
   11c10:	85ca                	mv	a1,s2
   11c12:	854e                	mv	a0,s3
   11c14:	e176                	sd	t4,128(sp)
   11c16:	fcc2                	sd	a6,120(sp)
   11c18:	f8c6                	sd	a7,112(sp)
   11c1a:	f4ba                	sd	a4,104(sp)
   11c1c:	45a050ef          	jal	ra,17076 <__sprint_r>
   11c20:	72051d63          	bnez	a0,1235a <_vfprintf_r+0x155c>
   11c24:	6e8a                	ld	t4,128(sp)
   11c26:	7866                	ld	a6,120(sp)
   11c28:	78c6                	ld	a7,112(sp)
   11c2a:	7726                	ld	a4,104(sp)
   11c2c:	8556                	mv	a0,s5
   11c2e:	3741                	addiw	a4,a4,-16
   11c30:	8caa                	mv	s9,a0
   11c32:	eb6ff06f          	j	112e8 <_vfprintf_r+0x4ea>
   11c36:	06500693          	li	a3,101
   11c3a:	5766df63          	ble	s6,a3,121b8 <_vfprintf_r+0x13ba>
   11c3e:	754e                	ld	a0,240(sp)
   11c40:	75ee                	ld	a1,248(sp)
   11c42:	4601                	li	a2,0
   11c44:	4681                	li	a3,0
   11c46:	f4ba                	sd	a4,104(sp)
   11c48:	607060ef          	jal	ra,18a4e <__eqtf2>
   11c4c:	7726                	ld	a4,104(sp)
   11c4e:	10051e63          	bnez	a0,11d6a <_vfprintf_r+0xf6c>
   11c52:	0001a7b7          	lui	a5,0x1a
   11c56:	28078793          	addi	a5,a5,640 # 1a280 <zeroes.4441+0x90>
   11c5a:	00fcb023          	sd	a5,0(s9)
   11c5e:	4785                	li	a5,1
   11c60:	00fcb423          	sd	a5,8(s9)
   11c64:	10812783          	lw	a5,264(sp)
   11c68:	0705                	addi	a4,a4,1
   11c6a:	ea3a                	sd	a4,272(sp)
   11c6c:	0017871b          	addiw	a4,a5,1
   11c70:	10e12423          	sw	a4,264(sp)
   11c74:	479d                	li	a5,7
   11c76:	0cc1                	addi	s9,s9,16
   11c78:	00e7da63          	ble	a4,a5,11c8c <_vfprintf_r+0xe8e>
   11c7c:	0210                	addi	a2,sp,256
   11c7e:	85ca                	mv	a1,s2
   11c80:	854e                	mv	a0,s3
   11c82:	3f4050ef          	jal	ra,17076 <__sprint_r>
   11c86:	6c051a63          	bnez	a0,1235a <_vfprintf_r+0x155c>
   11c8a:	8cd6                	mv	s9,s5
   11c8c:	47ee                	lw	a5,216(sp)
   11c8e:	0147c563          	blt	a5,s4,11c98 <_vfprintf_r+0xe9a>
   11c92:	00147793          	andi	a5,s0,1
   11c96:	cfa5                	beqz	a5,11d0e <_vfprintf_r+0xf10>
   11c98:	67a6                	ld	a5,72(sp)
   11c9a:	6762                	ld	a4,24(sp)
   11c9c:	0cc1                	addi	s9,s9,16
   11c9e:	fefcb823          	sd	a5,-16(s9)
   11ca2:	67e2                	ld	a5,24(sp)
   11ca4:	fefcbc23          	sd	a5,-8(s9)
   11ca8:	67d2                	ld	a5,272(sp)
   11caa:	97ba                	add	a5,a5,a4
   11cac:	ea3e                	sd	a5,272(sp)
   11cae:	10812783          	lw	a5,264(sp)
   11cb2:	0017871b          	addiw	a4,a5,1
   11cb6:	10e12423          	sw	a4,264(sp)
   11cba:	479d                	li	a5,7
   11cbc:	00e7da63          	ble	a4,a5,11cd0 <_vfprintf_r+0xed2>
   11cc0:	0210                	addi	a2,sp,256
   11cc2:	85ca                	mv	a1,s2
   11cc4:	854e                	mv	a0,s3
   11cc6:	3b0050ef          	jal	ra,17076 <__sprint_r>
   11cca:	68051863          	bnez	a0,1235a <_vfprintf_r+0x155c>
   11cce:	8cd6                	mv	s9,s5
   11cd0:	fffa049b          	addiw	s1,s4,-1
   11cd4:	02905d63          	blez	s1,11d0e <_vfprintf_r+0xf10>
   11cd8:	6b69                	lui	s6,0x1a
   11cda:	4c41                	li	s8,16
   11cdc:	1f0b0b13          	addi	s6,s6,496 # 1a1f0 <zeroes.4441>
   11ce0:	4d1d                	li	s10,7
   11ce2:	10812703          	lw	a4,264(sp)
   11ce6:	016cb023          	sd	s6,0(s9)
   11cea:	67d2                	ld	a5,272(sp)
   11cec:	0017069b          	addiw	a3,a4,1
   11cf0:	8736                	mv	a4,a3
   11cf2:	010c8613          	addi	a2,s9,16
   11cf6:	049c4763          	blt	s8,s1,11d44 <_vfprintf_r+0xf46>
   11cfa:	009cb423          	sd	s1,8(s9)
   11cfe:	94be                	add	s1,s1,a5
   11d00:	ea26                	sd	s1,272(sp)
   11d02:	10d12423          	sw	a3,264(sp)
   11d06:	479d                	li	a5,7
   11d08:	8cb2                	mv	s9,a2
   11d0a:	e4d7c463          	blt	a5,a3,11352 <_vfprintf_r+0x554>
   11d0e:	8811                	andi	s0,s0,4
   11d10:	60041063          	bnez	s0,12310 <_vfprintf_r+0x1512>
   11d14:	7702                	ld	a4,32(sp)
   11d16:	76e2                	ld	a3,56(sp)
   11d18:	5782                	lw	a5,32(sp)
   11d1a:	00d75363          	ble	a3,a4,11d20 <_vfprintf_r+0xf22>
   11d1e:	57e2                	lw	a5,56(sp)
   11d20:	7722                	ld	a4,40(sp)
   11d22:	9fb9                	addw	a5,a5,a4
   11d24:	f43e                	sd	a5,40(sp)
   11d26:	67d2                	ld	a5,272(sp)
   11d28:	cb81                	beqz	a5,11d38 <_vfprintf_r+0xf3a>
   11d2a:	0210                	addi	a2,sp,256
   11d2c:	85ca                	mv	a1,s2
   11d2e:	854e                	mv	a0,s3
   11d30:	346050ef          	jal	ra,17076 <__sprint_r>
   11d34:	62051363          	bnez	a0,1235a <_vfprintf_r+0x155c>
   11d38:	10012423          	sw	zero,264(sp)
   11d3c:	640b9963          	bnez	s7,1238e <_vfprintf_r+0x1590>
   11d40:	8cd6                	mv	s9,s5
   11d42:	be55                	j	118f6 <_vfprintf_r+0xaf8>
   11d44:	07c1                	addi	a5,a5,16
   11d46:	018cb423          	sd	s8,8(s9)
   11d4a:	ea3e                	sd	a5,272(sp)
   11d4c:	10e12423          	sw	a4,264(sp)
   11d50:	00dd5a63          	ble	a3,s10,11d64 <_vfprintf_r+0xf66>
   11d54:	0210                	addi	a2,sp,256
   11d56:	85ca                	mv	a1,s2
   11d58:	854e                	mv	a0,s3
   11d5a:	31c050ef          	jal	ra,17076 <__sprint_r>
   11d5e:	5e051e63          	bnez	a0,1235a <_vfprintf_r+0x155c>
   11d62:	8656                	mv	a2,s5
   11d64:	34c1                	addiw	s1,s1,-16
   11d66:	8cb2                	mv	s9,a2
   11d68:	bfad                	j	11ce2 <_vfprintf_r+0xee4>
   11d6a:	46ee                	lw	a3,216(sp)
   11d6c:	12d04163          	bgtz	a3,11e8e <_vfprintf_r+0x1090>
   11d70:	0001a7b7          	lui	a5,0x1a
   11d74:	28078793          	addi	a5,a5,640 # 1a280 <zeroes.4441+0x90>
   11d78:	00fcb023          	sd	a5,0(s9)
   11d7c:	4785                	li	a5,1
   11d7e:	00fcb423          	sd	a5,8(s9)
   11d82:	10812783          	lw	a5,264(sp)
   11d86:	0705                	addi	a4,a4,1
   11d88:	ea3a                	sd	a4,272(sp)
   11d8a:	0017871b          	addiw	a4,a5,1
   11d8e:	10e12423          	sw	a4,264(sp)
   11d92:	479d                	li	a5,7
   11d94:	0cc1                	addi	s9,s9,16
   11d96:	00e7da63          	ble	a4,a5,11daa <_vfprintf_r+0xfac>
   11d9a:	0210                	addi	a2,sp,256
   11d9c:	85ca                	mv	a1,s2
   11d9e:	854e                	mv	a0,s3
   11da0:	2d6050ef          	jal	ra,17076 <__sprint_r>
   11da4:	5a051b63          	bnez	a0,1235a <_vfprintf_r+0x155c>
   11da8:	8cd6                	mv	s9,s5
   11daa:	47ee                	lw	a5,216(sp)
   11dac:	e791                	bnez	a5,11db8 <_vfprintf_r+0xfba>
   11dae:	000a1563          	bnez	s4,11db8 <_vfprintf_r+0xfba>
   11db2:	00147793          	andi	a5,s0,1
   11db6:	dfa1                	beqz	a5,11d0e <_vfprintf_r+0xf10>
   11db8:	67a6                	ld	a5,72(sp)
   11dba:	6762                	ld	a4,24(sp)
   11dbc:	010c8313          	addi	t1,s9,16
   11dc0:	00fcb023          	sd	a5,0(s9)
   11dc4:	67e2                	ld	a5,24(sp)
   11dc6:	00fcb423          	sd	a5,8(s9)
   11dca:	67d2                	ld	a5,272(sp)
   11dcc:	97ba                	add	a5,a5,a4
   11dce:	ea3e                	sd	a5,272(sp)
   11dd0:	10812783          	lw	a5,264(sp)
   11dd4:	0017871b          	addiw	a4,a5,1
   11dd8:	10e12423          	sw	a4,264(sp)
   11ddc:	479d                	li	a5,7
   11dde:	00e7da63          	ble	a4,a5,11df2 <_vfprintf_r+0xff4>
   11de2:	0210                	addi	a2,sp,256
   11de4:	85ca                	mv	a1,s2
   11de6:	854e                	mv	a0,s3
   11de8:	28e050ef          	jal	ra,17076 <__sprint_r>
   11dec:	56051763          	bnez	a0,1235a <_vfprintf_r+0x155c>
   11df0:	8356                	mv	t1,s5
   11df2:	4b6e                	lw	s6,216(sp)
   11df4:	040b5663          	bgez	s6,11e40 <_vfprintf_r+0x1042>
   11df8:	6c69                	lui	s8,0x1a
   11dfa:	41600b3b          	negw	s6,s6
   11dfe:	879a                	mv	a5,t1
   11e00:	4d41                	li	s10,16
   11e02:	1f0c0c13          	addi	s8,s8,496 # 1a1f0 <zeroes.4441>
   11e06:	4c9d                	li	s9,7
   11e08:	10812683          	lw	a3,264(sp)
   11e0c:	0187b023          	sd	s8,0(a5)
   11e10:	6752                	ld	a4,272(sp)
   11e12:	0016861b          	addiw	a2,a3,1
   11e16:	86b2                	mv	a3,a2
   11e18:	0341                	addi	t1,t1,16
   11e1a:	056d4763          	blt	s10,s6,11e68 <_vfprintf_r+0x106a>
   11e1e:	0167b423          	sd	s6,8(a5)
   11e22:	9b3a                	add	s6,s6,a4
   11e24:	ea5a                	sd	s6,272(sp)
   11e26:	10c12423          	sw	a2,264(sp)
   11e2a:	479d                	li	a5,7
   11e2c:	00c7da63          	ble	a2,a5,11e40 <_vfprintf_r+0x1042>
   11e30:	0210                	addi	a2,sp,256
   11e32:	85ca                	mv	a1,s2
   11e34:	854e                	mv	a0,s3
   11e36:	240050ef          	jal	ra,17076 <__sprint_r>
   11e3a:	52051063          	bnez	a0,1235a <_vfprintf_r+0x155c>
   11e3e:	8356                	mv	t1,s5
   11e40:	67d2                	ld	a5,272(sp)
   11e42:	00933023          	sd	s1,0(t1) # 0 <_start-0x100b0>
   11e46:	01433423          	sd	s4,8(t1)
   11e4a:	97d2                	add	a5,a5,s4
   11e4c:	ea3e                	sd	a5,272(sp)
   11e4e:	10812783          	lw	a5,264(sp)
   11e52:	01030c93          	addi	s9,t1,16
   11e56:	0017871b          	addiw	a4,a5,1
   11e5a:	10e12423          	sw	a4,264(sp)
   11e5e:	479d                	li	a5,7
   11e60:	eae7d7e3          	ble	a4,a5,11d0e <_vfprintf_r+0xf10>
   11e64:	ceeff06f          	j	11352 <_vfprintf_r+0x554>
   11e68:	0741                	addi	a4,a4,16
   11e6a:	01a7b423          	sd	s10,8(a5)
   11e6e:	ea3a                	sd	a4,272(sp)
   11e70:	10d12423          	sw	a3,264(sp)
   11e74:	00ccda63          	ble	a2,s9,11e88 <_vfprintf_r+0x108a>
   11e78:	0210                	addi	a2,sp,256
   11e7a:	85ca                	mv	a1,s2
   11e7c:	854e                	mv	a0,s3
   11e7e:	1f8050ef          	jal	ra,17076 <__sprint_r>
   11e82:	4c051c63          	bnez	a0,1235a <_vfprintf_r+0x155c>
   11e86:	8356                	mv	t1,s5
   11e88:	3b41                	addiw	s6,s6,-16
   11e8a:	879a                	mv	a5,t1
   11e8c:	bfb5                	j	11e08 <_vfprintf_r+0x100a>
   11e8e:	000d0b1b          	sext.w	s6,s10
   11e92:	01aa5463          	ble	s10,s4,11e9a <_vfprintf_r+0x109c>
   11e96:	000a0b1b          	sext.w	s6,s4
   11e9a:	03605a63          	blez	s6,11ece <_vfprintf_r+0x10d0>
   11e9e:	975a                	add	a4,a4,s6
   11ea0:	ea3a                	sd	a4,272(sp)
   11ea2:	10812703          	lw	a4,264(sp)
   11ea6:	009cb023          	sd	s1,0(s9)
   11eaa:	016cb423          	sd	s6,8(s9)
   11eae:	0017069b          	addiw	a3,a4,1
   11eb2:	10d12423          	sw	a3,264(sp)
   11eb6:	471d                	li	a4,7
   11eb8:	0cc1                	addi	s9,s9,16
   11eba:	00d75a63          	ble	a3,a4,11ece <_vfprintf_r+0x10d0>
   11ebe:	0210                	addi	a2,sp,256
   11ec0:	85ca                	mv	a1,s2
   11ec2:	854e                	mv	a0,s3
   11ec4:	1b2050ef          	jal	ra,17076 <__sprint_r>
   11ec8:	48051963          	bnez	a0,1235a <_vfprintf_r+0x155c>
   11ecc:	8cd6                	mv	s9,s5
   11ece:	875a                	mv	a4,s6
   11ed0:	000b5363          	bgez	s6,11ed6 <_vfprintf_r+0x10d8>
   11ed4:	4701                	li	a4,0
   11ed6:	40ed0b3b          	subw	s6,s10,a4
   11eda:	05605563          	blez	s6,11f24 <_vfprintf_r+0x1126>
   11ede:	66e9                	lui	a3,0x1a
   11ee0:	4841                	li	a6,16
   11ee2:	1f068d93          	addi	s11,a3,496 # 1a1f0 <zeroes.4441>
   11ee6:	489d                	li	a7,7
   11ee8:	10812603          	lw	a2,264(sp)
   11eec:	01bcb023          	sd	s11,0(s9)
   11ef0:	6752                	ld	a4,272(sp)
   11ef2:	0016059b          	addiw	a1,a2,1
   11ef6:	862e                	mv	a2,a1
   11ef8:	010c8513          	addi	a0,s9,16
   11efc:	15684263          	blt	a6,s6,12040 <_vfprintf_r+0x1242>
   11f00:	016cb423          	sd	s6,8(s9)
   11f04:	9b3a                	add	s6,s6,a4
   11f06:	ea5a                	sd	s6,272(sp)
   11f08:	10b12423          	sw	a1,264(sp)
   11f0c:	471d                	li	a4,7
   11f0e:	8caa                	mv	s9,a0
   11f10:	00b75a63          	ble	a1,a4,11f24 <_vfprintf_r+0x1126>
   11f14:	0210                	addi	a2,sp,256
   11f16:	85ca                	mv	a1,s2
   11f18:	854e                	mv	a0,s3
   11f1a:	15c050ef          	jal	ra,17076 <__sprint_r>
   11f1e:	42051e63          	bnez	a0,1235a <_vfprintf_r+0x155c>
   11f22:	8cd6                	mv	s9,s5
   11f24:	40047793          	andi	a5,s0,1024
   11f28:	01a48b33          	add	s6,s1,s10
   11f2c:	c39d                	beqz	a5,11f52 <_vfprintf_r+0x1154>
   11f2e:	014487b3          	add	a5,s1,s4
   11f32:	f4be                	sd	a5,104(sp)
   11f34:	67e9                	lui	a5,0x1a
   11f36:	1f078793          	addi	a5,a5,496 # 1a1f0 <zeroes.4441>
   11f3a:	4d9d                	li	s11,7
   11f3c:	8d3e                	mv	s10,a5
   11f3e:	67a2                	ld	a5,8(sp)
   11f40:	120c1763          	bnez	s8,1206e <_vfprintf_r+0x1270>
   11f44:	12079663          	bnez	a5,12070 <_vfprintf_r+0x1272>
   11f48:	014487b3          	add	a5,s1,s4
   11f4c:	0167f363          	bleu	s6,a5,11f52 <_vfprintf_r+0x1154>
   11f50:	8b3e                	mv	s6,a5
   11f52:	47ee                	lw	a5,216(sp)
   11f54:	0147c563          	blt	a5,s4,11f5e <_vfprintf_r+0x1160>
   11f58:	00147793          	andi	a5,s0,1
   11f5c:	cf8d                	beqz	a5,11f96 <_vfprintf_r+0x1198>
   11f5e:	67a6                	ld	a5,72(sp)
   11f60:	6762                	ld	a4,24(sp)
   11f62:	0cc1                	addi	s9,s9,16
   11f64:	fefcb823          	sd	a5,-16(s9)
   11f68:	67e2                	ld	a5,24(sp)
   11f6a:	fefcbc23          	sd	a5,-8(s9)
   11f6e:	67d2                	ld	a5,272(sp)
   11f70:	97ba                	add	a5,a5,a4
   11f72:	ea3e                	sd	a5,272(sp)
   11f74:	10812783          	lw	a5,264(sp)
   11f78:	0017871b          	addiw	a4,a5,1
   11f7c:	10e12423          	sw	a4,264(sp)
   11f80:	479d                	li	a5,7
   11f82:	00e7da63          	ble	a4,a5,11f96 <_vfprintf_r+0x1198>
   11f86:	0210                	addi	a2,sp,256
   11f88:	85ca                	mv	a1,s2
   11f8a:	854e                	mv	a0,s3
   11f8c:	0ea050ef          	jal	ra,17076 <__sprint_r>
   11f90:	3c051563          	bnez	a0,1235a <_vfprintf_r+0x155c>
   11f94:	8cd6                	mv	s9,s5
   11f96:	4c6e                	lw	s8,216(sp)
   11f98:	94d2                	add	s1,s1,s4
   11f9a:	416484bb          	subw	s1,s1,s6
   11f9e:	418a07bb          	subw	a5,s4,s8
   11fa2:	8c3e                	mv	s8,a5
   11fa4:	00f4d463          	ble	a5,s1,11fac <_vfprintf_r+0x11ae>
   11fa8:	00048c1b          	sext.w	s8,s1
   11fac:	03805b63          	blez	s8,11fe2 <_vfprintf_r+0x11e4>
   11fb0:	67d2                	ld	a5,272(sp)
   11fb2:	016cb023          	sd	s6,0(s9)
   11fb6:	018cb423          	sd	s8,8(s9)
   11fba:	97e2                	add	a5,a5,s8
   11fbc:	ea3e                	sd	a5,272(sp)
   11fbe:	10812783          	lw	a5,264(sp)
   11fc2:	0cc1                	addi	s9,s9,16
   11fc4:	0017871b          	addiw	a4,a5,1
   11fc8:	10e12423          	sw	a4,264(sp)
   11fcc:	479d                	li	a5,7
   11fce:	00e7da63          	ble	a4,a5,11fe2 <_vfprintf_r+0x11e4>
   11fd2:	0210                	addi	a2,sp,256
   11fd4:	85ca                	mv	a1,s2
   11fd6:	854e                	mv	a0,s3
   11fd8:	09e050ef          	jal	ra,17076 <__sprint_r>
   11fdc:	36051f63          	bnez	a0,1235a <_vfprintf_r+0x155c>
   11fe0:	8cd6                	mv	s9,s5
   11fe2:	87e2                	mv	a5,s8
   11fe4:	000c5363          	bgez	s8,11fea <_vfprintf_r+0x11ec>
   11fe8:	4781                	li	a5,0
   11fea:	44ee                	lw	s1,216(sp)
   11fec:	409a04bb          	subw	s1,s4,s1
   11ff0:	9c9d                	subw	s1,s1,a5
   11ff2:	d0905ee3          	blez	s1,11d0e <_vfprintf_r+0xf10>
   11ff6:	6b69                	lui	s6,0x1a
   11ff8:	4c41                	li	s8,16
   11ffa:	1f0b0b13          	addi	s6,s6,496 # 1a1f0 <zeroes.4441>
   11ffe:	4d1d                	li	s10,7
   12000:	10812703          	lw	a4,264(sp)
   12004:	016cb023          	sd	s6,0(s9)
   12008:	67d2                	ld	a5,272(sp)
   1200a:	0017069b          	addiw	a3,a4,1
   1200e:	8736                	mv	a4,a3
   12010:	010c8613          	addi	a2,s9,16
   12014:	169c4f63          	blt	s8,s1,12192 <_vfprintf_r+0x1394>
   12018:	009cb423          	sd	s1,8(s9)
   1201c:	94be                	add	s1,s1,a5
   1201e:	ea26                	sd	s1,272(sp)
   12020:	10d12423          	sw	a3,264(sp)
   12024:	479d                	li	a5,7
   12026:	8cb2                	mv	s9,a2
   12028:	ced7d3e3          	ble	a3,a5,11d0e <_vfprintf_r+0xf10>
   1202c:	0210                	addi	a2,sp,256
   1202e:	85ca                	mv	a1,s2
   12030:	854e                	mv	a0,s3
   12032:	044050ef          	jal	ra,17076 <__sprint_r>
   12036:	32051263          	bnez	a0,1235a <_vfprintf_r+0x155c>
   1203a:	18010c93          	addi	s9,sp,384
   1203e:	b9c1                	j	11d0e <_vfprintf_r+0xf10>
   12040:	0741                	addi	a4,a4,16
   12042:	010cb423          	sd	a6,8(s9)
   12046:	ea3a                	sd	a4,272(sp)
   12048:	10c12423          	sw	a2,264(sp)
   1204c:	00b8de63          	ble	a1,a7,12068 <_vfprintf_r+0x126a>
   12050:	0210                	addi	a2,sp,256
   12052:	85ca                	mv	a1,s2
   12054:	854e                	mv	a0,s3
   12056:	f8c6                	sd	a7,112(sp)
   12058:	f4c2                	sd	a6,104(sp)
   1205a:	01c050ef          	jal	ra,17076 <__sprint_r>
   1205e:	2e051e63          	bnez	a0,1235a <_vfprintf_r+0x155c>
   12062:	78c6                	ld	a7,112(sp)
   12064:	7826                	ld	a6,104(sp)
   12066:	8556                	mv	a0,s5
   12068:	3b41                	addiw	s6,s6,-16
   1206a:	8caa                	mv	s9,a0
   1206c:	bdb5                	j	11ee8 <_vfprintf_r+0x10ea>
   1206e:	c7d5                	beqz	a5,1211a <_vfprintf_r+0x131c>
   12070:	67a2                	ld	a5,8(sp)
   12072:	37fd                	addiw	a5,a5,-1
   12074:	e43e                	sd	a5,8(sp)
   12076:	67c6                	ld	a5,80(sp)
   12078:	6706                	ld	a4,64(sp)
   1207a:	0cc1                	addi	s9,s9,16
   1207c:	fefcb823          	sd	a5,-16(s9)
   12080:	6786                	ld	a5,64(sp)
   12082:	fefcbc23          	sd	a5,-8(s9)
   12086:	67d2                	ld	a5,272(sp)
   12088:	97ba                	add	a5,a5,a4
   1208a:	ea3e                	sd	a5,272(sp)
   1208c:	10812783          	lw	a5,264(sp)
   12090:	0017871b          	addiw	a4,a5,1
   12094:	10e12423          	sw	a4,264(sp)
   12098:	00edda63          	ble	a4,s11,120ac <_vfprintf_r+0x12ae>
   1209c:	0210                	addi	a2,sp,256
   1209e:	85ca                	mv	a1,s2
   120a0:	854e                	mv	a0,s3
   120a2:	7d5040ef          	jal	ra,17076 <__sprint_r>
   120a6:	2a051a63          	bnez	a0,1235a <_vfprintf_r+0x155c>
   120aa:	8cd6                	mv	s9,s5
   120ac:	6702                	ld	a4,0(sp)
   120ae:	77a6                	ld	a5,104(sp)
   120b0:	00074703          	lbu	a4,0(a4)
   120b4:	416787bb          	subw	a5,a5,s6
   120b8:	00e7d463          	ble	a4,a5,120c0 <_vfprintf_r+0x12c2>
   120bc:	0007871b          	sext.w	a4,a5
   120c0:	02e05d63          	blez	a4,120fa <_vfprintf_r+0x12fc>
   120c4:	67d2                	ld	a5,272(sp)
   120c6:	016cb023          	sd	s6,0(s9)
   120ca:	00ecb423          	sd	a4,8(s9)
   120ce:	97ba                	add	a5,a5,a4
   120d0:	ea3e                	sd	a5,272(sp)
   120d2:	10812783          	lw	a5,264(sp)
   120d6:	0cc1                	addi	s9,s9,16
   120d8:	0017869b          	addiw	a3,a5,1
   120dc:	10d12423          	sw	a3,264(sp)
   120e0:	00dddd63          	ble	a3,s11,120fa <_vfprintf_r+0x12fc>
   120e4:	0210                	addi	a2,sp,256
   120e6:	85ca                	mv	a1,s2
   120e8:	854e                	mv	a0,s3
   120ea:	f8ba                	sd	a4,112(sp)
   120ec:	78b040ef          	jal	ra,17076 <__sprint_r>
   120f0:	26051563          	bnez	a0,1235a <_vfprintf_r+0x155c>
   120f4:	7746                	ld	a4,112(sp)
   120f6:	18010c93          	addi	s9,sp,384
   120fa:	86ba                	mv	a3,a4
   120fc:	00075363          	bgez	a4,12102 <_vfprintf_r+0x1304>
   12100:	4681                	li	a3,0
   12102:	6782                	ld	a5,0(sp)
   12104:	4841                	li	a6,16
   12106:	0007c783          	lbu	a5,0(a5)
   1210a:	9f95                	subw	a5,a5,a3
   1210c:	04f04463          	bgtz	a5,12154 <_vfprintf_r+0x1356>
   12110:	6782                	ld	a5,0(sp)
   12112:	0007c783          	lbu	a5,0(a5)
   12116:	9b3e                	add	s6,s6,a5
   12118:	b51d                	j	11f3e <_vfprintf_r+0x1140>
   1211a:	6782                	ld	a5,0(sp)
   1211c:	3c7d                	addiw	s8,s8,-1
   1211e:	17fd                	addi	a5,a5,-1
   12120:	e03e                	sd	a5,0(sp)
   12122:	bf91                	j	12076 <_vfprintf_r+0x1278>
   12124:	0741                	addi	a4,a4,16
   12126:	01acb023          	sd	s10,0(s9)
   1212a:	010cb423          	sd	a6,8(s9)
   1212e:	ea3a                	sd	a4,272(sp)
   12130:	10d12423          	sw	a3,264(sp)
   12134:	00cdde63          	ble	a2,s11,12150 <_vfprintf_r+0x1352>
   12138:	0210                	addi	a2,sp,256
   1213a:	85ca                	mv	a1,s2
   1213c:	854e                	mv	a0,s3
   1213e:	fcc2                	sd	a6,120(sp)
   12140:	f8be                	sd	a5,112(sp)
   12142:	735040ef          	jal	ra,17076 <__sprint_r>
   12146:	20051a63          	bnez	a0,1235a <_vfprintf_r+0x155c>
   1214a:	7866                	ld	a6,120(sp)
   1214c:	77c6                	ld	a5,112(sp)
   1214e:	030c                	addi	a1,sp,384
   12150:	37c1                	addiw	a5,a5,-16
   12152:	8cae                	mv	s9,a1
   12154:	10812683          	lw	a3,264(sp)
   12158:	6752                	ld	a4,272(sp)
   1215a:	010c8593          	addi	a1,s9,16
   1215e:	0016861b          	addiw	a2,a3,1
   12162:	86b2                	mv	a3,a2
   12164:	fcf840e3          	blt	a6,a5,12124 <_vfprintf_r+0x1326>
   12168:	00fcb423          	sd	a5,8(s9)
   1216c:	97ba                	add	a5,a5,a4
   1216e:	01acb023          	sd	s10,0(s9)
   12172:	ea3e                	sd	a5,272(sp)
   12174:	10c12423          	sw	a2,264(sp)
   12178:	8cae                	mv	s9,a1
   1217a:	f8cddbe3          	ble	a2,s11,12110 <_vfprintf_r+0x1312>
   1217e:	0210                	addi	a2,sp,256
   12180:	85ca                	mv	a1,s2
   12182:	854e                	mv	a0,s3
   12184:	6f3040ef          	jal	ra,17076 <__sprint_r>
   12188:	1c051963          	bnez	a0,1235a <_vfprintf_r+0x155c>
   1218c:	18010c93          	addi	s9,sp,384
   12190:	b741                	j	12110 <_vfprintf_r+0x1312>
   12192:	07c1                	addi	a5,a5,16
   12194:	018cb423          	sd	s8,8(s9)
   12198:	ea3e                	sd	a5,272(sp)
   1219a:	10e12423          	sw	a4,264(sp)
   1219e:	00dd5a63          	ble	a3,s10,121b2 <_vfprintf_r+0x13b4>
   121a2:	0210                	addi	a2,sp,256
   121a4:	85ca                	mv	a1,s2
   121a6:	854e                	mv	a0,s3
   121a8:	6cf040ef          	jal	ra,17076 <__sprint_r>
   121ac:	1a051763          	bnez	a0,1235a <_vfprintf_r+0x155c>
   121b0:	0310                	addi	a2,sp,384
   121b2:	34c1                	addiw	s1,s1,-16
   121b4:	8cb2                	mv	s9,a2
   121b6:	b5a9                	j	12000 <_vfprintf_r+0x1202>
   121b8:	10812783          	lw	a5,264(sp)
   121bc:	4605                	li	a2,1
   121be:	009cb023          	sd	s1,0(s9)
   121c2:	0017869b          	addiw	a3,a5,1
   121c6:	0705                	addi	a4,a4,1
   121c8:	87b6                	mv	a5,a3
   121ca:	010c8c13          	addi	s8,s9,16
   121ce:	01464663          	blt	a2,s4,121da <_vfprintf_r+0x13dc>
   121d2:	00147593          	andi	a1,s0,1
   121d6:	12058663          	beqz	a1,12302 <_vfprintf_r+0x1504>
   121da:	4605                	li	a2,1
   121dc:	10f12423          	sw	a5,264(sp)
   121e0:	00ccb423          	sd	a2,8(s9)
   121e4:	ea3a                	sd	a4,272(sp)
   121e6:	479d                	li	a5,7
   121e8:	00d7da63          	ble	a3,a5,121fc <_vfprintf_r+0x13fe>
   121ec:	0210                	addi	a2,sp,256
   121ee:	85ca                	mv	a1,s2
   121f0:	854e                	mv	a0,s3
   121f2:	685040ef          	jal	ra,17076 <__sprint_r>
   121f6:	16051263          	bnez	a0,1235a <_vfprintf_r+0x155c>
   121fa:	8c56                	mv	s8,s5
   121fc:	67a6                	ld	a5,72(sp)
   121fe:	6762                	ld	a4,24(sp)
   12200:	0c41                	addi	s8,s8,16
   12202:	fefc3823          	sd	a5,-16(s8)
   12206:	67e2                	ld	a5,24(sp)
   12208:	fefc3c23          	sd	a5,-8(s8)
   1220c:	67d2                	ld	a5,272(sp)
   1220e:	97ba                	add	a5,a5,a4
   12210:	ea3e                	sd	a5,272(sp)
   12212:	10812783          	lw	a5,264(sp)
   12216:	0017871b          	addiw	a4,a5,1
   1221a:	10e12423          	sw	a4,264(sp)
   1221e:	479d                	li	a5,7
   12220:	00e7da63          	ble	a4,a5,12234 <_vfprintf_r+0x1436>
   12224:	0210                	addi	a2,sp,256
   12226:	85ca                	mv	a1,s2
   12228:	854e                	mv	a0,s3
   1222a:	64d040ef          	jal	ra,17076 <__sprint_r>
   1222e:	12051663          	bnez	a0,1235a <_vfprintf_r+0x155c>
   12232:	8c56                	mv	s8,s5
   12234:	754e                	ld	a0,240(sp)
   12236:	75ee                	ld	a1,248(sp)
   12238:	4601                	li	a2,0
   1223a:	4681                	li	a3,0
   1223c:	fffa0b1b          	addiw	s6,s4,-1
   12240:	00f060ef          	jal	ra,18a4e <__eqtf2>
   12244:	c12d                	beqz	a0,122a6 <_vfprintf_r+0x14a8>
   12246:	10812703          	lw	a4,264(sp)
   1224a:	67d2                	ld	a5,272(sp)
   1224c:	0485                	addi	s1,s1,1
   1224e:	0017069b          	addiw	a3,a4,1
   12252:	97da                	add	a5,a5,s6
   12254:	009c3023          	sd	s1,0(s8)
   12258:	016c3423          	sd	s6,8(s8)
   1225c:	ea3e                	sd	a5,272(sp)
   1225e:	10d12423          	sw	a3,264(sp)
   12262:	479d                	li	a5,7
   12264:	0c41                	addi	s8,s8,16
   12266:	00d7d963          	ble	a3,a5,12278 <_vfprintf_r+0x147a>
   1226a:	0210                	addi	a2,sp,256
   1226c:	85ca                	mv	a1,s2
   1226e:	854e                	mv	a0,s3
   12270:	607040ef          	jal	ra,17076 <__sprint_r>
   12274:	e17d                	bnez	a0,1235a <_vfprintf_r+0x155c>
   12276:	8c56                	mv	s8,s5
   12278:	119c                	addi	a5,sp,224
   1227a:	00fc3023          	sd	a5,0(s8)
   1227e:	67e6                	ld	a5,88(sp)
   12280:	6766                	ld	a4,88(sp)
   12282:	010c0c93          	addi	s9,s8,16
   12286:	00fc3423          	sd	a5,8(s8)
   1228a:	67d2                	ld	a5,272(sp)
   1228c:	97ba                	add	a5,a5,a4
   1228e:	ea3e                	sd	a5,272(sp)
   12290:	10812783          	lw	a5,264(sp)
   12294:	0017871b          	addiw	a4,a5,1
   12298:	10e12423          	sw	a4,264(sp)
   1229c:	479d                	li	a5,7
   1229e:	a6e7d8e3          	ble	a4,a5,11d0e <_vfprintf_r+0xf10>
   122a2:	8b0ff06f          	j	11352 <_vfprintf_r+0x554>
   122a6:	fd6059e3          	blez	s6,12278 <_vfprintf_r+0x147a>
   122aa:	64e9                	lui	s1,0x1a
   122ac:	4d41                	li	s10,16
   122ae:	1f048493          	addi	s1,s1,496 # 1a1f0 <zeroes.4441>
   122b2:	4c9d                	li	s9,7
   122b4:	10812703          	lw	a4,264(sp)
   122b8:	009c3023          	sd	s1,0(s8)
   122bc:	67d2                	ld	a5,272(sp)
   122be:	0017069b          	addiw	a3,a4,1
   122c2:	8736                	mv	a4,a3
   122c4:	010c0613          	addi	a2,s8,16
   122c8:	016d4b63          	blt	s10,s6,122de <_vfprintf_r+0x14e0>
   122cc:	97da                	add	a5,a5,s6
   122ce:	016c3423          	sd	s6,8(s8)
   122d2:	ea3e                	sd	a5,272(sp)
   122d4:	10d12423          	sw	a3,264(sp)
   122d8:	479d                	li	a5,7
   122da:	8c32                	mv	s8,a2
   122dc:	b769                	j	12266 <_vfprintf_r+0x1468>
   122de:	07c1                	addi	a5,a5,16
   122e0:	01ac3423          	sd	s10,8(s8)
   122e4:	ea3e                	sd	a5,272(sp)
   122e6:	10e12423          	sw	a4,264(sp)
   122ea:	00dcd963          	ble	a3,s9,122fc <_vfprintf_r+0x14fe>
   122ee:	0210                	addi	a2,sp,256
   122f0:	85ca                	mv	a1,s2
   122f2:	854e                	mv	a0,s3
   122f4:	583040ef          	jal	ra,17076 <__sprint_r>
   122f8:	e12d                	bnez	a0,1235a <_vfprintf_r+0x155c>
   122fa:	8656                	mv	a2,s5
   122fc:	3b41                	addiw	s6,s6,-16
   122fe:	8c32                	mv	s8,a2
   12300:	bf55                	j	122b4 <_vfprintf_r+0x14b6>
   12302:	00ccb423          	sd	a2,8(s9)
   12306:	ea3a                	sd	a4,272(sp)
   12308:	10d12423          	sw	a3,264(sp)
   1230c:	479d                	li	a5,7
   1230e:	bfa1                	j	12266 <_vfprintf_r+0x1468>
   12310:	7782                	ld	a5,32(sp)
   12312:	7762                	ld	a4,56(sp)
   12314:	40e7843b          	subw	s0,a5,a4
   12318:	9e805ee3          	blez	s0,11d14 <_vfprintf_r+0xf16>
   1231c:	64e9                	lui	s1,0x1a
   1231e:	4b41                	li	s6,16
   12320:	1e048493          	addi	s1,s1,480 # 1a1e0 <blanks.4440>
   12324:	4c1d                	li	s8,7
   12326:	10812703          	lw	a4,264(sp)
   1232a:	009cb023          	sd	s1,0(s9)
   1232e:	67d2                	ld	a5,272(sp)
   12330:	0017069b          	addiw	a3,a4,1
   12334:	8736                	mv	a4,a3
   12336:	028b4a63          	blt	s6,s0,1236a <_vfprintf_r+0x156c>
   1233a:	008cb423          	sd	s0,8(s9)
   1233e:	943e                	add	s0,s0,a5
   12340:	ea22                	sd	s0,272(sp)
   12342:	10d12423          	sw	a3,264(sp)
   12346:	479d                	li	a5,7
   12348:	9cd7d6e3          	ble	a3,a5,11d14 <_vfprintf_r+0xf16>
   1234c:	0210                	addi	a2,sp,256
   1234e:	85ca                	mv	a1,s2
   12350:	854e                	mv	a0,s3
   12352:	525040ef          	jal	ra,17076 <__sprint_r>
   12356:	9a050fe3          	beqz	a0,11d14 <_vfprintf_r+0xf16>
   1235a:	960b8a63          	beqz	s7,114ce <_vfprintf_r+0x6d0>
   1235e:	85de                	mv	a1,s7
   12360:	854e                	mv	a0,s3
   12362:	71c000ef          	jal	ra,12a7e <_free_r>
   12366:	968ff06f          	j	114ce <_vfprintf_r+0x6d0>
   1236a:	07c1                	addi	a5,a5,16
   1236c:	016cb423          	sd	s6,8(s9)
   12370:	ea3e                	sd	a5,272(sp)
   12372:	10e12423          	sw	a4,264(sp)
   12376:	0cc1                	addi	s9,s9,16
   12378:	00dc5963          	ble	a3,s8,1238a <_vfprintf_r+0x158c>
   1237c:	0210                	addi	a2,sp,256
   1237e:	85ca                	mv	a1,s2
   12380:	854e                	mv	a0,s3
   12382:	4f5040ef          	jal	ra,17076 <__sprint_r>
   12386:	f971                	bnez	a0,1235a <_vfprintf_r+0x155c>
   12388:	8cd6                	mv	s9,s5
   1238a:	3441                	addiw	s0,s0,-16
   1238c:	bf69                	j	12326 <_vfprintf_r+0x1528>
   1238e:	85de                	mv	a1,s7
   12390:	854e                	mv	a0,s3
   12392:	6ec000ef          	jal	ra,12a7e <_free_r>
   12396:	b26d                	j	11d40 <_vfprintf_r+0xf42>
   12398:	67d2                	ld	a5,272(sp)
   1239a:	92078a63          	beqz	a5,114ce <_vfprintf_r+0x6d0>
   1239e:	0210                	addi	a2,sp,256
   123a0:	85ca                	mv	a1,s2
   123a2:	854e                	mv	a0,s3
   123a4:	4d3040ef          	jal	ra,17076 <__sprint_r>
   123a8:	926ff06f          	j	114ce <_vfprintf_r+0x6d0>

00000000000123ac <vfprintf>:
   123ac:	86b2                	mv	a3,a2
   123ae:	862e                	mv	a2,a1
   123b0:	85aa                	mv	a1,a0
   123b2:	8381b503          	ld	a0,-1992(gp) # 1ceb0 <_impure_ptr>
   123b6:	a49fe06f          	j	10dfe <_vfprintf_r>

00000000000123ba <__sbprintf>:
   123ba:	0105d783          	lhu	a5,16(a1)
   123be:	b3010113          	addi	sp,sp,-1232
   123c2:	4c813023          	sd	s0,1216(sp)
   123c6:	9bf5                	andi	a5,a5,-3
   123c8:	00f11823          	sh	a5,16(sp)
   123cc:	0ac5a783          	lw	a5,172(a1)
   123d0:	842e                	mv	s0,a1
   123d2:	4a913c23          	sd	s1,1208(sp)
   123d6:	d73e                	sw	a5,172(sp)
   123d8:	0125d783          	lhu	a5,18(a1)
   123dc:	4b213823          	sd	s2,1200(sp)
   123e0:	4c113423          	sd	ra,1224(sp)
   123e4:	00f11923          	sh	a5,18(sp)
   123e8:	799c                	ld	a5,48(a1)
   123ea:	892a                	mv	s2,a0
   123ec:	d402                	sw	zero,40(sp)
   123ee:	f83e                	sd	a5,48(sp)
   123f0:	61bc                	ld	a5,64(a1)
   123f2:	858a                	mv	a1,sp
   123f4:	e0be                	sd	a5,64(sp)
   123f6:	191c                	addi	a5,sp,176
   123f8:	e03e                	sd	a5,0(sp)
   123fa:	ec3e                	sd	a5,24(sp)
   123fc:	40000793          	li	a5,1024
   12400:	c63e                	sw	a5,12(sp)
   12402:	d03e                	sw	a5,32(sp)
   12404:	9fbfe0ef          	jal	ra,10dfe <_vfprintf_r>
   12408:	84aa                	mv	s1,a0
   1240a:	00054863          	bltz	a0,1241a <__sbprintf+0x60>
   1240e:	858a                	mv	a1,sp
   12410:	854a                	mv	a0,s2
   12412:	384000ef          	jal	ra,12796 <_fflush_r>
   12416:	c111                	beqz	a0,1241a <__sbprintf+0x60>
   12418:	54fd                	li	s1,-1
   1241a:	01015783          	lhu	a5,16(sp)
   1241e:	0407f793          	andi	a5,a5,64
   12422:	c799                	beqz	a5,12430 <__sbprintf+0x76>
   12424:	01045783          	lhu	a5,16(s0)
   12428:	0407e793          	ori	a5,a5,64
   1242c:	00f41823          	sh	a5,16(s0)
   12430:	4c813083          	ld	ra,1224(sp)
   12434:	4c013403          	ld	s0,1216(sp)
   12438:	8526                	mv	a0,s1
   1243a:	4b013903          	ld	s2,1200(sp)
   1243e:	4b813483          	ld	s1,1208(sp)
   12442:	4d010113          	addi	sp,sp,1232
   12446:	8082                	ret

0000000000012448 <__swsetup_r>:
   12448:	1101                	addi	sp,sp,-32
   1244a:	e426                	sd	s1,8(sp)
   1244c:	84aa                	mv	s1,a0
   1244e:	8381b503          	ld	a0,-1992(gp) # 1ceb0 <_impure_ptr>
   12452:	e822                	sd	s0,16(sp)
   12454:	ec06                	sd	ra,24(sp)
   12456:	842e                	mv	s0,a1
   12458:	c509                	beqz	a0,12462 <__swsetup_r+0x1a>
   1245a:	493c                	lw	a5,80(a0)
   1245c:	e399                	bnez	a5,12462 <__swsetup_r+0x1a>
   1245e:	450000ef          	jal	ra,128ae <__sinit>
   12462:	01041703          	lh	a4,16(s0)
   12466:	03071793          	slli	a5,a4,0x30
   1246a:	93c1                	srli	a5,a5,0x30
   1246c:	0087f693          	andi	a3,a5,8
   12470:	eea9                	bnez	a3,124ca <__swsetup_r+0x82>
   12472:	0107f693          	andi	a3,a5,16
   12476:	ee89                	bnez	a3,12490 <__swsetup_r+0x48>
   12478:	47a5                	li	a5,9
   1247a:	c09c                	sw	a5,0(s1)
   1247c:	04076713          	ori	a4,a4,64
   12480:	00e41823          	sh	a4,16(s0)
   12484:	557d                	li	a0,-1
   12486:	60e2                	ld	ra,24(sp)
   12488:	6442                	ld	s0,16(sp)
   1248a:	64a2                	ld	s1,8(sp)
   1248c:	6105                	addi	sp,sp,32
   1248e:	8082                	ret
   12490:	8b91                	andi	a5,a5,4
   12492:	c795                	beqz	a5,124be <__swsetup_r+0x76>
   12494:	6c2c                	ld	a1,88(s0)
   12496:	c991                	beqz	a1,124aa <__swsetup_r+0x62>
   12498:	07440793          	addi	a5,s0,116
   1249c:	00f58563          	beq	a1,a5,124a6 <__swsetup_r+0x5e>
   124a0:	8526                	mv	a0,s1
   124a2:	5dc000ef          	jal	ra,12a7e <_free_r>
   124a6:	04043c23          	sd	zero,88(s0)
   124aa:	01045783          	lhu	a5,16(s0)
   124ae:	00042423          	sw	zero,8(s0)
   124b2:	fdb7f793          	andi	a5,a5,-37
   124b6:	00f41823          	sh	a5,16(s0)
   124ba:	6c1c                	ld	a5,24(s0)
   124bc:	e01c                	sd	a5,0(s0)
   124be:	01045783          	lhu	a5,16(s0)
   124c2:	0087e793          	ori	a5,a5,8
   124c6:	00f41823          	sh	a5,16(s0)
   124ca:	6c1c                	ld	a5,24(s0)
   124cc:	ef89                	bnez	a5,124e6 <__swsetup_r+0x9e>
   124ce:	01045783          	lhu	a5,16(s0)
   124d2:	20000713          	li	a4,512
   124d6:	2807f793          	andi	a5,a5,640
   124da:	00e78663          	beq	a5,a4,124e6 <__swsetup_r+0x9e>
   124de:	85a2                	mv	a1,s0
   124e0:	8526                	mv	a0,s1
   124e2:	33e020ef          	jal	ra,14820 <__smakebuf_r>
   124e6:	01045783          	lhu	a5,16(s0)
   124ea:	0017f713          	andi	a4,a5,1
   124ee:	c705                	beqz	a4,12516 <__swsetup_r+0xce>
   124f0:	501c                	lw	a5,32(s0)
   124f2:	00042623          	sw	zero,12(s0)
   124f6:	40f007bb          	negw	a5,a5
   124fa:	d41c                	sw	a5,40(s0)
   124fc:	6c1c                	ld	a5,24(s0)
   124fe:	4501                	li	a0,0
   12500:	f3d9                	bnez	a5,12486 <__swsetup_r+0x3e>
   12502:	01041783          	lh	a5,16(s0)
   12506:	0807f713          	andi	a4,a5,128
   1250a:	df35                	beqz	a4,12486 <__swsetup_r+0x3e>
   1250c:	0407e793          	ori	a5,a5,64
   12510:	00f41823          	sh	a5,16(s0)
   12514:	bf85                	j	12484 <__swsetup_r+0x3c>
   12516:	8b89                	andi	a5,a5,2
   12518:	4701                	li	a4,0
   1251a:	e391                	bnez	a5,1251e <__swsetup_r+0xd6>
   1251c:	5018                	lw	a4,32(s0)
   1251e:	c458                	sw	a4,12(s0)
   12520:	bff1                	j	124fc <__swsetup_r+0xb4>

0000000000012522 <__register_exitproc>:
   12522:	8301b703          	ld	a4,-2000(gp) # 1cea8 <_global_impure_ptr>
   12526:	832a                	mv	t1,a0
   12528:	1f873783          	ld	a5,504(a4)
   1252c:	e789                	bnez	a5,12536 <__register_exitproc+0x14>
   1252e:	20070793          	addi	a5,a4,512
   12532:	1ef73c23          	sd	a5,504(a4)
   12536:	4798                	lw	a4,8(a5)
   12538:	487d                	li	a6,31
   1253a:	557d                	li	a0,-1
   1253c:	04e84463          	blt	a6,a4,12584 <__register_exitproc+0x62>
   12540:	02030a63          	beqz	t1,12574 <__register_exitproc+0x52>
   12544:	00371813          	slli	a6,a4,0x3
   12548:	983e                	add	a6,a6,a5
   1254a:	10c83823          	sd	a2,272(a6)
   1254e:	3107a883          	lw	a7,784(a5)
   12552:	4605                	li	a2,1
   12554:	00e6163b          	sllw	a2,a2,a4
   12558:	00c8e8b3          	or	a7,a7,a2
   1255c:	3117a823          	sw	a7,784(a5)
   12560:	20d83823          	sd	a3,528(a6)
   12564:	4689                	li	a3,2
   12566:	00d31763          	bne	t1,a3,12574 <__register_exitproc+0x52>
   1256a:	3147a683          	lw	a3,788(a5)
   1256e:	8e55                	or	a2,a2,a3
   12570:	30c7aa23          	sw	a2,788(a5)
   12574:	0017069b          	addiw	a3,a4,1
   12578:	0709                	addi	a4,a4,2
   1257a:	070e                	slli	a4,a4,0x3
   1257c:	c794                	sw	a3,8(a5)
   1257e:	97ba                	add	a5,a5,a4
   12580:	e38c                	sd	a1,0(a5)
   12582:	4501                	li	a0,0
   12584:	8082                	ret

0000000000012586 <__call_exitprocs>:
   12586:	715d                	addi	sp,sp,-80
   12588:	f44e                	sd	s3,40(sp)
   1258a:	8301b983          	ld	s3,-2000(gp) # 1cea8 <_global_impure_ptr>
   1258e:	f052                	sd	s4,32(sp)
   12590:	ec56                	sd	s5,24(sp)
   12592:	e85a                	sd	s6,16(sp)
   12594:	e486                	sd	ra,72(sp)
   12596:	e0a2                	sd	s0,64(sp)
   12598:	fc26                	sd	s1,56(sp)
   1259a:	f84a                	sd	s2,48(sp)
   1259c:	e45e                	sd	s7,8(sp)
   1259e:	8aaa                	mv	s5,a0
   125a0:	8a2e                	mv	s4,a1
   125a2:	4b05                	li	s6,1
   125a4:	1f89b403          	ld	s0,504(s3)
   125a8:	c801                	beqz	s0,125b8 <__call_exitprocs+0x32>
   125aa:	4404                	lw	s1,8(s0)
   125ac:	34fd                	addiw	s1,s1,-1
   125ae:	00349913          	slli	s2,s1,0x3
   125b2:	9922                	add	s2,s2,s0
   125b4:	0004dd63          	bgez	s1,125ce <__call_exitprocs+0x48>
   125b8:	60a6                	ld	ra,72(sp)
   125ba:	6406                	ld	s0,64(sp)
   125bc:	74e2                	ld	s1,56(sp)
   125be:	7942                	ld	s2,48(sp)
   125c0:	79a2                	ld	s3,40(sp)
   125c2:	7a02                	ld	s4,32(sp)
   125c4:	6ae2                	ld	s5,24(sp)
   125c6:	6b42                	ld	s6,16(sp)
   125c8:	6ba2                	ld	s7,8(sp)
   125ca:	6161                	addi	sp,sp,80
   125cc:	8082                	ret
   125ce:	000a0963          	beqz	s4,125e0 <__call_exitprocs+0x5a>
   125d2:	21093783          	ld	a5,528(s2)
   125d6:	01478563          	beq	a5,s4,125e0 <__call_exitprocs+0x5a>
   125da:	34fd                	addiw	s1,s1,-1
   125dc:	1961                	addi	s2,s2,-8
   125de:	bfd9                	j	125b4 <__call_exitprocs+0x2e>
   125e0:	441c                	lw	a5,8(s0)
   125e2:	01093683          	ld	a3,16(s2)
   125e6:	37fd                	addiw	a5,a5,-1
   125e8:	02979663          	bne	a5,s1,12614 <__call_exitprocs+0x8e>
   125ec:	c404                	sw	s1,8(s0)
   125ee:	d6f5                	beqz	a3,125da <__call_exitprocs+0x54>
   125f0:	31042703          	lw	a4,784(s0)
   125f4:	009b163b          	sllw	a2,s6,s1
   125f8:	00842b83          	lw	s7,8(s0)
   125fc:	8f71                	and	a4,a4,a2
   125fe:	2701                	sext.w	a4,a4
   12600:	ef09                	bnez	a4,1261a <__call_exitprocs+0x94>
   12602:	9682                	jalr	a3
   12604:	4418                	lw	a4,8(s0)
   12606:	1f89b783          	ld	a5,504(s3)
   1260a:	f9771de3          	bne	a4,s7,125a4 <__call_exitprocs+0x1e>
   1260e:	fcf406e3          	beq	s0,a5,125da <__call_exitprocs+0x54>
   12612:	bf49                	j	125a4 <__call_exitprocs+0x1e>
   12614:	00093823          	sd	zero,16(s2)
   12618:	bfd9                	j	125ee <__call_exitprocs+0x68>
   1261a:	31442783          	lw	a5,788(s0)
   1261e:	11093583          	ld	a1,272(s2)
   12622:	8ff1                	and	a5,a5,a2
   12624:	2781                	sext.w	a5,a5
   12626:	e781                	bnez	a5,1262e <__call_exitprocs+0xa8>
   12628:	8556                	mv	a0,s5
   1262a:	9682                	jalr	a3
   1262c:	bfe1                	j	12604 <__call_exitprocs+0x7e>
   1262e:	852e                	mv	a0,a1
   12630:	9682                	jalr	a3
   12632:	bfc9                	j	12604 <__call_exitprocs+0x7e>

0000000000012634 <__sflush_r>:
   12634:	01059783          	lh	a5,16(a1)
   12638:	7179                	addi	sp,sp,-48
   1263a:	f022                	sd	s0,32(sp)
   1263c:	03079713          	slli	a4,a5,0x30
   12640:	9341                	srli	a4,a4,0x30
   12642:	ec26                	sd	s1,24(sp)
   12644:	f406                	sd	ra,40(sp)
   12646:	e84a                	sd	s2,16(sp)
   12648:	e44e                	sd	s3,8(sp)
   1264a:	00877693          	andi	a3,a4,8
   1264e:	84aa                	mv	s1,a0
   12650:	842e                	mv	s0,a1
   12652:	10069063          	bnez	a3,12752 <__sflush_r+0x11e>
   12656:	6705                	lui	a4,0x1
   12658:	80070713          	addi	a4,a4,-2048 # 800 <_start-0xf8b0>
   1265c:	8fd9                	or	a5,a5,a4
   1265e:	4598                	lw	a4,8(a1)
   12660:	00f59823          	sh	a5,16(a1)
   12664:	00e04d63          	bgtz	a4,1267e <__sflush_r+0x4a>
   12668:	59b8                	lw	a4,112(a1)
   1266a:	00e04a63          	bgtz	a4,1267e <__sflush_r+0x4a>
   1266e:	4501                	li	a0,0
   12670:	70a2                	ld	ra,40(sp)
   12672:	7402                	ld	s0,32(sp)
   12674:	64e2                	ld	s1,24(sp)
   12676:	6942                	ld	s2,16(sp)
   12678:	69a2                	ld	s3,8(sp)
   1267a:	6145                	addi	sp,sp,48
   1267c:	8082                	ret
   1267e:	6438                	ld	a4,72(s0)
   12680:	d77d                	beqz	a4,1266e <__sflush_r+0x3a>
   12682:	0004a903          	lw	s2,0(s1)
   12686:	03379693          	slli	a3,a5,0x33
   1268a:	0004a023          	sw	zero,0(s1)
   1268e:	780c                	ld	a1,48(s0)
   12690:	0806d863          	bgez	a3,12720 <__sflush_r+0xec>
   12694:	6850                	ld	a2,144(s0)
   12696:	01045783          	lhu	a5,16(s0)
   1269a:	8b91                	andi	a5,a5,4
   1269c:	c799                	beqz	a5,126aa <__sflush_r+0x76>
   1269e:	441c                	lw	a5,8(s0)
   126a0:	8e1d                	sub	a2,a2,a5
   126a2:	6c3c                	ld	a5,88(s0)
   126a4:	c399                	beqz	a5,126aa <__sflush_r+0x76>
   126a6:	583c                	lw	a5,112(s0)
   126a8:	8e1d                	sub	a2,a2,a5
   126aa:	643c                	ld	a5,72(s0)
   126ac:	780c                	ld	a1,48(s0)
   126ae:	4681                	li	a3,0
   126b0:	8526                	mv	a0,s1
   126b2:	9782                	jalr	a5
   126b4:	57fd                	li	a5,-1
   126b6:	01045683          	lhu	a3,16(s0)
   126ba:	00f51d63          	bne	a0,a5,126d4 <__sflush_r+0xa0>
   126be:	409c                	lw	a5,0(s1)
   126c0:	4775                	li	a4,29
   126c2:	08f76263          	bltu	a4,a5,12746 <__sflush_r+0x112>
   126c6:	20400737          	lui	a4,0x20400
   126ca:	0705                	addi	a4,a4,1
   126cc:	00f75733          	srl	a4,a4,a5
   126d0:	8b05                	andi	a4,a4,1
   126d2:	cb35                	beqz	a4,12746 <__sflush_r+0x112>
   126d4:	77fd                	lui	a5,0xfffff
   126d6:	7ff78793          	addi	a5,a5,2047 # fffffffffffff7ff <__global_pointer$+0xfffffffffffe2187>
   126da:	6c18                	ld	a4,24(s0)
   126dc:	8ff5                	and	a5,a5,a3
   126de:	0107979b          	slliw	a5,a5,0x10
   126e2:	4107d79b          	sraiw	a5,a5,0x10
   126e6:	e018                	sd	a4,0(s0)
   126e8:	00f41823          	sh	a5,16(s0)
   126ec:	00042423          	sw	zero,8(s0)
   126f0:	03379713          	slli	a4,a5,0x33
   126f4:	00075863          	bgez	a4,12704 <__sflush_r+0xd0>
   126f8:	57fd                	li	a5,-1
   126fa:	00f51463          	bne	a0,a5,12702 <__sflush_r+0xce>
   126fe:	409c                	lw	a5,0(s1)
   12700:	e391                	bnez	a5,12704 <__sflush_r+0xd0>
   12702:	e848                	sd	a0,144(s0)
   12704:	6c2c                	ld	a1,88(s0)
   12706:	0124a023          	sw	s2,0(s1)
   1270a:	d1b5                	beqz	a1,1266e <__sflush_r+0x3a>
   1270c:	07440793          	addi	a5,s0,116
   12710:	00f58563          	beq	a1,a5,1271a <__sflush_r+0xe6>
   12714:	8526                	mv	a0,s1
   12716:	368000ef          	jal	ra,12a7e <_free_r>
   1271a:	04043c23          	sd	zero,88(s0)
   1271e:	bf81                	j	1266e <__sflush_r+0x3a>
   12720:	4601                	li	a2,0
   12722:	4685                	li	a3,1
   12724:	8526                	mv	a0,s1
   12726:	9702                	jalr	a4
   12728:	57fd                	li	a5,-1
   1272a:	862a                	mv	a2,a0
   1272c:	f6f515e3          	bne	a0,a5,12696 <__sflush_r+0x62>
   12730:	409c                	lw	a5,0(s1)
   12732:	d3b5                	beqz	a5,12696 <__sflush_r+0x62>
   12734:	4775                	li	a4,29
   12736:	00e78563          	beq	a5,a4,12740 <__sflush_r+0x10c>
   1273a:	4759                	li	a4,22
   1273c:	04e79463          	bne	a5,a4,12784 <__sflush_r+0x150>
   12740:	0124a023          	sw	s2,0(s1)
   12744:	b72d                	j	1266e <__sflush_r+0x3a>
   12746:	0406e793          	ori	a5,a3,64
   1274a:	00f41823          	sh	a5,16(s0)
   1274e:	557d                	li	a0,-1
   12750:	b705                	j	12670 <__sflush_r+0x3c>
   12752:	0185b983          	ld	s3,24(a1)
   12756:	f0098ce3          	beqz	s3,1266e <__sflush_r+0x3a>
   1275a:	0005b903          	ld	s2,0(a1)
   1275e:	8b0d                	andi	a4,a4,3
   12760:	0135b023          	sd	s3,0(a1)
   12764:	4139093b          	subw	s2,s2,s3
   12768:	4781                	li	a5,0
   1276a:	e311                	bnez	a4,1276e <__sflush_r+0x13a>
   1276c:	519c                	lw	a5,32(a1)
   1276e:	c45c                	sw	a5,12(s0)
   12770:	ef205fe3          	blez	s2,1266e <__sflush_r+0x3a>
   12774:	603c                	ld	a5,64(s0)
   12776:	780c                	ld	a1,48(s0)
   12778:	86ca                	mv	a3,s2
   1277a:	864e                	mv	a2,s3
   1277c:	8526                	mv	a0,s1
   1277e:	9782                	jalr	a5
   12780:	00a04763          	bgtz	a0,1278e <__sflush_r+0x15a>
   12784:	01045783          	lhu	a5,16(s0)
   12788:	0407e793          	ori	a5,a5,64
   1278c:	bf7d                	j	1274a <__sflush_r+0x116>
   1278e:	99aa                	add	s3,s3,a0
   12790:	40a9093b          	subw	s2,s2,a0
   12794:	bff1                	j	12770 <__sflush_r+0x13c>

0000000000012796 <_fflush_r>:
   12796:	1101                	addi	sp,sp,-32
   12798:	e822                	sd	s0,16(sp)
   1279a:	ec06                	sd	ra,24(sp)
   1279c:	842a                	mv	s0,a0
   1279e:	c519                	beqz	a0,127ac <_fflush_r+0x16>
   127a0:	493c                	lw	a5,80(a0)
   127a2:	e789                	bnez	a5,127ac <_fflush_r+0x16>
   127a4:	e42e                	sd	a1,8(sp)
   127a6:	108000ef          	jal	ra,128ae <__sinit>
   127aa:	65a2                	ld	a1,8(sp)
   127ac:	01059783          	lh	a5,16(a1)
   127b0:	c799                	beqz	a5,127be <_fflush_r+0x28>
   127b2:	8522                	mv	a0,s0
   127b4:	6442                	ld	s0,16(sp)
   127b6:	60e2                	ld	ra,24(sp)
   127b8:	6105                	addi	sp,sp,32
   127ba:	e7bff06f          	j	12634 <__sflush_r>
   127be:	60e2                	ld	ra,24(sp)
   127c0:	6442                	ld	s0,16(sp)
   127c2:	4501                	li	a0,0
   127c4:	6105                	addi	sp,sp,32
   127c6:	8082                	ret

00000000000127c8 <fflush>:
   127c8:	85aa                	mv	a1,a0
   127ca:	e909                	bnez	a0,127dc <fflush+0x14>
   127cc:	8301b503          	ld	a0,-2000(gp) # 1cea8 <_global_impure_ptr>
   127d0:	000125b7          	lui	a1,0x12
   127d4:	79658593          	addi	a1,a1,1942 # 12796 <_fflush_r>
   127d8:	7a60006f          	j	12f7e <_fwalk_reent>
   127dc:	8381b503          	ld	a0,-1992(gp) # 1ceb0 <_impure_ptr>
   127e0:	fb7ff06f          	j	12796 <_fflush_r>

00000000000127e4 <__fp_lock>:
   127e4:	4501                	li	a0,0
   127e6:	8082                	ret

00000000000127e8 <_cleanup_r>:
   127e8:	000185b7          	lui	a1,0x18
   127ec:	b3058593          	addi	a1,a1,-1232 # 17b30 <_fclose_r>
   127f0:	78e0006f          	j	12f7e <_fwalk_reent>

00000000000127f4 <std.isra.0>:
   127f4:	1141                	addi	sp,sp,-16
   127f6:	e022                	sd	s0,0(sp)
   127f8:	e406                	sd	ra,8(sp)
   127fa:	842a                	mv	s0,a0
   127fc:	00b51823          	sh	a1,16(a0)
   12800:	00c51923          	sh	a2,18(a0)
   12804:	00053023          	sd	zero,0(a0)
   12808:	00053423          	sd	zero,8(a0)
   1280c:	0a052623          	sw	zero,172(a0)
   12810:	00053c23          	sd	zero,24(a0)
   12814:	02052023          	sw	zero,32(a0)
   12818:	02052423          	sw	zero,40(a0)
   1281c:	4621                	li	a2,8
   1281e:	4581                	li	a1,0
   12820:	0a450513          	addi	a0,a0,164
   12824:	c1efe0ef          	jal	ra,10c42 <memset>
   12828:	000167b7          	lui	a5,0x16
   1282c:	91078793          	addi	a5,a5,-1776 # 15910 <__sread>
   12830:	fc1c                	sd	a5,56(s0)
   12832:	000167b7          	lui	a5,0x16
   12836:	94678793          	addi	a5,a5,-1722 # 15946 <__swrite>
   1283a:	e03c                	sd	a5,64(s0)
   1283c:	000167b7          	lui	a5,0x16
   12840:	99878793          	addi	a5,a5,-1640 # 15998 <__sseek>
   12844:	e43c                	sd	a5,72(s0)
   12846:	000167b7          	lui	a5,0x16
   1284a:	9d078793          	addi	a5,a5,-1584 # 159d0 <__sclose>
   1284e:	f800                	sd	s0,48(s0)
   12850:	e83c                	sd	a5,80(s0)
   12852:	60a2                	ld	ra,8(sp)
   12854:	6402                	ld	s0,0(sp)
   12856:	0141                	addi	sp,sp,16
   12858:	8082                	ret

000000000001285a <__fp_unlock>:
   1285a:	4501                	li	a0,0
   1285c:	8082                	ret

000000000001285e <__sfmoreglue>:
   1285e:	1101                	addi	sp,sp,-32
   12860:	e426                	sd	s1,8(sp)
   12862:	0b000613          	li	a2,176
   12866:	fff5849b          	addiw	s1,a1,-1
   1286a:	02c484b3          	mul	s1,s1,a2
   1286e:	e04a                	sd	s2,0(sp)
   12870:	892e                	mv	s2,a1
   12872:	e822                	sd	s0,16(sp)
   12874:	ec06                	sd	ra,24(sp)
   12876:	0c848593          	addi	a1,s1,200
   1287a:	e2bfd0ef          	jal	ra,106a4 <_malloc_r>
   1287e:	842a                	mv	s0,a0
   12880:	cd01                	beqz	a0,12898 <__sfmoreglue+0x3a>
   12882:	00053023          	sd	zero,0(a0)
   12886:	01252423          	sw	s2,8(a0)
   1288a:	0561                	addi	a0,a0,24
   1288c:	e808                	sd	a0,16(s0)
   1288e:	0b048613          	addi	a2,s1,176
   12892:	4581                	li	a1,0
   12894:	baefe0ef          	jal	ra,10c42 <memset>
   12898:	8522                	mv	a0,s0
   1289a:	60e2                	ld	ra,24(sp)
   1289c:	6442                	ld	s0,16(sp)
   1289e:	64a2                	ld	s1,8(sp)
   128a0:	6902                	ld	s2,0(sp)
   128a2:	6105                	addi	sp,sp,32
   128a4:	8082                	ret

00000000000128a6 <_cleanup>:
   128a6:	8301b503          	ld	a0,-2000(gp) # 1cea8 <_global_impure_ptr>
   128aa:	f3fff06f          	j	127e8 <_cleanup_r>

00000000000128ae <__sinit>:
   128ae:	493c                	lw	a5,80(a0)
   128b0:	eba1                	bnez	a5,12900 <__sinit+0x52>
   128b2:	1141                	addi	sp,sp,-16
   128b4:	000127b7          	lui	a5,0x12
   128b8:	e406                	sd	ra,8(sp)
   128ba:	e022                	sd	s0,0(sp)
   128bc:	7e878793          	addi	a5,a5,2024 # 127e8 <_cleanup_r>
   128c0:	ed3c                	sd	a5,88(a0)
   128c2:	478d                	li	a5,3
   128c4:	52f52423          	sw	a5,1320(a0)
   128c8:	53850793          	addi	a5,a0,1336
   128cc:	842a                	mv	s0,a0
   128ce:	52f53823          	sd	a5,1328(a0)
   128d2:	52053023          	sd	zero,1312(a0)
   128d6:	6508                	ld	a0,8(a0)
   128d8:	4601                	li	a2,0
   128da:	4591                	li	a1,4
   128dc:	f19ff0ef          	jal	ra,127f4 <std.isra.0>
   128e0:	6808                	ld	a0,16(s0)
   128e2:	4605                	li	a2,1
   128e4:	45a5                	li	a1,9
   128e6:	f0fff0ef          	jal	ra,127f4 <std.isra.0>
   128ea:	6c08                	ld	a0,24(s0)
   128ec:	4609                	li	a2,2
   128ee:	45c9                	li	a1,18
   128f0:	f05ff0ef          	jal	ra,127f4 <std.isra.0>
   128f4:	4785                	li	a5,1
   128f6:	c83c                	sw	a5,80(s0)
   128f8:	60a2                	ld	ra,8(sp)
   128fa:	6402                	ld	s0,0(sp)
   128fc:	0141                	addi	sp,sp,16
   128fe:	8082                	ret
   12900:	8082                	ret

0000000000012902 <__sfp>:
   12902:	1101                	addi	sp,sp,-32
   12904:	e426                	sd	s1,8(sp)
   12906:	8301b483          	ld	s1,-2000(gp) # 1cea8 <_global_impure_ptr>
   1290a:	e04a                	sd	s2,0(sp)
   1290c:	ec06                	sd	ra,24(sp)
   1290e:	48bc                	lw	a5,80(s1)
   12910:	e822                	sd	s0,16(sp)
   12912:	892a                	mv	s2,a0
   12914:	e781                	bnez	a5,1291c <__sfp+0x1a>
   12916:	8526                	mv	a0,s1
   12918:	f97ff0ef          	jal	ra,128ae <__sinit>
   1291c:	52048493          	addi	s1,s1,1312
   12920:	6880                	ld	s0,16(s1)
   12922:	449c                	lw	a5,8(s1)
   12924:	37fd                	addiw	a5,a5,-1
   12926:	0007d663          	bgez	a5,12932 <__sfp+0x30>
   1292a:	609c                	ld	a5,0(s1)
   1292c:	cb89                	beqz	a5,1293e <__sfp+0x3c>
   1292e:	6084                	ld	s1,0(s1)
   12930:	bfc5                	j	12920 <__sfp+0x1e>
   12932:	01041703          	lh	a4,16(s0)
   12936:	c70d                	beqz	a4,12960 <__sfp+0x5e>
   12938:	0b040413          	addi	s0,s0,176
   1293c:	b7e5                	j	12924 <__sfp+0x22>
   1293e:	4591                	li	a1,4
   12940:	854a                	mv	a0,s2
   12942:	f1dff0ef          	jal	ra,1285e <__sfmoreglue>
   12946:	e088                	sd	a0,0(s1)
   12948:	f17d                	bnez	a0,1292e <__sfp+0x2c>
   1294a:	47b1                	li	a5,12
   1294c:	00f92023          	sw	a5,0(s2)
   12950:	4401                	li	s0,0
   12952:	8522                	mv	a0,s0
   12954:	60e2                	ld	ra,24(sp)
   12956:	6442                	ld	s0,16(sp)
   12958:	64a2                	ld	s1,8(sp)
   1295a:	6902                	ld	s2,0(sp)
   1295c:	6105                	addi	sp,sp,32
   1295e:	8082                	ret
   12960:	77c1                	lui	a5,0xffff0
   12962:	2785                	addiw	a5,a5,1
   12964:	0a042623          	sw	zero,172(s0)
   12968:	00043023          	sd	zero,0(s0)
   1296c:	00043423          	sd	zero,8(s0)
   12970:	c81c                	sw	a5,16(s0)
   12972:	00043c23          	sd	zero,24(s0)
   12976:	02042023          	sw	zero,32(s0)
   1297a:	02042423          	sw	zero,40(s0)
   1297e:	4621                	li	a2,8
   12980:	4581                	li	a1,0
   12982:	0a440513          	addi	a0,s0,164
   12986:	abcfe0ef          	jal	ra,10c42 <memset>
   1298a:	04043c23          	sd	zero,88(s0)
   1298e:	06042023          	sw	zero,96(s0)
   12992:	06043c23          	sd	zero,120(s0)
   12996:	08042023          	sw	zero,128(s0)
   1299a:	bf65                	j	12952 <__sfp+0x50>

000000000001299c <__sfp_lock_acquire>:
   1299c:	8082                	ret

000000000001299e <__sfp_lock_release>:
   1299e:	8082                	ret

00000000000129a0 <__sinit_lock_acquire>:
   129a0:	8082                	ret

00000000000129a2 <__sinit_lock_release>:
   129a2:	8082                	ret

00000000000129a4 <__fp_lock_all>:
   129a4:	8381b503          	ld	a0,-1992(gp) # 1ceb0 <_impure_ptr>
   129a8:	000125b7          	lui	a1,0x12
   129ac:	7e458593          	addi	a1,a1,2020 # 127e4 <__fp_lock>
   129b0:	56a0006f          	j	12f1a <_fwalk>

00000000000129b4 <__fp_unlock_all>:
   129b4:	8381b503          	ld	a0,-1992(gp) # 1ceb0 <_impure_ptr>
   129b8:	000135b7          	lui	a1,0x13
   129bc:	85a58593          	addi	a1,a1,-1958 # 1285a <__fp_unlock>
   129c0:	55a0006f          	j	12f1a <_fwalk>

00000000000129c4 <_malloc_trim_r>:
   129c4:	7139                	addi	sp,sp,-64
   129c6:	f04a                	sd	s2,32(sp)
   129c8:	6971                	lui	s2,0x1c
   129ca:	f822                	sd	s0,48(sp)
   129cc:	f426                	sd	s1,40(sp)
   129ce:	ec4e                	sd	s3,24(sp)
   129d0:	e42e                	sd	a1,8(sp)
   129d2:	fc06                	sd	ra,56(sp)
   129d4:	89aa                	mv	s3,a0
   129d6:	4c090913          	addi	s2,s2,1216 # 1c4c0 <__malloc_av_>
   129da:	b12fe0ef          	jal	ra,10cec <__malloc_lock>
   129de:	01093783          	ld	a5,16(s2)
   129e2:	65a2                	ld	a1,8(sp)
   129e4:	6784                	ld	s1,8(a5)
   129e6:	6785                	lui	a5,0x1
   129e8:	fdf78413          	addi	s0,a5,-33 # fdf <_start-0xf0d1>
   129ec:	98f1                	andi	s1,s1,-4
   129ee:	8c0d                	sub	s0,s0,a1
   129f0:	9426                	add	s0,s0,s1
   129f2:	8031                	srli	s0,s0,0xc
   129f4:	147d                	addi	s0,s0,-1
   129f6:	0432                	slli	s0,s0,0xc
   129f8:	00f45d63          	ble	a5,s0,12a12 <_malloc_trim_r+0x4e>
   129fc:	854e                	mv	a0,s3
   129fe:	af0fe0ef          	jal	ra,10cee <__malloc_unlock>
   12a02:	4501                	li	a0,0
   12a04:	70e2                	ld	ra,56(sp)
   12a06:	7442                	ld	s0,48(sp)
   12a08:	74a2                	ld	s1,40(sp)
   12a0a:	7902                	ld	s2,32(sp)
   12a0c:	69e2                	ld	s3,24(sp)
   12a0e:	6121                	addi	sp,sp,64
   12a10:	8082                	ret
   12a12:	4581                	li	a1,0
   12a14:	854e                	mv	a0,s3
   12a16:	baafe0ef          	jal	ra,10dc0 <_sbrk_r>
   12a1a:	01093783          	ld	a5,16(s2)
   12a1e:	97a6                	add	a5,a5,s1
   12a20:	fcf51ee3          	bne	a0,a5,129fc <_malloc_trim_r+0x38>
   12a24:	408005b3          	neg	a1,s0
   12a28:	854e                	mv	a0,s3
   12a2a:	b96fe0ef          	jal	ra,10dc0 <_sbrk_r>
   12a2e:	57fd                	li	a5,-1
   12a30:	02f51663          	bne	a0,a5,12a5c <_malloc_trim_r+0x98>
   12a34:	4581                	li	a1,0
   12a36:	854e                	mv	a0,s3
   12a38:	b88fe0ef          	jal	ra,10dc0 <_sbrk_r>
   12a3c:	01093703          	ld	a4,16(s2)
   12a40:	46fd                	li	a3,31
   12a42:	40e507b3          	sub	a5,a0,a4
   12a46:	faf6dbe3          	ble	a5,a3,129fc <_malloc_trim_r+0x38>
   12a4a:	8401b683          	ld	a3,-1984(gp) # 1ceb8 <__malloc_sbrk_base>
   12a4e:	0017e793          	ori	a5,a5,1
   12a52:	e71c                	sd	a5,8(a4)
   12a54:	8d15                	sub	a0,a0,a3
   12a56:	8aa1a823          	sw	a0,-1872(gp) # 1cf28 <__malloc_current_mallinfo>
   12a5a:	b74d                	j	129fc <_malloc_trim_r+0x38>
   12a5c:	01093783          	ld	a5,16(s2)
   12a60:	8c81                	sub	s1,s1,s0
   12a62:	0014e493          	ori	s1,s1,1
   12a66:	e784                	sd	s1,8(a5)
   12a68:	8b01a783          	lw	a5,-1872(gp) # 1cf28 <__malloc_current_mallinfo>
   12a6c:	854e                	mv	a0,s3
   12a6e:	4087843b          	subw	s0,a5,s0
   12a72:	8a81a823          	sw	s0,-1872(gp) # 1cf28 <__malloc_current_mallinfo>
   12a76:	a78fe0ef          	jal	ra,10cee <__malloc_unlock>
   12a7a:	4505                	li	a0,1
   12a7c:	b761                	j	12a04 <_malloc_trim_r+0x40>

0000000000012a7e <_free_r>:
   12a7e:	1a058863          	beqz	a1,12c2e <_free_r+0x1b0>
   12a82:	1101                	addi	sp,sp,-32
   12a84:	e822                	sd	s0,16(sp)
   12a86:	e426                	sd	s1,8(sp)
   12a88:	842a                	mv	s0,a0
   12a8a:	84ae                	mv	s1,a1
   12a8c:	ec06                	sd	ra,24(sp)
   12a8e:	a5efe0ef          	jal	ra,10cec <__malloc_lock>
   12a92:	ff84b503          	ld	a0,-8(s1)
   12a96:	6671                	lui	a2,0x1c
   12a98:	ff048693          	addi	a3,s1,-16
   12a9c:	ffe57793          	andi	a5,a0,-2
   12aa0:	4c060813          	addi	a6,a2,1216 # 1c4c0 <__malloc_av_>
   12aa4:	00f685b3          	add	a1,a3,a5
   12aa8:	6598                	ld	a4,8(a1)
   12aaa:	01083803          	ld	a6,16(a6)
   12aae:	4c060613          	addi	a2,a2,1216
   12ab2:	9b71                	andi	a4,a4,-4
   12ab4:	8905                	andi	a0,a0,1
   12ab6:	04b81063          	bne	a6,a1,12af6 <_free_r+0x78>
   12aba:	97ba                	add	a5,a5,a4
   12abc:	e909                	bnez	a0,12ace <_free_r+0x50>
   12abe:	ff04b703          	ld	a4,-16(s1)
   12ac2:	8e99                	sub	a3,a3,a4
   12ac4:	6a8c                	ld	a1,16(a3)
   12ac6:	97ba                	add	a5,a5,a4
   12ac8:	6e98                	ld	a4,24(a3)
   12aca:	ed98                	sd	a4,24(a1)
   12acc:	eb0c                	sd	a1,16(a4)
   12ace:	0017e713          	ori	a4,a5,1
   12ad2:	e698                	sd	a4,8(a3)
   12ad4:	8481b703          	ld	a4,-1976(gp) # 1cec0 <__malloc_trim_threshold>
   12ad8:	ea14                	sd	a3,16(a2)
   12ada:	00e7e763          	bltu	a5,a4,12ae8 <_free_r+0x6a>
   12ade:	8601b583          	ld	a1,-1952(gp) # 1ced8 <__malloc_top_pad>
   12ae2:	8522                	mv	a0,s0
   12ae4:	ee1ff0ef          	jal	ra,129c4 <_malloc_trim_r>
   12ae8:	8522                	mv	a0,s0
   12aea:	6442                	ld	s0,16(sp)
   12aec:	60e2                	ld	ra,24(sp)
   12aee:	64a2                	ld	s1,8(sp)
   12af0:	6105                	addi	sp,sp,32
   12af2:	9fcfe06f          	j	10cee <__malloc_unlock>
   12af6:	e598                	sd	a4,8(a1)
   12af8:	4801                	li	a6,0
   12afa:	e10d                	bnez	a0,12b1c <_free_r+0x9e>
   12afc:	ff04b503          	ld	a0,-16(s1)
   12b00:	68f1                	lui	a7,0x1c
   12b02:	4d088893          	addi	a7,a7,1232 # 1c4d0 <__malloc_av_+0x10>
   12b06:	8e89                	sub	a3,a3,a0
   12b08:	97aa                	add	a5,a5,a0
   12b0a:	6a88                	ld	a0,16(a3)
   12b0c:	07150e63          	beq	a0,a7,12b88 <_free_r+0x10a>
   12b10:	0186b883          	ld	a7,24(a3)
   12b14:	01153c23          	sd	a7,24(a0)
   12b18:	00a8b823          	sd	a0,16(a7)
   12b1c:	00e58533          	add	a0,a1,a4
   12b20:	6508                	ld	a0,8(a0)
   12b22:	8905                	andi	a0,a0,1
   12b24:	ed19                	bnez	a0,12b42 <_free_r+0xc4>
   12b26:	97ba                	add	a5,a5,a4
   12b28:	6998                	ld	a4,16(a1)
   12b2a:	06081163          	bnez	a6,12b8c <_free_r+0x10e>
   12b2e:	6571                	lui	a0,0x1c
   12b30:	4d050513          	addi	a0,a0,1232 # 1c4d0 <__malloc_av_+0x10>
   12b34:	04a71c63          	bne	a4,a0,12b8c <_free_r+0x10e>
   12b38:	f614                	sd	a3,40(a2)
   12b3a:	f214                	sd	a3,32(a2)
   12b3c:	ee98                	sd	a4,24(a3)
   12b3e:	ea98                	sd	a4,16(a3)
   12b40:	4805                	li	a6,1
   12b42:	0017e713          	ori	a4,a5,1
   12b46:	e698                	sd	a4,8(a3)
   12b48:	00f68733          	add	a4,a3,a5
   12b4c:	e31c                	sd	a5,0(a4)
   12b4e:	f8081de3          	bnez	a6,12ae8 <_free_r+0x6a>
   12b52:	1ff00713          	li	a4,511
   12b56:	02f76f63          	bltu	a4,a5,12b94 <_free_r+0x116>
   12b5a:	838d                	srli	a5,a5,0x3
   12b5c:	2781                	sext.w	a5,a5
   12b5e:	4027d59b          	sraiw	a1,a5,0x2
   12b62:	4705                	li	a4,1
   12b64:	00b71733          	sll	a4,a4,a1
   12b68:	2785                	addiw	a5,a5,1
   12b6a:	660c                	ld	a1,8(a2)
   12b6c:	0017979b          	slliw	a5,a5,0x1
   12b70:	078e                	slli	a5,a5,0x3
   12b72:	97b2                	add	a5,a5,a2
   12b74:	8f4d                	or	a4,a4,a1
   12b76:	e618                	sd	a4,8(a2)
   12b78:	6398                	ld	a4,0(a5)
   12b7a:	ff078613          	addi	a2,a5,-16
   12b7e:	ee90                	sd	a2,24(a3)
   12b80:	ea98                	sd	a4,16(a3)
   12b82:	e394                	sd	a3,0(a5)
   12b84:	ef14                	sd	a3,24(a4)
   12b86:	b78d                	j	12ae8 <_free_r+0x6a>
   12b88:	4805                	li	a6,1
   12b8a:	bf49                	j	12b1c <_free_r+0x9e>
   12b8c:	6d8c                	ld	a1,24(a1)
   12b8e:	ef0c                	sd	a1,24(a4)
   12b90:	e998                	sd	a4,16(a1)
   12b92:	bf45                	j	12b42 <_free_r+0xc4>
   12b94:	0097d593          	srli	a1,a5,0x9
   12b98:	4711                	li	a4,4
   12b9a:	02b76e63          	bltu	a4,a1,12bd6 <_free_r+0x158>
   12b9e:	0067d713          	srli	a4,a5,0x6
   12ba2:	0387071b          	addiw	a4,a4,56
   12ba6:	0017059b          	addiw	a1,a4,1
   12baa:	0015959b          	slliw	a1,a1,0x1
   12bae:	058e                	slli	a1,a1,0x3
   12bb0:	95b2                	add	a1,a1,a2
   12bb2:	ff058513          	addi	a0,a1,-16
   12bb6:	618c                	ld	a1,0(a1)
   12bb8:	06b51563          	bne	a0,a1,12c22 <_free_r+0x1a4>
   12bbc:	4785                	li	a5,1
   12bbe:	4027571b          	sraiw	a4,a4,0x2
   12bc2:	00e79733          	sll	a4,a5,a4
   12bc6:	661c                	ld	a5,8(a2)
   12bc8:	8f5d                	or	a4,a4,a5
   12bca:	e618                	sd	a4,8(a2)
   12bcc:	ee88                	sd	a0,24(a3)
   12bce:	ea8c                	sd	a1,16(a3)
   12bd0:	e914                	sd	a3,16(a0)
   12bd2:	ed94                	sd	a3,24(a1)
   12bd4:	bf11                	j	12ae8 <_free_r+0x6a>
   12bd6:	4751                	li	a4,20
   12bd8:	00b76563          	bltu	a4,a1,12be2 <_free_r+0x164>
   12bdc:	05b5871b          	addiw	a4,a1,91
   12be0:	b7d9                	j	12ba6 <_free_r+0x128>
   12be2:	05400713          	li	a4,84
   12be6:	00b76763          	bltu	a4,a1,12bf4 <_free_r+0x176>
   12bea:	00c7d713          	srli	a4,a5,0xc
   12bee:	06e7071b          	addiw	a4,a4,110
   12bf2:	bf55                	j	12ba6 <_free_r+0x128>
   12bf4:	15400713          	li	a4,340
   12bf8:	00b76763          	bltu	a4,a1,12c06 <_free_r+0x188>
   12bfc:	00f7d713          	srli	a4,a5,0xf
   12c00:	0777071b          	addiw	a4,a4,119
   12c04:	b74d                	j	12ba6 <_free_r+0x128>
   12c06:	55400513          	li	a0,1364
   12c0a:	07e00713          	li	a4,126
   12c0e:	f8b56ce3          	bltu	a0,a1,12ba6 <_free_r+0x128>
   12c12:	0127d713          	srli	a4,a5,0x12
   12c16:	07c7071b          	addiw	a4,a4,124
   12c1a:	b771                	j	12ba6 <_free_r+0x128>
   12c1c:	698c                	ld	a1,16(a1)
   12c1e:	00b50663          	beq	a0,a1,12c2a <_free_r+0x1ac>
   12c22:	6598                	ld	a4,8(a1)
   12c24:	9b71                	andi	a4,a4,-4
   12c26:	fee7ebe3          	bltu	a5,a4,12c1c <_free_r+0x19e>
   12c2a:	6d88                	ld	a0,24(a1)
   12c2c:	b745                	j	12bcc <_free_r+0x14e>
   12c2e:	8082                	ret

0000000000012c30 <__sfvwrite_r>:
   12c30:	6a1c                	ld	a5,16(a2)
   12c32:	e781                	bnez	a5,12c3a <__sfvwrite_r+0xa>
   12c34:	4781                	li	a5,0
   12c36:	853e                	mv	a0,a5
   12c38:	8082                	ret
   12c3a:	0105d783          	lhu	a5,16(a1)
   12c3e:	7119                	addi	sp,sp,-128
   12c40:	f8a2                	sd	s0,112(sp)
   12c42:	f0ca                	sd	s2,96(sp)
   12c44:	e8d2                	sd	s4,80(sp)
   12c46:	fc86                	sd	ra,120(sp)
   12c48:	f4a6                	sd	s1,104(sp)
   12c4a:	ecce                	sd	s3,88(sp)
   12c4c:	e4d6                	sd	s5,72(sp)
   12c4e:	e0da                	sd	s6,64(sp)
   12c50:	fc5e                	sd	s7,56(sp)
   12c52:	f862                	sd	s8,48(sp)
   12c54:	f466                	sd	s9,40(sp)
   12c56:	f06a                	sd	s10,32(sp)
   12c58:	ec6e                	sd	s11,24(sp)
   12c5a:	8ba1                	andi	a5,a5,8
   12c5c:	8a32                	mv	s4,a2
   12c5e:	842e                	mv	s0,a1
   12c60:	892a                	mv	s2,a0
   12c62:	cfd1                	beqz	a5,12cfe <__sfvwrite_r+0xce>
   12c64:	6d9c                	ld	a5,24(a1)
   12c66:	cfc1                	beqz	a5,12cfe <__sfvwrite_r+0xce>
   12c68:	01045783          	lhu	a5,16(s0)
   12c6c:	000a3983          	ld	s3,0(s4)
   12c70:	0027f713          	andi	a4,a5,2
   12c74:	0e071863          	bnez	a4,12d64 <__sfvwrite_r+0x134>
   12c78:	8b85                	andi	a5,a5,1
   12c7a:	4a81                	li	s5,0
   12c7c:	16078463          	beqz	a5,12de4 <__sfvwrite_r+0x1b4>
   12c80:	4501                	li	a0,0
   12c82:	4b81                	li	s7,0
   12c84:	4b01                	li	s6,0
   12c86:	240b0863          	beqz	s6,12ed6 <__sfvwrite_r+0x2a6>
   12c8a:	e919                	bnez	a0,12ca0 <__sfvwrite_r+0x70>
   12c8c:	865a                	mv	a2,s6
   12c8e:	45a9                	li	a1,10
   12c90:	855e                	mv	a0,s7
   12c92:	47f010ef          	jal	ra,14910 <memchr>
   12c96:	24050763          	beqz	a0,12ee4 <__sfvwrite_r+0x2b4>
   12c9a:	0505                	addi	a0,a0,1
   12c9c:	41750abb          	subw	s5,a0,s7
   12ca0:	8c56                	mv	s8,s5
   12ca2:	015b7363          	bleu	s5,s6,12ca8 <__sfvwrite_r+0x78>
   12ca6:	8c5a                	mv	s8,s6
   12ca8:	6008                	ld	a0,0(s0)
   12caa:	6c1c                	ld	a5,24(s0)
   12cac:	5014                	lw	a3,32(s0)
   12cae:	22a7fe63          	bleu	a0,a5,12eea <__sfvwrite_r+0x2ba>
   12cb2:	4444                	lw	s1,12(s0)
   12cb4:	9cb5                	addw	s1,s1,a3
   12cb6:	2384da63          	ble	s8,s1,12eea <__sfvwrite_r+0x2ba>
   12cba:	85de                	mv	a1,s7
   12cbc:	8626                	mv	a2,s1
   12cbe:	46d010ef          	jal	ra,1492a <memmove>
   12cc2:	601c                	ld	a5,0(s0)
   12cc4:	85a2                	mv	a1,s0
   12cc6:	854a                	mv	a0,s2
   12cc8:	97a6                	add	a5,a5,s1
   12cca:	e01c                	sd	a5,0(s0)
   12ccc:	acbff0ef          	jal	ra,12796 <_fflush_r>
   12cd0:	10051263          	bnez	a0,12dd4 <__sfvwrite_r+0x1a4>
   12cd4:	409a8abb          	subw	s5,s5,s1
   12cd8:	4505                	li	a0,1
   12cda:	000a9763          	bnez	s5,12ce8 <__sfvwrite_r+0xb8>
   12cde:	85a2                	mv	a1,s0
   12ce0:	854a                	mv	a0,s2
   12ce2:	ab5ff0ef          	jal	ra,12796 <_fflush_r>
   12ce6:	e57d                	bnez	a0,12dd4 <__sfvwrite_r+0x1a4>
   12ce8:	010a3783          	ld	a5,16(s4)
   12cec:	9ba6                	add	s7,s7,s1
   12cee:	409b0b33          	sub	s6,s6,s1
   12cf2:	409784b3          	sub	s1,a5,s1
   12cf6:	009a3823          	sd	s1,16(s4)
   12cfa:	f4d1                	bnez	s1,12c86 <__sfvwrite_r+0x56>
   12cfc:	a099                	j	12d42 <__sfvwrite_r+0x112>
   12cfe:	85a2                	mv	a1,s0
   12d00:	854a                	mv	a0,s2
   12d02:	f46ff0ef          	jal	ra,12448 <__swsetup_r>
   12d06:	57fd                	li	a5,-1
   12d08:	d125                	beqz	a0,12c68 <__sfvwrite_r+0x38>
   12d0a:	a82d                	j	12d44 <__sfvwrite_r+0x114>
   12d0c:	0009ba83          	ld	s5,0(s3)
   12d10:	0089b483          	ld	s1,8(s3)
   12d14:	09c1                	addi	s3,s3,16
   12d16:	d8fd                	beqz	s1,12d0c <__sfvwrite_r+0xdc>
   12d18:	86a6                	mv	a3,s1
   12d1a:	009b7363          	bleu	s1,s6,12d20 <__sfvwrite_r+0xf0>
   12d1e:	86da                	mv	a3,s6
   12d20:	603c                	ld	a5,64(s0)
   12d22:	780c                	ld	a1,48(s0)
   12d24:	2681                	sext.w	a3,a3
   12d26:	8656                	mv	a2,s5
   12d28:	854a                	mv	a0,s2
   12d2a:	9782                	jalr	a5
   12d2c:	0aa05463          	blez	a0,12dd4 <__sfvwrite_r+0x1a4>
   12d30:	010a3783          	ld	a5,16(s4)
   12d34:	9aaa                	add	s5,s5,a0
   12d36:	8c89                	sub	s1,s1,a0
   12d38:	40a78533          	sub	a0,a5,a0
   12d3c:	00aa3823          	sd	a0,16(s4)
   12d40:	f979                	bnez	a0,12d16 <__sfvwrite_r+0xe6>
   12d42:	4781                	li	a5,0
   12d44:	70e6                	ld	ra,120(sp)
   12d46:	7446                	ld	s0,112(sp)
   12d48:	74a6                	ld	s1,104(sp)
   12d4a:	7906                	ld	s2,96(sp)
   12d4c:	69e6                	ld	s3,88(sp)
   12d4e:	6a46                	ld	s4,80(sp)
   12d50:	6aa6                	ld	s5,72(sp)
   12d52:	6b06                	ld	s6,64(sp)
   12d54:	7be2                	ld	s7,56(sp)
   12d56:	7c42                	ld	s8,48(sp)
   12d58:	7ca2                	ld	s9,40(sp)
   12d5a:	7d02                	ld	s10,32(sp)
   12d5c:	6de2                	ld	s11,24(sp)
   12d5e:	853e                	mv	a0,a5
   12d60:	6109                	addi	sp,sp,128
   12d62:	8082                	ret
   12d64:	80000b37          	lui	s6,0x80000
   12d68:	4a81                	li	s5,0
   12d6a:	4481                	li	s1,0
   12d6c:	c00b4b13          	xori	s6,s6,-1024
   12d70:	b75d                	j	12d16 <__sfvwrite_r+0xe6>
   12d72:	0009ba83          	ld	s5,0(s3)
   12d76:	0089bd03          	ld	s10,8(s3)
   12d7a:	09c1                	addi	s3,s3,16
   12d7c:	4444                	lw	s1,12(s0)
   12d7e:	87a6                	mv	a5,s1
   12d80:	fe0d09e3          	beqz	s10,12d72 <__sfvwrite_r+0x142>
   12d84:	01045703          	lhu	a4,16(s0)
   12d88:	6008                	ld	a0,0(s0)
   12d8a:	20077693          	andi	a3,a4,512
   12d8e:	0e068863          	beqz	a3,12e7e <__sfvwrite_r+0x24e>
   12d92:	089d6963          	bltu	s10,s1,12e24 <__sfvwrite_r+0x1f4>
   12d96:	48077693          	andi	a3,a4,1152
   12d9a:	c6c9                	beqz	a3,12e24 <__sfvwrite_r+0x1f4>
   12d9c:	5004                	lw	s1,32(s0)
   12d9e:	6c0c                	ld	a1,24(s0)
   12da0:	029c04bb          	mulw	s1,s8,s1
   12da4:	8d0d                	sub	a0,a0,a1
   12da6:	00050d9b          	sext.w	s11,a0
   12daa:	001d8793          	addi	a5,s11,1
   12dae:	97ea                	add	a5,a5,s10
   12db0:	0394c4bb          	divw	s1,s1,s9
   12db4:	00f4f563          	bleu	a5,s1,12dbe <__sfvwrite_r+0x18e>
   12db8:	2505                	addiw	a0,a0,1
   12dba:	01a504bb          	addw	s1,a0,s10
   12dbe:	40077713          	andi	a4,a4,1024
   12dc2:	cf49                	beqz	a4,12e5c <__sfvwrite_r+0x22c>
   12dc4:	85a6                	mv	a1,s1
   12dc6:	854a                	mv	a0,s2
   12dc8:	8ddfd0ef          	jal	ra,106a4 <_malloc_r>
   12dcc:	e515                	bnez	a0,12df8 <__sfvwrite_r+0x1c8>
   12dce:	47b1                	li	a5,12
   12dd0:	00f92023          	sw	a5,0(s2)
   12dd4:	01045783          	lhu	a5,16(s0)
   12dd8:	0407e793          	ori	a5,a5,64
   12ddc:	00f41823          	sh	a5,16(s0)
   12de0:	57fd                	li	a5,-1
   12de2:	b78d                	j	12d44 <__sfvwrite_r+0x114>
   12de4:	80000b37          	lui	s6,0x80000
   12de8:	ffeb4b93          	xori	s7,s6,-2
   12dec:	4d01                	li	s10,0
   12dee:	fffb4b13          	not	s6,s6
   12df2:	4c0d                	li	s8,3
   12df4:	4c89                	li	s9,2
   12df6:	b759                	j	12d7c <__sfvwrite_r+0x14c>
   12df8:	6c0c                	ld	a1,24(s0)
   12dfa:	866e                	mv	a2,s11
   12dfc:	e42a                	sd	a0,8(sp)
   12dfe:	d87fd0ef          	jal	ra,10b84 <memcpy>
   12e02:	01045703          	lhu	a4,16(s0)
   12e06:	67a2                	ld	a5,8(sp)
   12e08:	b7f77713          	andi	a4,a4,-1153
   12e0c:	08076713          	ori	a4,a4,128
   12e10:	00e41823          	sh	a4,16(s0)
   12e14:	ec1c                	sd	a5,24(s0)
   12e16:	d004                	sw	s1,32(s0)
   12e18:	97ee                	add	a5,a5,s11
   12e1a:	41b484bb          	subw	s1,s1,s11
   12e1e:	e01c                	sd	a5,0(s0)
   12e20:	c444                	sw	s1,12(s0)
   12e22:	87ea                	mv	a5,s10
   12e24:	84ea                	mv	s1,s10
   12e26:	00fd7363          	bleu	a5,s10,12e2c <__sfvwrite_r+0x1fc>
   12e2a:	87ea                	mv	a5,s10
   12e2c:	6008                	ld	a0,0(s0)
   12e2e:	863e                	mv	a2,a5
   12e30:	85d6                	mv	a1,s5
   12e32:	e43e                	sd	a5,8(sp)
   12e34:	2f7010ef          	jal	ra,1492a <memmove>
   12e38:	4458                	lw	a4,12(s0)
   12e3a:	67a2                	ld	a5,8(sp)
   12e3c:	9f1d                	subw	a4,a4,a5
   12e3e:	c458                	sw	a4,12(s0)
   12e40:	6018                	ld	a4,0(s0)
   12e42:	97ba                	add	a5,a5,a4
   12e44:	e01c                	sd	a5,0(s0)
   12e46:	010a3783          	ld	a5,16(s4)
   12e4a:	9aa6                	add	s5,s5,s1
   12e4c:	409d0d33          	sub	s10,s10,s1
   12e50:	409784b3          	sub	s1,a5,s1
   12e54:	009a3823          	sd	s1,16(s4)
   12e58:	f095                	bnez	s1,12d7c <__sfvwrite_r+0x14c>
   12e5a:	b5e5                	j	12d42 <__sfvwrite_r+0x112>
   12e5c:	8626                	mv	a2,s1
   12e5e:	854a                	mv	a0,s2
   12e60:	522020ef          	jal	ra,15382 <_realloc_r>
   12e64:	87aa                	mv	a5,a0
   12e66:	f55d                	bnez	a0,12e14 <__sfvwrite_r+0x1e4>
   12e68:	6c0c                	ld	a1,24(s0)
   12e6a:	854a                	mv	a0,s2
   12e6c:	c13ff0ef          	jal	ra,12a7e <_free_r>
   12e70:	01045783          	lhu	a5,16(s0)
   12e74:	f7f7f793          	andi	a5,a5,-129
   12e78:	00f41823          	sh	a5,16(s0)
   12e7c:	bf89                	j	12dce <__sfvwrite_r+0x19e>
   12e7e:	6c1c                	ld	a5,24(s0)
   12e80:	00a7e563          	bltu	a5,a0,12e8a <__sfvwrite_r+0x25a>
   12e84:	5014                	lw	a3,32(s0)
   12e86:	02dd7763          	bleu	a3,s10,12eb4 <__sfvwrite_r+0x284>
   12e8a:	009d7363          	bleu	s1,s10,12e90 <__sfvwrite_r+0x260>
   12e8e:	84ea                	mv	s1,s10
   12e90:	8626                	mv	a2,s1
   12e92:	85d6                	mv	a1,s5
   12e94:	297010ef          	jal	ra,1492a <memmove>
   12e98:	445c                	lw	a5,12(s0)
   12e9a:	4097873b          	subw	a4,a5,s1
   12e9e:	601c                	ld	a5,0(s0)
   12ea0:	c458                	sw	a4,12(s0)
   12ea2:	97a6                	add	a5,a5,s1
   12ea4:	e01c                	sd	a5,0(s0)
   12ea6:	f345                	bnez	a4,12e46 <__sfvwrite_r+0x216>
   12ea8:	85a2                	mv	a1,s0
   12eaa:	854a                	mv	a0,s2
   12eac:	8ebff0ef          	jal	ra,12796 <_fflush_r>
   12eb0:	d959                	beqz	a0,12e46 <__sfvwrite_r+0x216>
   12eb2:	b70d                	j	12dd4 <__sfvwrite_r+0x1a4>
   12eb4:	87da                	mv	a5,s6
   12eb6:	01abe363          	bltu	s7,s10,12ebc <__sfvwrite_r+0x28c>
   12eba:	87ea                	mv	a5,s10
   12ebc:	02d7c7bb          	divw	a5,a5,a3
   12ec0:	6038                	ld	a4,64(s0)
   12ec2:	780c                	ld	a1,48(s0)
   12ec4:	8656                	mv	a2,s5
   12ec6:	854a                	mv	a0,s2
   12ec8:	02d786bb          	mulw	a3,a5,a3
   12ecc:	9702                	jalr	a4
   12ece:	84aa                	mv	s1,a0
   12ed0:	f6a04be3          	bgtz	a0,12e46 <__sfvwrite_r+0x216>
   12ed4:	b701                	j	12dd4 <__sfvwrite_r+0x1a4>
   12ed6:	0009bb83          	ld	s7,0(s3)
   12eda:	0089bb03          	ld	s6,8(s3)
   12ede:	4501                	li	a0,0
   12ee0:	09c1                	addi	s3,s3,16
   12ee2:	b355                	j	12c86 <__sfvwrite_r+0x56>
   12ee4:	001b0a9b          	addiw	s5,s6,1
   12ee8:	bb65                	j	12ca0 <__sfvwrite_r+0x70>
   12eea:	00dc4b63          	blt	s8,a3,12f00 <__sfvwrite_r+0x2d0>
   12eee:	603c                	ld	a5,64(s0)
   12ef0:	780c                	ld	a1,48(s0)
   12ef2:	865e                	mv	a2,s7
   12ef4:	854a                	mv	a0,s2
   12ef6:	9782                	jalr	a5
   12ef8:	84aa                	mv	s1,a0
   12efa:	dca04de3          	bgtz	a0,12cd4 <__sfvwrite_r+0xa4>
   12efe:	bdd9                	j	12dd4 <__sfvwrite_r+0x1a4>
   12f00:	8662                	mv	a2,s8
   12f02:	85de                	mv	a1,s7
   12f04:	227010ef          	jal	ra,1492a <memmove>
   12f08:	445c                	lw	a5,12(s0)
   12f0a:	84e2                	mv	s1,s8
   12f0c:	418787bb          	subw	a5,a5,s8
   12f10:	c45c                	sw	a5,12(s0)
   12f12:	601c                	ld	a5,0(s0)
   12f14:	97e2                	add	a5,a5,s8
   12f16:	e01c                	sd	a5,0(s0)
   12f18:	bb75                	j	12cd4 <__sfvwrite_r+0xa4>

0000000000012f1a <_fwalk>:
   12f1a:	715d                	addi	sp,sp,-80
   12f1c:	e0a2                	sd	s0,64(sp)
   12f1e:	fc26                	sd	s1,56(sp)
   12f20:	f052                	sd	s4,32(sp)
   12f22:	ec56                	sd	s5,24(sp)
   12f24:	e486                	sd	ra,72(sp)
   12f26:	f84a                	sd	s2,48(sp)
   12f28:	f44e                	sd	s3,40(sp)
   12f2a:	52050493          	addi	s1,a0,1312
   12f2e:	4401                	li	s0,0
   12f30:	4a05                	li	s4,1
   12f32:	5afd                	li	s5,-1
   12f34:	e899                	bnez	s1,12f4a <_fwalk+0x30>
   12f36:	8522                	mv	a0,s0
   12f38:	60a6                	ld	ra,72(sp)
   12f3a:	6406                	ld	s0,64(sp)
   12f3c:	74e2                	ld	s1,56(sp)
   12f3e:	7942                	ld	s2,48(sp)
   12f40:	79a2                	ld	s3,40(sp)
   12f42:	7a02                	ld	s4,32(sp)
   12f44:	6ae2                	ld	s5,24(sp)
   12f46:	6161                	addi	sp,sp,80
   12f48:	8082                	ret
   12f4a:	0104b903          	ld	s2,16(s1)
   12f4e:	0084a983          	lw	s3,8(s1)
   12f52:	39fd                	addiw	s3,s3,-1
   12f54:	0009d463          	bgez	s3,12f5c <_fwalk+0x42>
   12f58:	6084                	ld	s1,0(s1)
   12f5a:	bfe9                	j	12f34 <_fwalk+0x1a>
   12f5c:	01095783          	lhu	a5,16(s2)
   12f60:	00fa7c63          	bleu	a5,s4,12f78 <_fwalk+0x5e>
   12f64:	01291783          	lh	a5,18(s2)
   12f68:	01578863          	beq	a5,s5,12f78 <_fwalk+0x5e>
   12f6c:	854a                	mv	a0,s2
   12f6e:	e42e                	sd	a1,8(sp)
   12f70:	9582                	jalr	a1
   12f72:	65a2                	ld	a1,8(sp)
   12f74:	8c49                	or	s0,s0,a0
   12f76:	2401                	sext.w	s0,s0
   12f78:	0b090913          	addi	s2,s2,176
   12f7c:	bfd9                	j	12f52 <_fwalk+0x38>

0000000000012f7e <_fwalk_reent>:
   12f7e:	715d                	addi	sp,sp,-80
   12f80:	e0a2                	sd	s0,64(sp)
   12f82:	fc26                	sd	s1,56(sp)
   12f84:	f052                	sd	s4,32(sp)
   12f86:	ec56                	sd	s5,24(sp)
   12f88:	e85a                	sd	s6,16(sp)
   12f8a:	e45e                	sd	s7,8(sp)
   12f8c:	e486                	sd	ra,72(sp)
   12f8e:	f84a                	sd	s2,48(sp)
   12f90:	f44e                	sd	s3,40(sp)
   12f92:	8a2a                	mv	s4,a0
   12f94:	8aae                	mv	s5,a1
   12f96:	52050493          	addi	s1,a0,1312
   12f9a:	4401                	li	s0,0
   12f9c:	4b05                	li	s6,1
   12f9e:	5bfd                	li	s7,-1
   12fa0:	ec89                	bnez	s1,12fba <_fwalk_reent+0x3c>
   12fa2:	8522                	mv	a0,s0
   12fa4:	60a6                	ld	ra,72(sp)
   12fa6:	6406                	ld	s0,64(sp)
   12fa8:	74e2                	ld	s1,56(sp)
   12faa:	7942                	ld	s2,48(sp)
   12fac:	79a2                	ld	s3,40(sp)
   12fae:	7a02                	ld	s4,32(sp)
   12fb0:	6ae2                	ld	s5,24(sp)
   12fb2:	6b42                	ld	s6,16(sp)
   12fb4:	6ba2                	ld	s7,8(sp)
   12fb6:	6161                	addi	sp,sp,80
   12fb8:	8082                	ret
   12fba:	0104b903          	ld	s2,16(s1)
   12fbe:	0084a983          	lw	s3,8(s1)
   12fc2:	39fd                	addiw	s3,s3,-1
   12fc4:	0009d463          	bgez	s3,12fcc <_fwalk_reent+0x4e>
   12fc8:	6084                	ld	s1,0(s1)
   12fca:	bfd9                	j	12fa0 <_fwalk_reent+0x22>
   12fcc:	01095783          	lhu	a5,16(s2)
   12fd0:	00fb7b63          	bleu	a5,s6,12fe6 <_fwalk_reent+0x68>
   12fd4:	01291783          	lh	a5,18(s2)
   12fd8:	01778763          	beq	a5,s7,12fe6 <_fwalk_reent+0x68>
   12fdc:	85ca                	mv	a1,s2
   12fde:	8552                	mv	a0,s4
   12fe0:	9a82                	jalr	s5
   12fe2:	8c49                	or	s0,s0,a0
   12fe4:	2401                	sext.w	s0,s0
   12fe6:	0b090913          	addi	s2,s2,176
   12fea:	bfe1                	j	12fc2 <_fwalk_reent+0x44>

0000000000012fec <eclear>:
   12fec:	01450793          	addi	a5,a0,20
   12ff0:	0509                	addi	a0,a0,2
   12ff2:	fe051f23          	sh	zero,-2(a0)
   12ff6:	fef51de3          	bne	a0,a5,12ff0 <eclear+0x4>
   12ffa:	8082                	ret

0000000000012ffc <emov>:
   12ffc:	01450793          	addi	a5,a0,20
   13000:	0509                	addi	a0,a0,2
   13002:	ffe55703          	lhu	a4,-2(a0)
   13006:	0589                	addi	a1,a1,2
   13008:	fee59f23          	sh	a4,-2(a1)
   1300c:	fea79ae3          	bne	a5,a0,13000 <emov+0x4>
   13010:	8082                	ret

0000000000013012 <ecleaz>:
   13012:	01a50793          	addi	a5,a0,26
   13016:	0509                	addi	a0,a0,2
   13018:	fe051f23          	sh	zero,-2(a0)
   1301c:	fef51de3          	bne	a0,a5,13016 <ecleaz+0x4>
   13020:	8082                	ret

0000000000013022 <emovz>:
   13022:	01850713          	addi	a4,a0,24
   13026:	87ae                	mv	a5,a1
   13028:	0509                	addi	a0,a0,2
   1302a:	ffe55683          	lhu	a3,-2(a0)
   1302e:	0789                	addi	a5,a5,2
   13030:	fed79f23          	sh	a3,-2(a5)
   13034:	fea71ae3          	bne	a4,a0,13028 <emovz+0x6>
   13038:	00059c23          	sh	zero,24(a1)
   1303c:	8082                	ret

000000000001303e <ecmpm>:
   1303e:	00450793          	addi	a5,a0,4
   13042:	0591                	addi	a1,a1,4
   13044:	0569                	addi	a0,a0,26
   13046:	0789                	addi	a5,a5,2
   13048:	0589                	addi	a1,a1,2
   1304a:	ffe7d683          	lhu	a3,-2(a5)
   1304e:	ffe5d703          	lhu	a4,-2(a1)
   13052:	00e69663          	bne	a3,a4,1305e <ecmpm+0x20>
   13056:	fef518e3          	bne	a0,a5,13046 <ecmpm+0x8>
   1305a:	4501                	li	a0,0
   1305c:	8082                	ret
   1305e:	4505                	li	a0,1
   13060:	00d76363          	bltu	a4,a3,13066 <ecmpm+0x28>
   13064:	557d                	li	a0,-1
   13066:	8082                	ret

0000000000013068 <eshdn1>:
   13068:	00450693          	addi	a3,a0,4
   1306c:	4781                	li	a5,0
   1306e:	0569                	addi	a0,a0,26
   13070:	7661                	lui	a2,0xffff8
   13072:	0006d703          	lhu	a4,0(a3)
   13076:	00177593          	andi	a1,a4,1
   1307a:	c199                	beqz	a1,13080 <eshdn1+0x18>
   1307c:	0017e793          	ori	a5,a5,1
   13080:	0027f593          	andi	a1,a5,2
   13084:	8305                	srli	a4,a4,0x1
   13086:	e999                	bnez	a1,1309c <eshdn1+0x34>
   13088:	0017979b          	slliw	a5,a5,0x1
   1308c:	00e69023          	sh	a4,0(a3)
   13090:	17c2                	slli	a5,a5,0x30
   13092:	0689                	addi	a3,a3,2
   13094:	93c1                	srli	a5,a5,0x30
   13096:	fcd51ee3          	bne	a0,a3,13072 <eshdn1+0xa>
   1309a:	8082                	ret
   1309c:	8f51                	or	a4,a4,a2
   1309e:	b7ed                	j	13088 <eshdn1+0x20>

00000000000130a0 <eshup1>:
   130a0:	01650693          	addi	a3,a0,22
   130a4:	4701                	li	a4,0
   130a6:	0026d783          	lhu	a5,2(a3)
   130aa:	0107961b          	slliw	a2,a5,0x10
   130ae:	4106561b          	sraiw	a2,a2,0x10
   130b2:	02061593          	slli	a1,a2,0x20
   130b6:	0005d463          	bgez	a1,130be <eshup1+0x1e>
   130ba:	00176713          	ori	a4,a4,1
   130be:	0017979b          	slliw	a5,a5,0x1
   130c2:	17c2                	slli	a5,a5,0x30
   130c4:	00277613          	andi	a2,a4,2
   130c8:	93c1                	srli	a5,a5,0x30
   130ca:	ea19                	bnez	a2,130e0 <eshup1+0x40>
   130cc:	0017171b          	slliw	a4,a4,0x1
   130d0:	00f69123          	sh	a5,2(a3)
   130d4:	1742                	slli	a4,a4,0x30
   130d6:	16f9                	addi	a3,a3,-2
   130d8:	9341                	srli	a4,a4,0x30
   130da:	fcd516e3          	bne	a0,a3,130a6 <eshup1+0x6>
   130de:	8082                	ret
   130e0:	0017e793          	ori	a5,a5,1
   130e4:	b7e5                	j	130cc <eshup1+0x2c>

00000000000130e6 <eshdn8>:
   130e6:	00450793          	addi	a5,a0,4
   130ea:	4701                	li	a4,0
   130ec:	0569                	addi	a0,a0,26
   130ee:	0007d683          	lhu	a3,0(a5)
   130f2:	0789                	addi	a5,a5,2
   130f4:	0086d61b          	srliw	a2,a3,0x8
   130f8:	8f51                	or	a4,a4,a2
   130fa:	fee79f23          	sh	a4,-2(a5)
   130fe:	0086971b          	slliw	a4,a3,0x8
   13102:	1742                	slli	a4,a4,0x30
   13104:	9341                	srli	a4,a4,0x30
   13106:	fef514e3          	bne	a0,a5,130ee <eshdn8+0x8>
   1310a:	8082                	ret

000000000001310c <eshup8>:
   1310c:	01650793          	addi	a5,a0,22
   13110:	4701                	li	a4,0
   13112:	0027d683          	lhu	a3,2(a5)
   13116:	17f9                	addi	a5,a5,-2
   13118:	00869613          	slli	a2,a3,0x8
   1311c:	8f51                	or	a4,a4,a2
   1311e:	00e79223          	sh	a4,4(a5)
   13122:	0086d713          	srli	a4,a3,0x8
   13126:	fef516e3          	bne	a0,a5,13112 <eshup8+0x6>
   1312a:	8082                	ret

000000000001312c <eshup6>:
   1312c:	00450793          	addi	a5,a0,4
   13130:	01850713          	addi	a4,a0,24
   13134:	0789                	addi	a5,a5,2
   13136:	0007d683          	lhu	a3,0(a5)
   1313a:	fed79f23          	sh	a3,-2(a5)
   1313e:	fef71be3          	bne	a4,a5,13134 <eshup6+0x8>
   13142:	00051c23          	sh	zero,24(a0)
   13146:	8082                	ret

0000000000013148 <eshdn6>:
   13148:	01850793          	addi	a5,a0,24
   1314c:	01a50713          	addi	a4,a0,26
   13150:	00450693          	addi	a3,a0,4
   13154:	17f9                	addi	a5,a5,-2
   13156:	0007d603          	lhu	a2,0(a5)
   1315a:	1779                	addi	a4,a4,-2
   1315c:	00c71023          	sh	a2,0(a4) # 20400000 <__global_pointer$+0x203e2988>
   13160:	fef69ae3          	bne	a3,a5,13154 <eshdn6+0xc>
   13164:	00051223          	sh	zero,4(a0)
   13168:	8082                	ret

000000000001316a <eaddm>:
   1316a:	05e1                	addi	a1,a1,24
   1316c:	01650713          	addi	a4,a0,22
   13170:	4681                	li	a3,0
   13172:	0005d783          	lhu	a5,0(a1)
   13176:	1779                	addi	a4,a4,-2
   13178:	15f9                	addi	a1,a1,-2
   1317a:	97b6                	add	a5,a5,a3
   1317c:	00475683          	lhu	a3,4(a4)
   13180:	97b6                	add	a5,a5,a3
   13182:	00f59123          	sh	a5,2(a1)
   13186:	83c1                	srli	a5,a5,0x10
   13188:	0017f693          	andi	a3,a5,1
   1318c:	fee513e3          	bne	a0,a4,13172 <eaddm+0x8>
   13190:	8082                	ret

0000000000013192 <esubm>:
   13192:	05e1                	addi	a1,a1,24
   13194:	01650713          	addi	a4,a0,22
   13198:	4681                	li	a3,0
   1319a:	0005d783          	lhu	a5,0(a1)
   1319e:	00275603          	lhu	a2,2(a4)
   131a2:	1779                	addi	a4,a4,-2
   131a4:	15f9                	addi	a1,a1,-2
   131a6:	8f91                	sub	a5,a5,a2
   131a8:	8f95                	sub	a5,a5,a3
   131aa:	00f59123          	sh	a5,2(a1)
   131ae:	83c1                	srli	a5,a5,0x10
   131b0:	0017f693          	andi	a3,a5,1
   131b4:	fee513e3          	bne	a0,a4,1319a <esubm+0x8>
   131b8:	8082                	ret

00000000000131ba <m16m>:
   131ba:	1101                	addi	sp,sp,-32
   131bc:	6341                	lui	t1,0x10
   131be:	01858893          	addi	a7,a1,24
   131c2:	00011b23          	sh	zero,22(sp)
   131c6:	00011c23          	sh	zero,24(sp)
   131ca:	0591                	addi	a1,a1,4
   131cc:	0834                	addi	a3,sp,24
   131ce:	137d                	addi	t1,t1,-1
   131d0:	0008d703          	lhu	a4,0(a7)
   131d4:	16f9                	addi	a3,a3,-2
   131d6:	18f9                	addi	a7,a7,-2
   131d8:	e705                	bnez	a4,13200 <m16m+0x46>
   131da:	fe069f23          	sh	zero,-2(a3)
   131de:	ff1599e3          	bne	a1,a7,131d0 <m16m+0x16>
   131e2:	4791                	li	a5,4
   131e4:	4769                	li	a4,26
   131e6:	00f105b3          	add	a1,sp,a5
   131ea:	0005d583          	lhu	a1,0(a1)
   131ee:	00f606b3          	add	a3,a2,a5
   131f2:	0789                	addi	a5,a5,2
   131f4:	00b69023          	sh	a1,0(a3)
   131f8:	fee797e3          	bne	a5,a4,131e6 <m16m+0x2c>
   131fc:	6105                	addi	sp,sp,32
   131fe:	8082                	ret
   13200:	02a70733          	mul	a4,a4,a0
   13204:	0026d803          	lhu	a6,2(a3)
   13208:	006777b3          	and	a5,a4,t1
   1320c:	97c2                	add	a5,a5,a6
   1320e:	0107d813          	srli	a6,a5,0x10
   13212:	00f69123          	sh	a5,2(a3)
   13216:	01075793          	srli	a5,a4,0x10
   1321a:	0006d703          	lhu	a4,0(a3)
   1321e:	97ba                	add	a5,a5,a4
   13220:	97c2                	add	a5,a5,a6
   13222:	00f69023          	sh	a5,0(a3)
   13226:	83c1                	srli	a5,a5,0x10
   13228:	fef69f23          	sh	a5,-2(a3)
   1322c:	bf4d                	j	131de <m16m+0x24>

000000000001322e <eisnan>:
   1322e:	01255783          	lhu	a5,18(a0)
   13232:	fff7c793          	not	a5,a5
   13236:	03179713          	slli	a4,a5,0x31
   1323a:	eb09                	bnez	a4,1324c <eisnan+0x1e>
   1323c:	01250793          	addi	a5,a0,18
   13240:	0509                	addi	a0,a0,2
   13242:	ffe55703          	lhu	a4,-2(a0)
   13246:	e709                	bnez	a4,13250 <eisnan+0x22>
   13248:	fea79ce3          	bne	a5,a0,13240 <eisnan+0x12>
   1324c:	4501                	li	a0,0
   1324e:	8082                	ret
   13250:	4505                	li	a0,1
   13252:	8082                	ret

0000000000013254 <eisneg>:
   13254:	1141                	addi	sp,sp,-16
   13256:	e022                	sd	s0,0(sp)
   13258:	e406                	sd	ra,8(sp)
   1325a:	842a                	mv	s0,a0
   1325c:	fd3ff0ef          	jal	ra,1322e <eisnan>
   13260:	e901                	bnez	a0,13270 <eisneg+0x1c>
   13262:	01344503          	lbu	a0,19(s0)
   13266:	811d                	srli	a0,a0,0x7
   13268:	60a2                	ld	ra,8(sp)
   1326a:	6402                	ld	s0,0(sp)
   1326c:	0141                	addi	sp,sp,16
   1326e:	8082                	ret
   13270:	4501                	li	a0,0
   13272:	bfdd                	j	13268 <eisneg+0x14>

0000000000013274 <emovi>:
   13274:	01251783          	lh	a5,18(a0)
   13278:	1101                	addi	sp,sp,-32
   1327a:	ec06                	sd	ra,24(sp)
   1327c:	e822                	sd	s0,16(sp)
   1327e:	e426                	sd	s1,8(sp)
   13280:	e04a                	sd	s2,0(sp)
   13282:	0407d963          	bgez	a5,132d4 <emovi+0x60>
   13286:	57fd                	li	a5,-1
   13288:	00f59023          	sh	a5,0(a1)
   1328c:	01255703          	lhu	a4,18(a0)
   13290:	67a1                	lui	a5,0x8
   13292:	17fd                	addi	a5,a5,-1
   13294:	8f7d                	and	a4,a4,a5
   13296:	00e59123          	sh	a4,2(a1)
   1329a:	01050913          	addi	s2,a0,16
   1329e:	04f71863          	bne	a4,a5,132ee <emovi+0x7a>
   132a2:	842e                	mv	s0,a1
   132a4:	84aa                	mv	s1,a0
   132a6:	f89ff0ef          	jal	ra,1322e <eisnan>
   132aa:	c905                	beqz	a0,132da <emovi+0x66>
   132ac:	00640793          	addi	a5,s0,6
   132b0:	00041223          	sh	zero,4(s0)
   132b4:	ffc48513          	addi	a0,s1,-4
   132b8:	1979                	addi	s2,s2,-2
   132ba:	00295703          	lhu	a4,2(s2)
   132be:	0789                	addi	a5,a5,2
   132c0:	fee79f23          	sh	a4,-2(a5) # 7ffe <_start-0x80b2>
   132c4:	fea91ae3          	bne	s2,a0,132b8 <emovi+0x44>
   132c8:	60e2                	ld	ra,24(sp)
   132ca:	6442                	ld	s0,16(sp)
   132cc:	64a2                	ld	s1,8(sp)
   132ce:	6902                	ld	s2,0(sp)
   132d0:	6105                	addi	sp,sp,32
   132d2:	8082                	ret
   132d4:	00059023          	sh	zero,0(a1)
   132d8:	bf55                	j	1328c <emovi+0x18>
   132da:	00440793          	addi	a5,s0,4
   132de:	01a40593          	addi	a1,s0,26
   132e2:	0789                	addi	a5,a5,2
   132e4:	fe079f23          	sh	zero,-2(a5)
   132e8:	feb79de3          	bne	a5,a1,132e2 <emovi+0x6e>
   132ec:	bff1                	j	132c8 <emovi+0x54>
   132ee:	00658793          	addi	a5,a1,6
   132f2:	00059223          	sh	zero,4(a1)
   132f6:	1579                	addi	a0,a0,-2
   132f8:	1979                	addi	s2,s2,-2
   132fa:	00295703          	lhu	a4,2(s2)
   132fe:	0789                	addi	a5,a5,2
   13300:	fee79f23          	sh	a4,-2(a5)
   13304:	fea91ae3          	bne	s2,a0,132f8 <emovi+0x84>
   13308:	00059c23          	sh	zero,24(a1)
   1330c:	bf75                	j	132c8 <emovi+0x54>

000000000001330e <ecmp>:
   1330e:	711d                	addi	sp,sp,-96
   13310:	e4a6                	sd	s1,72(sp)
   13312:	e0ca                	sd	s2,64(sp)
   13314:	ec86                	sd	ra,88(sp)
   13316:	e8a2                	sd	s0,80(sp)
   13318:	892a                	mv	s2,a0
   1331a:	84ae                	mv	s1,a1
   1331c:	f13ff0ef          	jal	ra,1322e <eisnan>
   13320:	e559                	bnez	a0,133ae <ecmp+0xa0>
   13322:	8526                	mv	a0,s1
   13324:	f0bff0ef          	jal	ra,1322e <eisnan>
   13328:	842a                	mv	s0,a0
   1332a:	e151                	bnez	a0,133ae <ecmp+0xa0>
   1332c:	858a                	mv	a1,sp
   1332e:	854a                	mv	a0,s2
   13330:	f45ff0ef          	jal	ra,13274 <emovi>
   13334:	100c                	addi	a1,sp,32
   13336:	8526                	mv	a0,s1
   13338:	f3dff0ef          	jal	ra,13274 <emovi>
   1333c:	00015703          	lhu	a4,0(sp)
   13340:	02015783          	lhu	a5,32(sp)
   13344:	02e78c63          	beq	a5,a4,1337c <ecmp+0x6e>
   13348:	4789                	li	a5,2
   1334a:	46e1                	li	a3,24
   1334c:	00f10633          	add	a2,sp,a5
   13350:	00065603          	lhu	a2,0(a2) # ffffffffffff8000 <__global_pointer$+0xfffffffffffda988>
   13354:	e205                	bnez	a2,13374 <ecmp+0x66>
   13356:	1010                	addi	a2,sp,32
   13358:	963e                	add	a2,a2,a5
   1335a:	00065603          	lhu	a2,0(a2)
   1335e:	ea19                	bnez	a2,13374 <ecmp+0x66>
   13360:	0789                	addi	a5,a5,2
   13362:	fed795e3          	bne	a5,a3,1334c <ecmp+0x3e>
   13366:	8522                	mv	a0,s0
   13368:	60e6                	ld	ra,88(sp)
   1336a:	6446                	ld	s0,80(sp)
   1336c:	64a6                	ld	s1,72(sp)
   1336e:	6906                	ld	s2,64(sp)
   13370:	6125                	addi	sp,sp,96
   13372:	8082                	ret
   13374:	4405                	li	s0,1
   13376:	db65                	beqz	a4,13366 <ecmp+0x58>
   13378:	547d                	li	s0,-1
   1337a:	b7f5                	j	13366 <ecmp+0x58>
   1337c:	4605                	li	a2,1
   1337e:	c311                	beqz	a4,13382 <ecmp+0x74>
   13380:	567d                	li	a2,-1
   13382:	4781                	li	a5,0
   13384:	45e1                	li	a1,24
   13386:	00f10733          	add	a4,sp,a5
   1338a:	00075683          	lhu	a3,0(a4)
   1338e:	1018                	addi	a4,sp,32
   13390:	973e                	add	a4,a4,a5
   13392:	00075703          	lhu	a4,0(a4)
   13396:	00e69663          	bne	a3,a4,133a2 <ecmp+0x94>
   1339a:	0789                	addi	a5,a5,2
   1339c:	feb795e3          	bne	a5,a1,13386 <ecmp+0x78>
   133a0:	b7d9                	j	13366 <ecmp+0x58>
   133a2:	8432                	mv	s0,a2
   133a4:	fcd761e3          	bltu	a4,a3,13366 <ecmp+0x58>
   133a8:	40c0043b          	negw	s0,a2
   133ac:	bf6d                	j	13366 <ecmp+0x58>
   133ae:	5479                	li	s0,-2
   133b0:	bf5d                	j	13366 <ecmp+0x58>

00000000000133b2 <eisinf>:
   133b2:	01255783          	lhu	a5,18(a0)
   133b6:	fff7c793          	not	a5,a5
   133ba:	03179713          	slli	a4,a5,0x31
   133be:	eb11                	bnez	a4,133d2 <eisinf+0x20>
   133c0:	1141                	addi	sp,sp,-16
   133c2:	e406                	sd	ra,8(sp)
   133c4:	e6bff0ef          	jal	ra,1322e <eisnan>
   133c8:	60a2                	ld	ra,8(sp)
   133ca:	00153513          	seqz	a0,a0
   133ce:	0141                	addi	sp,sp,16
   133d0:	8082                	ret
   133d2:	4501                	li	a0,0
   133d4:	8082                	ret

00000000000133d6 <einfin.isra.2>:
   133d6:	01250793          	addi	a5,a0,18
   133da:	0509                	addi	a0,a0,2
   133dc:	fe051f23          	sh	zero,-2(a0)
   133e0:	fef51de3          	bne	a0,a5,133da <einfin.isra.2+0x4>
   133e4:	00055783          	lhu	a5,0(a0)
   133e8:	6721                	lui	a4,0x8
   133ea:	177d                	addi	a4,a4,-1
   133ec:	8fd9                	or	a5,a5,a4
   133ee:	00f51023          	sh	a5,0(a0)
   133f2:	8082                	ret

00000000000133f4 <eshift.part.3>:
   133f4:	7139                	addi	sp,sp,-64
   133f6:	f822                	sd	s0,48(sp)
   133f8:	ec4e                	sd	s3,24(sp)
   133fa:	fc06                	sd	ra,56(sp)
   133fc:	f426                	sd	s1,40(sp)
   133fe:	f04a                	sd	s2,32(sp)
   13400:	e852                	sd	s4,16(sp)
   13402:	e456                	sd	s5,8(sp)
   13404:	89aa                	mv	s3,a0
   13406:	842e                	mv	s0,a1
   13408:	0a05d963          	bgez	a1,134ba <eshift.part.3+0xc6>
   1340c:	40b00a3b          	negw	s4,a1
   13410:	8952                	mv	s2,s4
   13412:	4481                	li	s1,0
   13414:	4abd                	li	s5,15
   13416:	034ac763          	blt	s5,s4,13444 <eshift.part.3+0x50>
   1341a:	0049591b          	srliw	s2,s2,0x4
   1341e:	55c1                	li	a1,-16
   13420:	02b905bb          	mulw	a1,s2,a1
   13424:	4a1d                	li	s4,7
   13426:	4085893b          	subw	s2,a1,s0
   1342a:	844a                	mv	s0,s2
   1342c:	032a4463          	blt	s4,s2,13454 <eshift.part.3+0x60>
   13430:	0034559b          	srliw	a1,s0,0x3
   13434:	57e1                	li	a5,-8
   13436:	02f585bb          	mulw	a1,a1,a5
   1343a:	9c2d                	addw	s0,s0,a1
   1343c:	e405                	bnez	s0,13464 <eshift.part.3+0x70>
   1343e:	00903533          	snez	a0,s1
   13442:	a09d                	j	134a8 <eshift.part.3+0xb4>
   13444:	0189d783          	lhu	a5,24(s3)
   13448:	854e                	mv	a0,s3
   1344a:	3a41                	addiw	s4,s4,-16
   1344c:	8cdd                	or	s1,s1,a5
   1344e:	cfbff0ef          	jal	ra,13148 <eshdn6>
   13452:	b7d1                	j	13416 <eshift.part.3+0x22>
   13454:	0189c783          	lbu	a5,24(s3)
   13458:	854e                	mv	a0,s3
   1345a:	3961                	addiw	s2,s2,-8
   1345c:	8cdd                	or	s1,s1,a5
   1345e:	c89ff0ef          	jal	ra,130e6 <eshdn8>
   13462:	b7e9                	j	1342c <eshift.part.3+0x38>
   13464:	0189d783          	lhu	a5,24(s3)
   13468:	854e                	mv	a0,s3
   1346a:	347d                	addiw	s0,s0,-1
   1346c:	8b85                	andi	a5,a5,1
   1346e:	8cdd                	or	s1,s1,a5
   13470:	bf9ff0ef          	jal	ra,13068 <eshdn1>
   13474:	b7e1                	j	1343c <eshift.part.3+0x48>
   13476:	854e                	mv	a0,s3
   13478:	cb5ff0ef          	jal	ra,1312c <eshup6>
   1347c:	34c1                	addiw	s1,s1,-16
   1347e:	fe994ce3          	blt	s2,s1,13476 <eshift.part.3+0x82>
   13482:	0044559b          	srliw	a1,s0,0x4
   13486:	57c1                	li	a5,-16
   13488:	02f585bb          	mulw	a1,a1,a5
   1348c:	491d                	li	s2,7
   1348e:	00b404bb          	addw	s1,s0,a1
   13492:	8426                	mv	s0,s1
   13494:	02994663          	blt	s2,s1,134c0 <eshift.part.3+0xcc>
   13498:	0034559b          	srliw	a1,s0,0x3
   1349c:	57e1                	li	a5,-8
   1349e:	02f585bb          	mulw	a1,a1,a5
   134a2:	9c2d                	addw	s0,s0,a1
   134a4:	e01d                	bnez	s0,134ca <eshift.part.3+0xd6>
   134a6:	4501                	li	a0,0
   134a8:	70e2                	ld	ra,56(sp)
   134aa:	7442                	ld	s0,48(sp)
   134ac:	74a2                	ld	s1,40(sp)
   134ae:	7902                	ld	s2,32(sp)
   134b0:	69e2                	ld	s3,24(sp)
   134b2:	6a42                	ld	s4,16(sp)
   134b4:	6aa2                	ld	s5,8(sp)
   134b6:	6121                	addi	sp,sp,64
   134b8:	8082                	ret
   134ba:	84ae                	mv	s1,a1
   134bc:	493d                	li	s2,15
   134be:	b7c1                	j	1347e <eshift.part.3+0x8a>
   134c0:	854e                	mv	a0,s3
   134c2:	c4bff0ef          	jal	ra,1310c <eshup8>
   134c6:	34e1                	addiw	s1,s1,-8
   134c8:	b7f1                	j	13494 <eshift.part.3+0xa0>
   134ca:	854e                	mv	a0,s3
   134cc:	bd5ff0ef          	jal	ra,130a0 <eshup1>
   134d0:	347d                	addiw	s0,s0,-1
   134d2:	bfc9                	j	134a4 <eshift.part.3+0xb0>

00000000000134d4 <enormlz>:
   134d4:	00455783          	lhu	a5,4(a0)
   134d8:	1101                	addi	sp,sp,-32
   134da:	e426                	sd	s1,8(sp)
   134dc:	ec06                	sd	ra,24(sp)
   134de:	e822                	sd	s0,16(sp)
   134e0:	e04a                	sd	s2,0(sp)
   134e2:	84aa                	mv	s1,a0
   134e4:	efb9                	bnez	a5,13542 <enormlz+0x6e>
   134e6:	00651783          	lh	a5,6(a0)
   134ea:	4401                	li	s0,0
   134ec:	0a000913          	li	s2,160
   134f0:	0007df63          	bgez	a5,1350e <enormlz+0x3a>
   134f4:	8522                	mv	a0,s0
   134f6:	60e2                	ld	ra,24(sp)
   134f8:	6442                	ld	s0,16(sp)
   134fa:	64a2                	ld	s1,8(sp)
   134fc:	6902                	ld	s2,0(sp)
   134fe:	6105                	addi	sp,sp,32
   13500:	8082                	ret
   13502:	8526                	mv	a0,s1
   13504:	2441                	addiw	s0,s0,16
   13506:	c27ff0ef          	jal	ra,1312c <eshup6>
   1350a:	ff2405e3          	beq	s0,s2,134f4 <enormlz+0x20>
   1350e:	0064d783          	lhu	a5,6(s1)
   13512:	dbe5                	beqz	a5,13502 <enormlz+0x2e>
   13514:	0064d783          	lhu	a5,6(s1)
   13518:	f007f793          	andi	a5,a5,-256
   1351c:	cf91                	beqz	a5,13538 <enormlz+0x64>
   1351e:	0a000913          	li	s2,160
   13522:	00649783          	lh	a5,6(s1)
   13526:	fc07c7e3          	bltz	a5,134f4 <enormlz+0x20>
   1352a:	8526                	mv	a0,s1
   1352c:	2405                	addiw	s0,s0,1
   1352e:	b73ff0ef          	jal	ra,130a0 <eshup1>
   13532:	fe8958e3          	ble	s0,s2,13522 <enormlz+0x4e>
   13536:	bf7d                	j	134f4 <enormlz+0x20>
   13538:	8526                	mv	a0,s1
   1353a:	bd3ff0ef          	jal	ra,1310c <eshup8>
   1353e:	2421                	addiw	s0,s0,8
   13540:	bfd1                	j	13514 <enormlz+0x40>
   13542:	f007f793          	andi	a5,a5,-256
   13546:	4401                	li	s0,0
   13548:	c781                	beqz	a5,13550 <enormlz+0x7c>
   1354a:	b9dff0ef          	jal	ra,130e6 <eshdn8>
   1354e:	5461                	li	s0,-8
   13550:	f7000913          	li	s2,-144
   13554:	a039                	j	13562 <enormlz+0x8e>
   13556:	8526                	mv	a0,s1
   13558:	347d                	addiw	s0,s0,-1
   1355a:	b0fff0ef          	jal	ra,13068 <eshdn1>
   1355e:	f9244be3          	blt	s0,s2,134f4 <enormlz+0x20>
   13562:	0044d783          	lhu	a5,4(s1)
   13566:	fbe5                	bnez	a5,13556 <enormlz+0x82>
   13568:	b771                	j	134f4 <enormlz+0x20>

000000000001356a <enan.constprop.12>:
   1356a:	01050793          	addi	a5,a0,16
   1356e:	0509                	addi	a0,a0,2
   13570:	fe051f23          	sh	zero,-2(a0)
   13574:	fef51de3          	bne	a0,a5,1356e <enan.constprop.12+0x4>
   13578:	77f1                	lui	a5,0xffffc
   1357a:	00f51023          	sh	a5,0(a0)
   1357e:	77e1                	lui	a5,0xffff8
   13580:	fff7c793          	not	a5,a5
   13584:	00f51123          	sh	a5,2(a0)
   13588:	8082                	ret

000000000001358a <emovo.isra.6>:
   1358a:	872a                	mv	a4,a0
   1358c:	00075683          	lhu	a3,0(a4) # 8000 <_start-0x80b0>
   13590:	852e                	mv	a0,a1
   13592:	00275783          	lhu	a5,2(a4)
   13596:	c299                	beqz	a3,1359c <emovo.isra.6+0x12>
   13598:	76e1                	lui	a3,0xffff8
   1359a:	8fd5                	or	a5,a5,a3
   1359c:	00f51923          	sh	a5,18(a0)
   135a0:	00275603          	lhu	a2,2(a4)
   135a4:	66a1                	lui	a3,0x8
   135a6:	16fd                	addi	a3,a3,-1
   135a8:	00670793          	addi	a5,a4,6
   135ac:	00d61b63          	bne	a2,a3,135c2 <emovo.isra.6+0x38>
   135b0:	0769                	addi	a4,a4,26
   135b2:	0007d683          	lhu	a3,0(a5) # ffffffffffff8000 <__global_pointer$+0xfffffffffffda988>
   135b6:	e28d                	bnez	a3,135d8 <emovo.isra.6+0x4e>
   135b8:	0789                	addi	a5,a5,2
   135ba:	fee79ce3          	bne	a5,a4,135b2 <emovo.isra.6+0x28>
   135be:	e19ff06f          	j	133d6 <einfin.isra.2>
   135c2:	0541                	addi	a0,a0,16
   135c4:	0761                	addi	a4,a4,24
   135c6:	0789                	addi	a5,a5,2
   135c8:	ffe7d683          	lhu	a3,-2(a5)
   135cc:	1579                	addi	a0,a0,-2
   135ce:	00d51123          	sh	a3,2(a0)
   135d2:	fee79ae3          	bne	a5,a4,135c6 <emovo.isra.6+0x3c>
   135d6:	8082                	ret
   135d8:	f93ff06f          	j	1356a <enan.constprop.12>

00000000000135dc <e113toe.isra.8>:
   135dc:	7139                	addi	sp,sp,-64
   135de:	f426                	sd	s1,40(sp)
   135e0:	84aa                	mv	s1,a0
   135e2:	850a                	mv	a0,sp
   135e4:	f822                	sd	s0,48(sp)
   135e6:	fc06                	sd	ra,56(sp)
   135e8:	842e                	mv	s0,a1
   135ea:	a29ff0ef          	jal	ra,13012 <ecleaz>
   135ee:	00e4d703          	lhu	a4,14(s1)
   135f2:	0107179b          	slliw	a5,a4,0x10
   135f6:	4107d79b          	sraiw	a5,a5,0x10
   135fa:	02079693          	slli	a3,a5,0x20
   135fe:	0206c763          	bltz	a3,1362c <e113toe.isra.8+0x50>
   13602:	00011023          	sh	zero,0(sp)
   13606:	66a1                	lui	a3,0x8
   13608:	16fd                	addi	a3,a3,-1
   1360a:	8f75                	and	a4,a4,a3
   1360c:	00e48793          	addi	a5,s1,14
   13610:	04d71a63          	bne	a4,a3,13664 <e113toe.isra.8+0x88>
   13614:	8726                	mv	a4,s1
   13616:	00075683          	lhu	a3,0(a4)
   1361a:	ce89                	beqz	a3,13634 <e113toe.isra.8+0x58>
   1361c:	8522                	mv	a0,s0
   1361e:	f4dff0ef          	jal	ra,1356a <enan.constprop.12>
   13622:	70e2                	ld	ra,56(sp)
   13624:	7442                	ld	s0,48(sp)
   13626:	74a2                	ld	s1,40(sp)
   13628:	6121                	addi	sp,sp,64
   1362a:	8082                	ret
   1362c:	57fd                	li	a5,-1
   1362e:	00f11023          	sh	a5,0(sp)
   13632:	bfd1                	j	13606 <e113toe.isra.8+0x2a>
   13634:	0709                	addi	a4,a4,2
   13636:	fee790e3          	bne	a5,a4,13616 <e113toe.isra.8+0x3a>
   1363a:	8522                	mv	a0,s0
   1363c:	9b1ff0ef          	jal	ra,12fec <eclear>
   13640:	8522                	mv	a0,s0
   13642:	d95ff0ef          	jal	ra,133d6 <einfin.isra.2>
   13646:	00e49783          	lh	a5,14(s1)
   1364a:	fc07dce3          	bgez	a5,13622 <e113toe.isra.8+0x46>
   1364e:	8522                	mv	a0,s0
   13650:	bdfff0ef          	jal	ra,1322e <eisnan>
   13654:	f579                	bnez	a0,13622 <e113toe.isra.8+0x46>
   13656:	01245783          	lhu	a5,18(s0)
   1365a:	7761                	lui	a4,0xffff8
   1365c:	8fb9                	xor	a5,a5,a4
   1365e:	00f41923          	sh	a5,18(s0)
   13662:	b7c1                	j	13622 <e113toe.isra.8+0x46>
   13664:	00e11123          	sh	a4,2(sp)
   13668:	868a                	mv	a3,sp
   1366a:	17f9                	addi	a5,a5,-2
   1366c:	0007d603          	lhu	a2,0(a5)
   13670:	0689                	addi	a3,a3,2
   13672:	00c69223          	sh	a2,4(a3) # 8004 <_start-0x80ac>
   13676:	fef49ae3          	bne	s1,a5,1366a <e113toe.isra.8+0x8e>
   1367a:	eb01                	bnez	a4,1368a <e113toe.isra.8+0xae>
   1367c:	00011223          	sh	zero,4(sp)
   13680:	85a2                	mv	a1,s0
   13682:	850a                	mv	a0,sp
   13684:	f07ff0ef          	jal	ra,1358a <emovo.isra.6>
   13688:	bf69                	j	13622 <e113toe.isra.8+0x46>
   1368a:	4785                	li	a5,1
   1368c:	55fd                	li	a1,-1
   1368e:	850a                	mv	a0,sp
   13690:	00f11223          	sh	a5,4(sp)
   13694:	d61ff0ef          	jal	ra,133f4 <eshift.part.3>
   13698:	b7e5                	j	13680 <e113toe.isra.8+0xa4>

000000000001369a <emdnorm>:
   1369a:	7139                	addi	sp,sp,-64
   1369c:	f822                	sd	s0,48(sp)
   1369e:	f426                	sd	s1,40(sp)
   136a0:	f04a                	sd	s2,32(sp)
   136a2:	ec4e                	sd	s3,24(sp)
   136a4:	e852                	sd	s4,16(sp)
   136a6:	e456                	sd	s5,8(sp)
   136a8:	8936                	mv	s2,a3
   136aa:	843e                	mv	s0,a5
   136ac:	fc06                	sd	ra,56(sp)
   136ae:	84aa                	mv	s1,a0
   136b0:	89ae                	mv	s3,a1
   136b2:	8a32                	mv	s4,a2
   136b4:	8aba                	mv	s5,a4
   136b6:	e1fff0ef          	jal	ra,134d4 <enormlz>
   136ba:	09000793          	li	a5,144
   136be:	40a90933          	sub	s2,s2,a0
   136c2:	02a7d763          	ble	a0,a5,136f0 <emdnorm+0x56>
   136c6:	67a1                	lui	a5,0x8
   136c8:	17f9                	addi	a5,a5,-2
   136ca:	2327c663          	blt	a5,s2,138f6 <emdnorm+0x25c>
   136ce:	00248793          	addi	a5,s1,2
   136d2:	04e9                	addi	s1,s1,26
   136d4:	0789                	addi	a5,a5,2
   136d6:	fe079f23          	sh	zero,-2(a5) # 7ffe <_start-0x80b2>
   136da:	fe979de3          	bne	a5,s1,136d4 <emdnorm+0x3a>
   136de:	70e2                	ld	ra,56(sp)
   136e0:	7442                	ld	s0,48(sp)
   136e2:	74a2                	ld	s1,40(sp)
   136e4:	7902                	ld	s2,32(sp)
   136e6:	69e2                	ld	s3,24(sp)
   136e8:	6a42                	ld	s4,16(sp)
   136ea:	6aa2                	ld	s5,8(sp)
   136ec:	6121                	addi	sp,sp,64
   136ee:	8082                	ret
   136f0:	00095d63          	bgez	s2,1370a <emdnorm+0x70>
   136f4:	f7000793          	li	a5,-144
   136f8:	0ef94a63          	blt	s2,a5,137ec <emdnorm+0x152>
   136fc:	0009059b          	sext.w	a1,s2
   13700:	8526                	mv	a0,s1
   13702:	cf3ff0ef          	jal	ra,133f4 <eshift.part.3>
   13706:	0e051c63          	bnez	a0,137fe <emdnorm+0x164>
   1370a:	1a0a8a63          	beqz	s5,138be <emdnorm+0x224>
   1370e:	4058                	lw	a4,4(s0)
   13710:	401c                	lw	a5,0(s0)
   13712:	04f70863          	beq	a4,a5,13762 <emdnorm+0xc8>
   13716:	01a40513          	addi	a0,s0,26
   1371a:	8f9ff0ef          	jal	ra,13012 <ecleaz>
   1371e:	405c                	lw	a5,4(s0)
   13720:	03800713          	li	a4,56
   13724:	10e78d63          	beq	a5,a4,1383e <emdnorm+0x1a4>
   13728:	0cf74d63          	blt	a4,a5,13802 <emdnorm+0x168>
   1372c:	4761                	li	a4,24
   1372e:	12e78e63          	beq	a5,a4,1386a <emdnorm+0x1d0>
   13732:	03500713          	li	a4,53
   13736:	12e78163          	beq	a5,a4,13858 <emdnorm+0x1be>
   1373a:	80010737          	lui	a4,0x80010
   1373e:	377d                	addiw	a4,a4,-1
   13740:	c858                	sw	a4,20(s0)
   13742:	4705                	li	a4,1
   13744:	00e41c23          	sh	a4,24(s0)
   13748:	472d                	li	a4,11
   1374a:	1702                	slli	a4,a4,0x20
   1374c:	0731                	addi	a4,a4,12
   1374e:	e418                	sd	a4,8(s0)
   13750:	4458                	lw	a4,12(s0)
   13752:	01845683          	lhu	a3,24(s0)
   13756:	0721                	addi	a4,a4,8
   13758:	0706                	slli	a4,a4,0x1
   1375a:	9722                	add	a4,a4,s0
   1375c:	00d71523          	sh	a3,10(a4) # ffffffff8001000a <__global_pointer$+0xffffffff7fff2992>
   13760:	c01c                	sw	a5,0(s0)
   13762:	01204f63          	bgtz	s2,13780 <emdnorm+0xe6>
   13766:	4058                	lw	a4,4(s0)
   13768:	09000793          	li	a5,144
   1376c:	00f70a63          	beq	a4,a5,13780 <emdnorm+0xe6>
   13770:	0184d783          	lhu	a5,24(s1)
   13774:	8526                	mv	a0,s1
   13776:	8b85                	andi	a5,a5,1
   13778:	00f9e9b3          	or	s3,s3,a5
   1377c:	8edff0ef          	jal	ra,13068 <eshdn1>
   13780:	4414                	lw	a3,8(s0)
   13782:	01445583          	lhu	a1,20(s0)
   13786:	4048                	lw	a0,4(s0)
   13788:	00169793          	slli	a5,a3,0x1
   1378c:	00f48633          	add	a2,s1,a5
   13790:	00065703          	lhu	a4,0(a2)
   13794:	8f6d                	and	a4,a4,a1
   13796:	08f00593          	li	a1,143
   1379a:	00a5c863          	blt	a1,a0,137aa <emdnorm+0x110>
   1379e:	0789                	addi	a5,a5,2
   137a0:	2685                	addiw	a3,a3,1
   137a2:	97a6                	add	a5,a5,s1
   137a4:	45b1                	li	a1,12
   137a6:	0cd5df63          	ble	a3,a1,13884 <emdnorm+0x1ea>
   137aa:	01445783          	lhu	a5,20(s0)
   137ae:	00065683          	lhu	a3,0(a2)
   137b2:	fff7c793          	not	a5,a5
   137b6:	8ff5                	and	a5,a5,a3
   137b8:	00f61023          	sh	a5,0(a2)
   137bc:	01645783          	lhu	a5,22(s0)
   137c0:	00e7f6b3          	and	a3,a5,a4
   137c4:	cee1                	beqz	a3,1389c <emdnorm+0x202>
   137c6:	00e79d63          	bne	a5,a4,137e0 <emdnorm+0x146>
   137ca:	0c099763          	bnez	s3,13898 <emdnorm+0x1fe>
   137ce:	445c                	lw	a5,12(s0)
   137d0:	01845703          	lhu	a4,24(s0)
   137d4:	0786                	slli	a5,a5,0x1
   137d6:	97a6                	add	a5,a5,s1
   137d8:	0007d783          	lhu	a5,0(a5)
   137dc:	8ff9                	and	a5,a5,a4
   137de:	cfdd                	beqz	a5,1389c <emdnorm+0x202>
   137e0:	85a6                	mv	a1,s1
   137e2:	01a40513          	addi	a0,s0,26
   137e6:	985ff0ef          	jal	ra,1316a <eaddm>
   137ea:	a84d                	j	1389c <emdnorm+0x202>
   137ec:	00248793          	addi	a5,s1,2
   137f0:	04e9                	addi	s1,s1,26
   137f2:	0789                	addi	a5,a5,2
   137f4:	fe079f23          	sh	zero,-2(a5)
   137f8:	fe979de3          	bne	a5,s1,137f2 <emdnorm+0x158>
   137fc:	b5cd                	j	136de <emdnorm+0x44>
   137fe:	4985                	li	s3,1
   13800:	b729                	j	1370a <emdnorm+0x70>
   13802:	04000713          	li	a4,64
   13806:	02e78163          	beq	a5,a4,13828 <emdnorm+0x18e>
   1380a:	07100713          	li	a4,113
   1380e:	f2e796e3          	bne	a5,a4,1373a <emdnorm+0xa0>
   13812:	40008737          	lui	a4,0x40008
   13816:	377d                	addiw	a4,a4,-1
   13818:	c858                	sw	a4,20(s0)
   1381a:	7761                	lui	a4,0xffff8
   1381c:	00e41c23          	sh	a4,24(s0)
   13820:	4729                	li	a4,10
   13822:	1702                	slli	a4,a4,0x20
   13824:	0729                	addi	a4,a4,10
   13826:	b725                	j	1374e <emdnorm+0xb4>
   13828:	80010737          	lui	a4,0x80010
   1382c:	377d                	addiw	a4,a4,-1
   1382e:	c858                	sw	a4,20(s0)
   13830:	4705                	li	a4,1
   13832:	00e41c23          	sh	a4,24(s0)
   13836:	470d                	li	a4,3
   13838:	1706                	slli	a4,a4,0x21
   1383a:	071d                	addi	a4,a4,7
   1383c:	bf09                	j	1374e <emdnorm+0xb4>
   1383e:	00800737          	lui	a4,0x800
   13842:	0ff7071b          	addiw	a4,a4,255
   13846:	c858                	sw	a4,20(s0)
   13848:	10000713          	li	a4,256
   1384c:	00e41c23          	sh	a4,24(s0)
   13850:	4719                	li	a4,6
   13852:	1702                	slli	a4,a4,0x20
   13854:	0719                	addi	a4,a4,6
   13856:	bde5                	j	1374e <emdnorm+0xb4>
   13858:	04000737          	lui	a4,0x4000
   1385c:	7ff7071b          	addiw	a4,a4,2047
   13860:	c858                	sw	a4,20(s0)
   13862:	6705                	lui	a4,0x1
   13864:	8007071b          	addiw	a4,a4,-2048
   13868:	b7d5                	j	1384c <emdnorm+0x1b2>
   1386a:	00800737          	lui	a4,0x800
   1386e:	0ff7071b          	addiw	a4,a4,255
   13872:	c858                	sw	a4,20(s0)
   13874:	10000713          	li	a4,256
   13878:	00e41c23          	sh	a4,24(s0)
   1387c:	4711                	li	a4,4
   1387e:	1702                	slli	a4,a4,0x20
   13880:	0711                	addi	a4,a4,4
   13882:	b5f1                	j	1374e <emdnorm+0xb4>
   13884:	0007d503          	lhu	a0,0(a5)
   13888:	c119                	beqz	a0,1388e <emdnorm+0x1f4>
   1388a:	00176713          	ori	a4,a4,1
   1388e:	00079023          	sh	zero,0(a5)
   13892:	2685                	addiw	a3,a3,1
   13894:	0789                	addi	a5,a5,2
   13896:	bf01                	j	137a6 <emdnorm+0x10c>
   13898:	f40a04e3          	beqz	s4,137e0 <emdnorm+0x146>
   1389c:	01204a63          	bgtz	s2,138b0 <emdnorm+0x216>
   138a0:	4058                	lw	a4,4(s0)
   138a2:	09000793          	li	a5,144
   138a6:	00f70563          	beq	a4,a5,138b0 <emdnorm+0x216>
   138aa:	8526                	mv	a0,s1
   138ac:	ff4ff0ef          	jal	ra,130a0 <eshup1>
   138b0:	0044d783          	lhu	a5,4(s1)
   138b4:	c789                	beqz	a5,138be <emdnorm+0x224>
   138b6:	8526                	mv	a0,s1
   138b8:	fb0ff0ef          	jal	ra,13068 <eshdn1>
   138bc:	0905                	addi	s2,s2,1
   138be:	67a1                	lui	a5,0x8
   138c0:	00049c23          	sh	zero,24(s1)
   138c4:	17f9                	addi	a5,a5,-2
   138c6:	0327d063          	ble	s2,a5,138e6 <emdnorm+0x24c>
   138ca:	77e1                	lui	a5,0xffff8
   138cc:	fff7c793          	not	a5,a5
   138d0:	00f49123          	sh	a5,2(s1)
   138d4:	00448793          	addi	a5,s1,4
   138d8:	04e1                	addi	s1,s1,24
   138da:	00079023          	sh	zero,0(a5) # ffffffffffff8000 <__global_pointer$+0xfffffffffffda988>
   138de:	0789                	addi	a5,a5,2
   138e0:	fef49de3          	bne	s1,a5,138da <emdnorm+0x240>
   138e4:	bbed                	j	136de <emdnorm+0x44>
   138e6:	00095563          	bgez	s2,138f0 <emdnorm+0x256>
   138ea:	00049123          	sh	zero,2(s1)
   138ee:	bbc5                	j	136de <emdnorm+0x44>
   138f0:	01249123          	sh	s2,2(s1)
   138f4:	b3ed                	j	136de <emdnorm+0x44>
   138f6:	e00a9ce3          	bnez	s5,1370e <emdnorm+0x74>
   138fa:	00049c23          	sh	zero,24(s1)
   138fe:	b7f1                	j	138ca <emdnorm+0x230>

0000000000013900 <eiremain>:
   13900:	7139                	addi	sp,sp,-64
   13902:	e852                	sd	s4,16(sp)
   13904:	00255a03          	lhu	s4,2(a0)
   13908:	f822                	sd	s0,48(sp)
   1390a:	842e                	mv	s0,a1
   1390c:	fc06                	sd	ra,56(sp)
   1390e:	f426                	sd	s1,40(sp)
   13910:	f04a                	sd	s2,32(sp)
   13912:	e456                	sd	s5,8(sp)
   13914:	e05a                	sd	s6,0(sp)
   13916:	8932                	mv	s2,a2
   13918:	03460b13          	addi	s6,a2,52
   1391c:	ec4e                	sd	s3,24(sp)
   1391e:	8aaa                	mv	s5,a0
   13920:	bb5ff0ef          	jal	ra,134d4 <enormlz>
   13924:	00245483          	lhu	s1,2(s0)
   13928:	40aa0a33          	sub	s4,s4,a0
   1392c:	8522                	mv	a0,s0
   1392e:	ba7ff0ef          	jal	ra,134d4 <enormlz>
   13932:	8c89                	sub	s1,s1,a0
   13934:	855a                	mv	a0,s6
   13936:	edcff0ef          	jal	ra,13012 <ecleaz>
   1393a:	0344d363          	ble	s4,s1,13960 <eiremain+0x60>
   1393e:	8522                	mv	a0,s0
   13940:	7442                	ld	s0,48(sp)
   13942:	70e2                	ld	ra,56(sp)
   13944:	69e2                	ld	s3,24(sp)
   13946:	6a42                	ld	s4,16(sp)
   13948:	6aa2                	ld	s5,8(sp)
   1394a:	6b02                	ld	s6,0(sp)
   1394c:	87ca                	mv	a5,s2
   1394e:	86a6                	mv	a3,s1
   13950:	7902                	ld	s2,32(sp)
   13952:	74a2                	ld	s1,40(sp)
   13954:	4701                	li	a4,0
   13956:	4601                	li	a2,0
   13958:	4581                	li	a1,0
   1395a:	6121                	addi	sp,sp,64
   1395c:	d3fff06f          	j	1369a <emdnorm>
   13960:	85a2                	mv	a1,s0
   13962:	8556                	mv	a0,s5
   13964:	edaff0ef          	jal	ra,1303e <ecmpm>
   13968:	4981                	li	s3,0
   1396a:	00a04763          	bgtz	a0,13978 <eiremain+0x78>
   1396e:	85a2                	mv	a1,s0
   13970:	8556                	mv	a0,s5
   13972:	821ff0ef          	jal	ra,13192 <esubm>
   13976:	4985                	li	s3,1
   13978:	855a                	mv	a0,s6
   1397a:	f26ff0ef          	jal	ra,130a0 <eshup1>
   1397e:	04c95783          	lhu	a5,76(s2)
   13982:	8522                	mv	a0,s0
   13984:	14fd                	addi	s1,s1,-1
   13986:	00f9e9b3          	or	s3,s3,a5
   1398a:	05391623          	sh	s3,76(s2)
   1398e:	f12ff0ef          	jal	ra,130a0 <eshup1>
   13992:	b765                	j	1393a <eiremain+0x3a>

0000000000013994 <emul>:
   13994:	7131                	addi	sp,sp,-192
   13996:	f922                	sd	s0,176(sp)
   13998:	f526                	sd	s1,168(sp)
   1399a:	f14a                	sd	s2,160(sp)
   1399c:	ed4e                	sd	s3,152(sp)
   1399e:	fd06                	sd	ra,184(sp)
   139a0:	e952                	sd	s4,144(sp)
   139a2:	e556                	sd	s5,136(sp)
   139a4:	e15a                	sd	s6,128(sp)
   139a6:	fcde                	sd	s7,120(sp)
   139a8:	f8e2                	sd	s8,112(sp)
   139aa:	f4e6                	sd	s9,104(sp)
   139ac:	84aa                	mv	s1,a0
   139ae:	842e                	mv	s0,a1
   139b0:	8932                	mv	s2,a2
   139b2:	89b6                	mv	s3,a3
   139b4:	87bff0ef          	jal	ra,1322e <eisnan>
   139b8:	c115                	beqz	a0,139dc <emul+0x48>
   139ba:	85ca                	mv	a1,s2
   139bc:	8526                	mv	a0,s1
   139be:	e3eff0ef          	jal	ra,12ffc <emov>
   139c2:	70ea                	ld	ra,184(sp)
   139c4:	744a                	ld	s0,176(sp)
   139c6:	74aa                	ld	s1,168(sp)
   139c8:	790a                	ld	s2,160(sp)
   139ca:	69ea                	ld	s3,152(sp)
   139cc:	6a4a                	ld	s4,144(sp)
   139ce:	6aaa                	ld	s5,136(sp)
   139d0:	6b0a                	ld	s6,128(sp)
   139d2:	7be6                	ld	s7,120(sp)
   139d4:	7c46                	ld	s8,112(sp)
   139d6:	7ca6                	ld	s9,104(sp)
   139d8:	6129                	addi	sp,sp,192
   139da:	8082                	ret
   139dc:	8522                	mv	a0,s0
   139de:	851ff0ef          	jal	ra,1322e <eisnan>
   139e2:	c501                	beqz	a0,139ea <emul+0x56>
   139e4:	85ca                	mv	a1,s2
   139e6:	8522                	mv	a0,s0
   139e8:	bfd9                	j	139be <emul+0x2a>
   139ea:	8526                	mv	a0,s1
   139ec:	9c7ff0ef          	jal	ra,133b2 <eisinf>
   139f0:	e521                	bnez	a0,13a38 <emul+0xa4>
   139f2:	8522                	mv	a0,s0
   139f4:	9bfff0ef          	jal	ra,133b2 <eisinf>
   139f8:	c901                	beqz	a0,13a08 <emul+0x74>
   139fa:	65e9                	lui	a1,0x1a
   139fc:	28858593          	addi	a1,a1,648 # 1a288 <ezero>
   13a00:	8526                	mv	a0,s1
   13a02:	90dff0ef          	jal	ra,1330e <ecmp>
   13a06:	c121                	beqz	a0,13a46 <emul+0xb2>
   13a08:	8526                	mv	a0,s1
   13a0a:	9a9ff0ef          	jal	ra,133b2 <eisinf>
   13a0e:	e509                	bnez	a0,13a18 <emul+0x84>
   13a10:	8522                	mv	a0,s0
   13a12:	9a1ff0ef          	jal	ra,133b2 <eisinf>
   13a16:	cd1d                	beqz	a0,13a54 <emul+0xc0>
   13a18:	8526                	mv	a0,s1
   13a1a:	83bff0ef          	jal	ra,13254 <eisneg>
   13a1e:	84aa                	mv	s1,a0
   13a20:	8522                	mv	a0,s0
   13a22:	833ff0ef          	jal	ra,13254 <eisneg>
   13a26:	02a48463          	beq	s1,a0,13a4e <emul+0xba>
   13a2a:	77e1                	lui	a5,0xffff8
   13a2c:	00f91923          	sh	a5,18(s2)
   13a30:	854a                	mv	a0,s2
   13a32:	9a5ff0ef          	jal	ra,133d6 <einfin.isra.2>
   13a36:	b771                	j	139c2 <emul+0x2e>
   13a38:	65e9                	lui	a1,0x1a
   13a3a:	28858593          	addi	a1,a1,648 # 1a288 <ezero>
   13a3e:	8522                	mv	a0,s0
   13a40:	8cfff0ef          	jal	ra,1330e <ecmp>
   13a44:	f55d                	bnez	a0,139f2 <emul+0x5e>
   13a46:	854a                	mv	a0,s2
   13a48:	b23ff0ef          	jal	ra,1356a <enan.constprop.12>
   13a4c:	bf9d                	j	139c2 <emul+0x2e>
   13a4e:	00091923          	sh	zero,18(s2)
   13a52:	bff9                	j	13a30 <emul+0x9c>
   13a54:	8526                	mv	a0,s1
   13a56:	858a                	mv	a1,sp
   13a58:	81dff0ef          	jal	ra,13274 <emovi>
   13a5c:	8522                	mv	a0,s0
   13a5e:	100c                	addi	a1,sp,32
   13a60:	815ff0ef          	jal	ra,13274 <emovi>
   13a64:	00215403          	lhu	s0,2(sp)
   13a68:	02215483          	lhu	s1,34(sp)
   13a6c:	ec09                	bnez	s0,13a86 <emul+0xf2>
   13a6e:	4781                	li	a5,0
   13a70:	4759                	li	a4,22
   13a72:	00f106b3          	add	a3,sp,a5
   13a76:	0026d683          	lhu	a3,2(a3)
   13a7a:	c6e9                	beqz	a3,13b44 <emul+0x1b0>
   13a7c:	850a                	mv	a0,sp
   13a7e:	a57ff0ef          	jal	ra,134d4 <enormlz>
   13a82:	40a00433          	neg	s0,a0
   13a86:	02215783          	lhu	a5,34(sp)
   13a8a:	8c26                	mv	s8,s1
   13a8c:	ef81                	bnez	a5,13aa4 <emul+0x110>
   13a8e:	4759                	li	a4,22
   13a90:	1014                	addi	a3,sp,32
   13a92:	96be                	add	a3,a3,a5
   13a94:	0026d683          	lhu	a3,2(a3)
   13a98:	cecd                	beqz	a3,13b52 <emul+0x1be>
   13a9a:	1008                	addi	a0,sp,32
   13a9c:	a39ff0ef          	jal	ra,134d4 <enormlz>
   13aa0:	40a48c33          	sub	s8,s1,a0
   13aa4:	02015783          	lhu	a5,32(sp)
   13aa8:	03498b93          	addi	s7,s3,52
   13aac:	03898493          	addi	s1,s3,56
   13ab0:	02f99a23          	sh	a5,52(s3)
   13ab4:	02215783          	lhu	a5,34(sp)
   13ab8:	8a5e                	mv	s4,s7
   13aba:	02f99b23          	sh	a5,54(s3)
   13abe:	04e98793          	addi	a5,s3,78
   13ac2:	00049023          	sh	zero,0(s1)
   13ac6:	0489                	addi	s1,s1,2
   13ac8:	fe979de3          	bne	a5,s1,13ac2 <emul+0x12e>
   13acc:	4a81                	li	s5,0
   13ace:	4b01                	li	s6,0
   13ad0:	5cb1                	li	s9,-20
   13ad2:	015107b3          	add	a5,sp,s5
   13ad6:	0187d503          	lhu	a0,24(a5) # ffffffffffff8018 <__global_pointer$+0xfffffffffffda9a0>
   13ada:	c909                	beqz	a0,13aec <emul+0x158>
   13adc:	100c                	addi	a1,sp,32
   13ade:	0090                	addi	a2,sp,64
   13ae0:	edaff0ef          	jal	ra,131ba <m16m>
   13ae4:	85de                	mv	a1,s7
   13ae6:	0088                	addi	a0,sp,64
   13ae8:	e82ff0ef          	jal	ra,1316a <eaddm>
   13aec:	04c9d783          	lhu	a5,76(s3)
   13af0:	855e                	mv	a0,s7
   13af2:	1af9                	addi	s5,s5,-2
   13af4:	00fb6b33          	or	s6,s6,a5
   13af8:	e50ff0ef          	jal	ra,13148 <eshdn6>
   13afc:	fd9a9be3          	bne	s5,s9,13ad2 <emul+0x13e>
   13b00:	101c                	addi	a5,sp,32
   13b02:	000a5703          	lhu	a4,0(s4)
   13b06:	0a09                	addi	s4,s4,2
   13b08:	0789                	addi	a5,a5,2
   13b0a:	fee79f23          	sh	a4,-2(a5)
   13b0e:	fe9a1ae3          	bne	s4,s1,13b02 <emul+0x16e>
   13b12:	76f1                	lui	a3,0xffffc
   13b14:	9462                	add	s0,s0,s8
   13b16:	0689                	addi	a3,a3,2
   13b18:	87ce                	mv	a5,s3
   13b1a:	04000713          	li	a4,64
   13b1e:	96a2                	add	a3,a3,s0
   13b20:	4601                	li	a2,0
   13b22:	85da                	mv	a1,s6
   13b24:	1008                	addi	a0,sp,32
   13b26:	b75ff0ef          	jal	ra,1369a <emdnorm>
   13b2a:	00015703          	lhu	a4,0(sp)
   13b2e:	02015783          	lhu	a5,32(sp)
   13b32:	02f71463          	bne	a4,a5,13b5a <emul+0x1c6>
   13b36:	02011023          	sh	zero,32(sp)
   13b3a:	85ca                	mv	a1,s2
   13b3c:	1008                	addi	a0,sp,32
   13b3e:	a4dff0ef          	jal	ra,1358a <emovo.isra.6>
   13b42:	b541                	j	139c2 <emul+0x2e>
   13b44:	0789                	addi	a5,a5,2
   13b46:	f2e796e3          	bne	a5,a4,13a72 <emul+0xde>
   13b4a:	854a                	mv	a0,s2
   13b4c:	ca0ff0ef          	jal	ra,12fec <eclear>
   13b50:	bd8d                	j	139c2 <emul+0x2e>
   13b52:	0789                	addi	a5,a5,2
   13b54:	f2e79ee3          	bne	a5,a4,13a90 <emul+0xfc>
   13b58:	bfcd                	j	13b4a <emul+0x1b6>
   13b5a:	57fd                	li	a5,-1
   13b5c:	02f11023          	sh	a5,32(sp)
   13b60:	bfe9                	j	13b3a <emul+0x1a6>

0000000000013b62 <ediv>:
   13b62:	7131                	addi	sp,sp,-192
   13b64:	f922                	sd	s0,176(sp)
   13b66:	f526                	sd	s1,168(sp)
   13b68:	f14a                	sd	s2,160(sp)
   13b6a:	e556                	sd	s5,136(sp)
   13b6c:	fd06                	sd	ra,184(sp)
   13b6e:	ed4e                	sd	s3,152(sp)
   13b70:	e952                	sd	s4,144(sp)
   13b72:	e15a                	sd	s6,128(sp)
   13b74:	fcde                	sd	s7,120(sp)
   13b76:	f8e2                	sd	s8,112(sp)
   13b78:	f4e6                	sd	s9,104(sp)
   13b7a:	f0ea                	sd	s10,96(sp)
   13b7c:	84aa                	mv	s1,a0
   13b7e:	842e                	mv	s0,a1
   13b80:	8932                	mv	s2,a2
   13b82:	8ab6                	mv	s5,a3
   13b84:	eaaff0ef          	jal	ra,1322e <eisnan>
   13b88:	c11d                	beqz	a0,13bae <ediv+0x4c>
   13b8a:	85ca                	mv	a1,s2
   13b8c:	8526                	mv	a0,s1
   13b8e:	c6eff0ef          	jal	ra,12ffc <emov>
   13b92:	70ea                	ld	ra,184(sp)
   13b94:	744a                	ld	s0,176(sp)
   13b96:	74aa                	ld	s1,168(sp)
   13b98:	790a                	ld	s2,160(sp)
   13b9a:	69ea                	ld	s3,152(sp)
   13b9c:	6a4a                	ld	s4,144(sp)
   13b9e:	6aaa                	ld	s5,136(sp)
   13ba0:	6b0a                	ld	s6,128(sp)
   13ba2:	7be6                	ld	s7,120(sp)
   13ba4:	7c46                	ld	s8,112(sp)
   13ba6:	7ca6                	ld	s9,104(sp)
   13ba8:	7d06                	ld	s10,96(sp)
   13baa:	6129                	addi	sp,sp,192
   13bac:	8082                	ret
   13bae:	8522                	mv	a0,s0
   13bb0:	e7eff0ef          	jal	ra,1322e <eisnan>
   13bb4:	c501                	beqz	a0,13bbc <ediv+0x5a>
   13bb6:	85ca                	mv	a1,s2
   13bb8:	8522                	mv	a0,s0
   13bba:	bfd1                	j	13b8e <ediv+0x2c>
   13bbc:	69e9                	lui	s3,0x1a
   13bbe:	28898593          	addi	a1,s3,648 # 1a288 <ezero>
   13bc2:	8526                	mv	a0,s1
   13bc4:	f4aff0ef          	jal	ra,1330e <ecmp>
   13bc8:	16050763          	beqz	a0,13d36 <ediv+0x1d4>
   13bcc:	8526                	mv	a0,s1
   13bce:	fe4ff0ef          	jal	ra,133b2 <eisinf>
   13bd2:	89aa                	mv	s3,a0
   13bd4:	8522                	mv	a0,s0
   13bd6:	fdcff0ef          	jal	ra,133b2 <eisinf>
   13bda:	16099963          	bnez	s3,13d4c <ediv+0x1ea>
   13bde:	16051c63          	bnez	a0,13d56 <ediv+0x1f4>
   13be2:	8526                	mv	a0,s1
   13be4:	858a                	mv	a1,sp
   13be6:	e8eff0ef          	jal	ra,13274 <emovi>
   13bea:	8522                	mv	a0,s0
   13bec:	100c                	addi	a1,sp,32
   13bee:	e86ff0ef          	jal	ra,13274 <emovi>
   13bf2:	02215483          	lhu	s1,34(sp)
   13bf6:	00215403          	lhu	s0,2(sp)
   13bfa:	ec91                	bnez	s1,13c16 <ediv+0xb4>
   13bfc:	4781                	li	a5,0
   13bfe:	4759                	li	a4,22
   13c00:	1014                	addi	a3,sp,32
   13c02:	96be                	add	a3,a3,a5
   13c04:	0026d683          	lhu	a3,2(a3) # ffffffffffffc002 <__global_pointer$+0xfffffffffffde98a>
   13c08:	16068763          	beqz	a3,13d76 <ediv+0x214>
   13c0c:	1008                	addi	a0,sp,32
   13c0e:	8c7ff0ef          	jal	ra,134d4 <enormlz>
   13c12:	40a004b3          	neg	s1,a0
   13c16:	00215783          	lhu	a5,2(sp)
   13c1a:	8ba2                	mv	s7,s0
   13c1c:	ef89                	bnez	a5,13c36 <ediv+0xd4>
   13c1e:	4759                	li	a4,22
   13c20:	00f106b3          	add	a3,sp,a5
   13c24:	0026d683          	lhu	a3,2(a3)
   13c28:	14068b63          	beqz	a3,13d7e <ediv+0x21c>
   13c2c:	850a                	mv	a0,sp
   13c2e:	8a7ff0ef          	jal	ra,134d4 <enormlz>
   13c32:	40a40bb3          	sub	s7,s0,a0
   13c36:	02015783          	lhu	a5,32(sp)
   13c3a:	02215703          	lhu	a4,34(sp)
   13c3e:	034a8993          	addi	s3,s5,52
   13c42:	02fa9a23          	sh	a5,52(s5)
   13c46:	038a8793          	addi	a5,s5,56
   13c4a:	02ea9b23          	sh	a4,54(s5)
   13c4e:	8a3e                	mv	s4,a5
   13c50:	04ea8713          	addi	a4,s5,78
   13c54:	0789                	addi	a5,a5,2
   13c56:	fe079f23          	sh	zero,-2(a5)
   13c5a:	fee79de3          	bne	a5,a4,13c54 <ediv+0xf2>
   13c5e:	1008                	addi	a0,sp,32
   13c60:	c08ff0ef          	jal	ra,13068 <eshdn1>
   13c64:	00615c03          	lhu	s8,6(sp)
   13c68:	6b41                	lui	s6,0x10
   13c6a:	1b7d                	addi	s6,s6,-1
   13c6c:	036c0d33          	mul	s10,s8,s6
   13c70:	01a98c93          	addi	s9,s3,26
   13c74:	02415783          	lhu	a5,36(sp)
   13c78:	02615403          	lhu	s0,38(sp)
   13c7c:	07c2                	slli	a5,a5,0x10
   13c7e:	97a2                	add	a5,a5,s0
   13c80:	845a                	mv	s0,s6
   13c82:	00fd6663          	bltu	s10,a5,13c8e <ediv+0x12c>
   13c86:	0387d433          	divu	s0,a5,s8
   13c8a:	1442                	slli	s0,s0,0x30
   13c8c:	9041                	srli	s0,s0,0x30
   13c8e:	858a                	mv	a1,sp
   13c90:	8522                	mv	a0,s0
   13c92:	0090                	addi	a2,sp,64
   13c94:	d26ff0ef          	jal	ra,131ba <m16m>
   13c98:	100c                	addi	a1,sp,32
   13c9a:	0088                	addi	a0,sp,64
   13c9c:	ba2ff0ef          	jal	ra,1303e <ecmpm>
   13ca0:	00a05f63          	blez	a0,13cbe <ediv+0x15c>
   13ca4:	008c                	addi	a1,sp,64
   13ca6:	850a                	mv	a0,sp
   13ca8:	ceaff0ef          	jal	ra,13192 <esubm>
   13cac:	100c                	addi	a1,sp,32
   13cae:	0088                	addi	a0,sp,64
   13cb0:	b8eff0ef          	jal	ra,1303e <ecmpm>
   13cb4:	0ea04163          	bgtz	a0,13d96 <ediv+0x234>
   13cb8:	347d                	addiw	s0,s0,-1
   13cba:	1442                	slli	s0,s0,0x30
   13cbc:	9041                	srli	s0,s0,0x30
   13cbe:	100c                	addi	a1,sp,32
   13cc0:	0088                	addi	a0,sp,64
   13cc2:	cd0ff0ef          	jal	ra,13192 <esubm>
   13cc6:	1008                	addi	a0,sp,32
   13cc8:	008a1023          	sh	s0,0(s4)
   13ccc:	0a09                	addi	s4,s4,2
   13cce:	c5eff0ef          	jal	ra,1312c <eshup6>
   13cd2:	fb9a11e3          	bne	s4,s9,13c74 <ediv+0x112>
   13cd6:	4781                	li	a5,0
   13cd8:	4581                	li	a1,0
   13cda:	4759                	li	a4,22
   13cdc:	1014                	addi	a3,sp,32
   13cde:	96be                	add	a3,a3,a5
   13ce0:	0046d683          	lhu	a3,4(a3)
   13ce4:	0789                	addi	a5,a5,2
   13ce6:	8dd5                	or	a1,a1,a3
   13ce8:	fee79ae3          	bne	a5,a4,13cdc <ediv+0x17a>
   13cec:	2581                	sext.w	a1,a1
   13cee:	00b035b3          	snez	a1,a1
   13cf2:	101c                	addi	a5,sp,32
   13cf4:	0009d703          	lhu	a4,0(s3)
   13cf8:	0989                	addi	s3,s3,2
   13cfa:	0789                	addi	a5,a5,2
   13cfc:	fee79f23          	sh	a4,-2(a5)
   13d00:	ff3a1ae3          	bne	s4,s3,13cf4 <ediv+0x192>
   13d04:	6691                	lui	a3,0x4
   13d06:	417484b3          	sub	s1,s1,s7
   13d0a:	16fd                	addi	a3,a3,-1
   13d0c:	87d6                	mv	a5,s5
   13d0e:	04000713          	li	a4,64
   13d12:	96a6                	add	a3,a3,s1
   13d14:	4601                	li	a2,0
   13d16:	1008                	addi	a0,sp,32
   13d18:	983ff0ef          	jal	ra,1369a <emdnorm>
   13d1c:	00015703          	lhu	a4,0(sp)
   13d20:	02015783          	lhu	a5,32(sp)
   13d24:	08f71163          	bne	a4,a5,13da6 <ediv+0x244>
   13d28:	02011023          	sh	zero,32(sp)
   13d2c:	85ca                	mv	a1,s2
   13d2e:	1008                	addi	a0,sp,32
   13d30:	85bff0ef          	jal	ra,1358a <emovo.isra.6>
   13d34:	bdb9                	j	13b92 <ediv+0x30>
   13d36:	28898593          	addi	a1,s3,648
   13d3a:	8522                	mv	a0,s0
   13d3c:	dd2ff0ef          	jal	ra,1330e <ecmp>
   13d40:	e80516e3          	bnez	a0,13bcc <ediv+0x6a>
   13d44:	854a                	mv	a0,s2
   13d46:	825ff0ef          	jal	ra,1356a <enan.constprop.12>
   13d4a:	b5a1                	j	13b92 <ediv+0x30>
   13d4c:	fd65                	bnez	a0,13d44 <ediv+0x1e2>
   13d4e:	854a                	mv	a0,s2
   13d50:	a9cff0ef          	jal	ra,12fec <eclear>
   13d54:	bd3d                	j	13b92 <ediv+0x30>
   13d56:	8526                	mv	a0,s1
   13d58:	cfcff0ef          	jal	ra,13254 <eisneg>
   13d5c:	84aa                	mv	s1,a0
   13d5e:	8522                	mv	a0,s0
   13d60:	cf4ff0ef          	jal	ra,13254 <eisneg>
   13d64:	02a48663          	beq	s1,a0,13d90 <ediv+0x22e>
   13d68:	77e1                	lui	a5,0xffff8
   13d6a:	00f91923          	sh	a5,18(s2)
   13d6e:	854a                	mv	a0,s2
   13d70:	e66ff0ef          	jal	ra,133d6 <einfin.isra.2>
   13d74:	bd39                	j	13b92 <ediv+0x30>
   13d76:	0789                	addi	a5,a5,2
   13d78:	e8e794e3          	bne	a5,a4,13c00 <ediv+0x9e>
   13d7c:	bfc9                	j	13d4e <ediv+0x1ec>
   13d7e:	0789                	addi	a5,a5,2
   13d80:	eae790e3          	bne	a5,a4,13c20 <ediv+0xbe>
   13d84:	00015703          	lhu	a4,0(sp)
   13d88:	02015783          	lhu	a5,32(sp)
   13d8c:	fcf71ee3          	bne	a4,a5,13d68 <ediv+0x206>
   13d90:	00091923          	sh	zero,18(s2)
   13d94:	bfe9                	j	13d6e <ediv+0x20c>
   13d96:	3479                	addiw	s0,s0,-2
   13d98:	1442                	slli	s0,s0,0x30
   13d9a:	008c                	addi	a1,sp,64
   13d9c:	850a                	mv	a0,sp
   13d9e:	9041                	srli	s0,s0,0x30
   13da0:	bf2ff0ef          	jal	ra,13192 <esubm>
   13da4:	bf29                	j	13cbe <ediv+0x15c>
   13da6:	57fd                	li	a5,-1
   13da8:	02f11023          	sh	a5,32(sp)
   13dac:	b741                	j	13d2c <ediv+0x1ca>

0000000000013dae <_ldtoa_r>:
   13dae:	db010113          	addi	sp,sp,-592
   13db2:	ffe6                	sd	s9,504(sp)
   13db4:	8cbe                	mv	s9,a5
   13db6:	09100793          	li	a5,145
   13dba:	e0ae                	sd	a1,64(sp)
   13dbc:	1782                	slli	a5,a5,0x20
   13dbe:	712c                	ld	a1,96(a0)
   13dc0:	17fd                	addi	a5,a5,-1
   13dc2:	24813023          	sd	s0,576(sp)
   13dc6:	23413023          	sd	s4,544(sp)
   13dca:	21513c23          	sd	s5,536(sp)
   13dce:	21713423          	sd	s7,520(sp)
   13dd2:	24113423          	sd	ra,584(sp)
   13dd6:	22913c23          	sd	s1,568(sp)
   13dda:	23213823          	sd	s2,560(sp)
   13dde:	23313423          	sd	s3,552(sp)
   13de2:	21613823          	sd	s6,528(sp)
   13de6:	21813023          	sd	s8,512(sp)
   13dea:	fbea                	sd	s10,496(sp)
   13dec:	f7ee                	sd	s11,488(sp)
   13dee:	ec46                	sd	a7,24(sp)
   13df0:	e4b2                	sd	a2,72(sp)
   13df2:	eb3e                	sd	a5,400(sp)
   13df4:	8a2a                	mv	s4,a0
   13df6:	8bb6                	mv	s7,a3
   13df8:	8aba                	mv	s5,a4
   13dfa:	8442                	mv	s0,a6
   13dfc:	c999                	beqz	a1,13e12 <_ldtoa_r+0x64>
   13dfe:	5538                	lw	a4,104(a0)
   13e00:	4785                	li	a5,1
   13e02:	00e797bb          	sllw	a5,a5,a4
   13e06:	c598                	sw	a4,8(a1)
   13e08:	c5dc                	sw	a5,12(a1)
   13e0a:	3c3000ef          	jal	ra,149cc <_Bfree>
   13e0e:	060a3023          	sd	zero,96(s4)
   13e12:	0088                	addi	a0,sp,64
   13e14:	188c                	addi	a1,sp,112
   13e16:	fc6ff0ef          	jal	ra,135dc <e113toe.isra.8>
   13e1a:	1888                	addi	a0,sp,112
   13e1c:	c38ff0ef          	jal	ra,13254 <eisneg>
   13e20:	cd5d                	beqz	a0,13ede <_ldtoa_r+0x130>
   13e22:	4785                	li	a5,1
   13e24:	c01c                	sw	a5,0(s0)
   13e26:	478d                	li	a5,3
   13e28:	0afb8e63          	beq	s7,a5,13ee4 <_ldtoa_r+0x136>
   13e2c:	4951                	li	s2,20
   13e2e:	000b8c63          	beqz	s7,13e46 <_ldtoa_r+0x98>
   13e32:	fffa879b          	addiw	a5,s5,-1
   13e36:	02a00713          	li	a4,42
   13e3a:	0007891b          	sext.w	s2,a5
   13e3e:	00f75463          	ble	a5,a4,13e46 <_ldtoa_r+0x98>
   13e42:	02a00913          	li	s2,42
   13e46:	19412783          	lw	a5,404(sp)
   13e4a:	1888                	addi	a0,sp,112
   13e4c:	f03e                	sd	a5,32(sp)
   13e4e:	be0ff0ef          	jal	ra,1322e <eisnan>
   13e52:	842a                	mv	s0,a0
   13e54:	c951                	beqz	a0,13ee8 <_ldtoa_r+0x13a>
   13e56:	0001a5b7          	lui	a1,0x1a
   13e5a:	4f058593          	addi	a1,a1,1264 # 1a4f0 <emtens+0x108>
   13e5e:	0a88                	addi	a0,sp,336
   13e60:	6409                	lui	s0,0x2
   13e62:	26b010ef          	jal	ra,158cc <sprintf>
   13e66:	70f40413          	addi	s0,s0,1807 # 270f <_start-0xd9a1>
   13e6a:	7782                	ld	a5,32(sp)
   13e6c:	1888                	addi	a0,sp,112
   13e6e:	1a812023          	sw	s0,416(sp)
   13e72:	18f12a23          	sw	a5,404(sp)
   13e76:	d3cff0ef          	jal	ra,133b2 <eisinf>
   13e7a:	15010993          	addi	s3,sp,336
   13e7e:	e511                	bnez	a0,13e8a <_ldtoa_r+0xdc>
   13e80:	1888                	addi	a0,sp,112
   13e82:	bacff0ef          	jal	ra,1322e <eisnan>
   13e86:	70050563          	beqz	a0,14590 <_ldtoa_r+0x7e2>
   13e8a:	6789                	lui	a5,0x2
   13e8c:	70f7879b          	addiw	a5,a5,1807
   13e90:	00fca023          	sw	a5,0(s9)
   13e94:	87ce                	mv	a5,s3
   13e96:	02000613          	li	a2,32
   13e9a:	02d00693          	li	a3,45
   13e9e:	0007c703          	lbu	a4,0(a5) # 2000 <_start-0xe0b0>
   13ea2:	72c70b63          	beq	a4,a2,145d8 <_ldtoa_r+0x82a>
   13ea6:	72d70963          	beq	a4,a3,145d8 <_ldtoa_r+0x82a>
   13eaa:	844e                	mv	s0,s3
   13eac:	0785                	addi	a5,a5,1
   13eae:	fff7c703          	lbu	a4,-1(a5)
   13eb2:	00140693          	addi	a3,s0,1
   13eb6:	fee68fa3          	sb	a4,-1(a3) # 3fff <_start-0xc0b1>
   13eba:	72071263          	bnez	a4,145de <_ldtoa_r+0x830>
   13ebe:	4709                	li	a4,2
   13ec0:	4785                	li	a5,1
   13ec2:	00eb8a63          	beq	s7,a4,13ed6 <_ldtoa_r+0x128>
   13ec6:	1a012783          	lw	a5,416(sp)
   13eca:	0007871b          	sext.w	a4,a5
   13ece:	01275363          	ble	s2,a4,13ed4 <_ldtoa_r+0x126>
   13ed2:	87ca                	mv	a5,s2
   13ed4:	2781                	sext.w	a5,a5
   13ed6:	03000693          	li	a3,48
   13eda:	7100006f          	j	145ea <_ldtoa_r+0x83c>
   13ede:	00042023          	sw	zero,0(s0)
   13ee2:	b791                	j	13e26 <_ldtoa_r+0x78>
   13ee4:	87d6                	mv	a5,s5
   13ee6:	bf81                	j	13e36 <_ldtoa_r+0x88>
   13ee8:	09000793          	li	a5,144
   13eec:	090c                	addi	a1,sp,144
   13eee:	1888                	addi	a0,sp,112
   13ef0:	18f12a23          	sw	a5,404(sp)
   13ef4:	908ff0ef          	jal	ra,12ffc <emov>
   13ef8:	0a215783          	lhu	a5,162(sp)
   13efc:	e402                	sd	zero,8(sp)
   13efe:	0107971b          	slliw	a4,a5,0x10
   13f02:	4107571b          	sraiw	a4,a4,0x10
   13f06:	02071693          	slli	a3,a4,0x20
   13f0a:	0006da63          	bgez	a3,13f1e <_ldtoa_r+0x170>
   13f0e:	6721                	lui	a4,0x8
   13f10:	177d                	addi	a4,a4,-1
   13f12:	8ff9                	and	a5,a5,a4
   13f14:	0af11123          	sh	a5,162(sp)
   13f18:	67c1                	lui	a5,0x10
   13f1a:	17fd                	addi	a5,a5,-1
   13f1c:	e43e                	sd	a5,8(sp)
   13f1e:	6b69                	lui	s6,0x1a
   13f20:	288b0513          	addi	a0,s6,648 # 1a288 <ezero>
   13f24:	190c                	addi	a1,sp,176
   13f26:	0561                	addi	a0,a0,24
   13f28:	8d4ff0ef          	jal	ra,12ffc <emov>
   13f2c:	0a215703          	lhu	a4,162(sp)
   13f30:	64e9                	lui	s1,0x1a
   13f32:	288b0993          	addi	s3,s6,648
   13f36:	2a048493          	addi	s1,s1,672 # 1a2a0 <eone>
   13f3a:	74071c63          	bnez	a4,14692 <_ldtoa_r+0x8e4>
   13f3e:	091c                	addi	a5,sp,144
   13f40:	0a210713          	addi	a4,sp,162
   13f44:	0007d683          	lhu	a3,0(a5) # 10000 <_start-0xb0>
   13f48:	e6e1                	bnez	a3,14010 <_ldtoa_r+0x262>
   13f4a:	0789                	addi	a5,a5,2
   13f4c:	fef71ce3          	bne	a4,a5,13f44 <_ldtoa_r+0x196>
   13f50:	198c                	addi	a1,sp,240
   13f52:	1908                	addi	a0,sp,176
   13f54:	b20ff0ef          	jal	ra,13274 <emovi>
   13f58:	190c                	addi	a1,sp,176
   13f5a:	1988                	addi	a0,sp,240
   13f5c:	8c6ff0ef          	jal	ra,13022 <emovz>
   13f60:	198c                	addi	a1,sp,240
   13f62:	0908                	addi	a0,sp,144
   13f64:	b10ff0ef          	jal	ra,13274 <emovi>
   13f68:	090c                	addi	a1,sp,144
   13f6a:	1988                	addi	a0,sp,240
   13f6c:	8b6ff0ef          	jal	ra,13022 <emovz>
   13f70:	0b10                	addi	a2,sp,400
   13f72:	090c                	addi	a1,sp,144
   13f74:	1908                	addi	a0,sp,176
   13f76:	98bff0ef          	jal	ra,13900 <eiremain>
   13f7a:	1dc15483          	lhu	s1,476(sp)
   13f7e:	e881                	bnez	s1,13f8e <_ldtoa_r+0x1e0>
   13f80:	288b0593          	addi	a1,s6,648
   13f84:	0908                	addi	a0,sp,144
   13f86:	b88ff0ef          	jal	ra,1330e <ecmp>
   13f8a:	4c051763          	bnez	a0,14458 <_ldtoa_r+0x6aa>
   13f8e:	67a2                	ld	a5,8(sp)
   13f90:	4e078e63          	beqz	a5,1448c <_ldtoa_r+0x6de>
   13f94:	02d00793          	li	a5,45
   13f98:	14f10823          	sb	a5,336(sp)
   13f9c:	478d                	li	a5,3
   13f9e:	89ca                	mv	s3,s2
   13fa0:	00fb9863          	bne	s7,a5,13fb0 <_ldtoa_r+0x202>
   13fa4:	008909bb          	addw	s3,s2,s0
   13fa8:	02a00793          	li	a5,42
   13fac:	7137c063          	blt	a5,s3,146ac <_ldtoa_r+0x8fe>
   13fb0:	47a9                	li	a5,10
   13fb2:	4ef49063          	bne	s1,a5,14492 <_ldtoa_r+0x6e4>
   13fb6:	03100793          	li	a5,49
   13fba:	14f108a3          	sb	a5,337(sp)
   13fbe:	02e00793          	li	a5,46
   13fc2:	14f10923          	sb	a5,338(sp)
   13fc6:	15310c13          	addi	s8,sp,339
   13fca:	01305963          	blez	s3,13fdc <_ldtoa_r+0x22e>
   13fce:	03000793          	li	a5,48
   13fd2:	14f109a3          	sb	a5,339(sp)
   13fd6:	39fd                	addiw	s3,s3,-1
   13fd8:	15410c13          	addi	s8,sp,340
   13fdc:	2405                	addiw	s0,s0,1
   13fde:	4c09d463          	bgez	s3,144a6 <_ldtoa_r+0x6f8>
   13fe2:	0001a5b7          	lui	a1,0x1a
   13fe6:	8622                	mv	a2,s0
   13fe8:	52058593          	addi	a1,a1,1312 # 1a520 <emtens+0x138>
   13fec:	8562                	mv	a0,s8
   13fee:	0df010ef          	jal	ra,158cc <sprintf>
   13ff2:	bda5                	j	13e6a <_ldtoa_r+0xbc>
   13ff4:	0001a5b7          	lui	a1,0x1a
   13ff8:	50858593          	addi	a1,a1,1288 # 1a508 <emtens+0x120>
   13ffc:	b58d                	j	13e5e <_ldtoa_r+0xb0>
   13ffe:	0a011783          	lh	a5,160(sp)
   14002:	0007c763          	bltz	a5,14010 <_ldtoa_r+0x262>
   14006:	0001a5b7          	lui	a1,0x1a
   1400a:	51858593          	addi	a1,a1,1304 # 1a518 <emtens+0x130>
   1400e:	bd81                	j	13e5e <_ldtoa_r+0xb0>
   14010:	090c                	addi	a1,sp,144
   14012:	8526                	mv	a0,s1
   14014:	afaff0ef          	jal	ra,1330e <ecmp>
   14018:	dd05                	beqz	a0,13f50 <_ldtoa_r+0x1a2>
   1401a:	32055363          	bgez	a0,14340 <_ldtoa_r+0x592>
   1401e:	098c                	addi	a1,sp,208
   14020:	0908                	addi	a0,sp,144
   14022:	fdbfe0ef          	jal	ra,12ffc <emov>
   14026:	6791                	lui	a5,0x4
   14028:	08e7879b          	addiw	a5,a5,142
   1402c:	0ef11123          	sh	a5,226(sp)
   14030:	47c1                	li	a5,16
   14032:	e83e                	sd	a5,16(sp)
   14034:	67a1                	lui	a5,0x8
   14036:	17fd                	addi	a5,a5,-1
   14038:	f43e                	sd	a5,40(sp)
   1403a:	77f1                	lui	a5,0xffffc
   1403c:	2789                	addiw	a5,a5,2
   1403e:	4d01                	li	s10,0
   14040:	da3e                	sw	a5,52(sp)
   14042:	67e9                	lui	a5,0x1a
   14044:	35878793          	addi	a5,a5,856 # 1a358 <etens+0xa0>
   14048:	01a78533          	add	a0,a5,s10
   1404c:	0b14                	addi	a3,sp,400
   1404e:	1910                	addi	a2,sp,176
   14050:	098c                	addi	a1,sp,208
   14052:	b11ff0ef          	jal	ra,13b62 <ediv>
   14056:	08ac                	addi	a1,sp,88
   14058:	1908                	addi	a0,sp,176
   1405a:	fa3fe0ef          	jal	ra,12ffc <emov>
   1405e:	77a2                	ld	a5,40(sp)
   14060:	06a15c03          	lhu	s8,106(sp)
   14064:	00fc76b3          	and	a3,s8,a5
   14068:	57d2                	lw	a5,52(sp)
   1406a:	9fb5                	addw	a5,a5,a3
   1406c:	86be                	mv	a3,a5
   1406e:	04f04163          	bgtz	a5,140b0 <_ldtoa_r+0x302>
   14072:	1988                	addi	a0,sp,240
   14074:	f79fe0ef          	jal	ra,12fec <eclear>
   14078:	010c1c1b          	slliw	s8,s8,0x10
   1407c:	410c5c1b          	sraiw	s8,s8,0x10
   14080:	020c1793          	slli	a5,s8,0x20
   14084:	0c07d063          	bgez	a5,14144 <_ldtoa_r+0x396>
   14088:	4781                	li	a5,0
   1408a:	08b8                	addi	a4,sp,88
   1408c:	973e                	add	a4,a4,a5
   1408e:	00075683          	lhu	a3,0(a4) # 8000 <_start-0x80b0>
   14092:	1998                	addi	a4,sp,240
   14094:	973e                	add	a4,a4,a5
   14096:	00075703          	lhu	a4,0(a4)
   1409a:	28e68e63          	beq	a3,a4,14336 <_ldtoa_r+0x588>
   1409e:	8526                	mv	a0,s1
   140a0:	98eff0ef          	jal	ra,1322e <eisnan>
   140a4:	c135                	beqz	a0,14108 <_ldtoa_r+0x35a>
   140a6:	198c                	addi	a1,sp,240
   140a8:	8526                	mv	a0,s1
   140aa:	f53fe0ef          	jal	ra,12ffc <emov>
   140ae:	a859                	j	14144 <_ldtoa_r+0x396>
   140b0:	09000793          	li	a5,144
   140b4:	40d7873b          	subw	a4,a5,a3
   140b8:	198c                	addi	a1,sp,240
   140ba:	08a8                	addi	a0,sp,88
   140bc:	8dba                	mv	s11,a4
   140be:	fc3a                	sd	a4,56(sp)
   140c0:	f3dfe0ef          	jal	ra,12ffc <emov>
   140c4:	7762                	ld	a4,56(sp)
   140c6:	06e05f63          	blez	a4,14144 <_ldtoa_r+0x396>
   140ca:	199c                	addi	a5,sp,240
   140cc:	463d                	li	a2,15
   140ce:	02e64863          	blt	a2,a4,140fe <_ldtoa_r+0x350>
   140d2:	004dd61b          	srliw	a2,s11,0x4
   140d6:	02061713          	slli	a4,a2,0x20
   140da:	199c                	addi	a5,sp,240
   140dc:	837d                	srli	a4,a4,0x1f
   140de:	973e                	add	a4,a4,a5
   140e0:	57c1                	li	a5,-16
   140e2:	02c787bb          	mulw	a5,a5,a2
   140e6:	00075683          	lhu	a3,0(a4)
   140ea:	01b787bb          	addw	a5,a5,s11
   140ee:	0786                	slli	a5,a5,0x1
   140f0:	97ce                	add	a5,a5,s3
   140f2:	1387d783          	lhu	a5,312(a5)
   140f6:	8ff5                	and	a5,a5,a3
   140f8:	00f71023          	sh	a5,0(a4)
   140fc:	bfb5                	j	14078 <_ldtoa_r+0x2ca>
   140fe:	00079023          	sh	zero,0(a5)
   14102:	3741                	addiw	a4,a4,-16
   14104:	0789                	addi	a5,a5,2
   14106:	b7e1                	j	140ce <_ldtoa_r+0x320>
   14108:	1988                	addi	a0,sp,240
   1410a:	924ff0ef          	jal	ra,1322e <eisnan>
   1410e:	c501                	beqz	a0,14116 <_ldtoa_r+0x368>
   14110:	198c                	addi	a1,sp,240
   14112:	852e                	mv	a0,a1
   14114:	bf59                	j	140aa <_ldtoa_r+0x2fc>
   14116:	8526                	mv	a0,s1
   14118:	a9aff0ef          	jal	ra,133b2 <eisinf>
   1411c:	8daa                	mv	s11,a0
   1411e:	1988                	addi	a0,sp,240
   14120:	a92ff0ef          	jal	ra,133b2 <eisinf>
   14124:	8c2a                	mv	s8,a0
   14126:	0e0d8963          	beqz	s11,14218 <_ldtoa_r+0x46a>
   1412a:	c961                	beqz	a0,141fa <_ldtoa_r+0x44c>
   1412c:	8526                	mv	a0,s1
   1412e:	926ff0ef          	jal	ra,13254 <eisneg>
   14132:	8c2a                	mv	s8,a0
   14134:	1988                	addi	a0,sp,240
   14136:	91eff0ef          	jal	ra,13254 <eisneg>
   1413a:	0cac1063          	bne	s8,a0,141fa <_ldtoa_r+0x44c>
   1413e:	1988                	addi	a0,sp,240
   14140:	c2aff0ef          	jal	ra,1356a <enan.constprop.12>
   14144:	4781                	li	a5,0
   14146:	1918                	addi	a4,sp,176
   14148:	973e                	add	a4,a4,a5
   1414a:	00075683          	lhu	a3,0(a4)
   1414e:	1998                	addi	a4,sp,240
   14150:	973e                	add	a4,a4,a5
   14152:	00075703          	lhu	a4,0(a4)
   14156:	00e69c63          	bne	a3,a4,1416e <_ldtoa_r+0x3c0>
   1415a:	0789                	addi	a5,a5,2
   1415c:	4749                	li	a4,18
   1415e:	fee794e3          	bne	a5,a4,14146 <_ldtoa_r+0x398>
   14162:	098c                	addi	a1,sp,208
   14164:	1908                	addi	a0,sp,176
   14166:	e97fe0ef          	jal	ra,12ffc <emov>
   1416a:	67c2                	ld	a5,16(sp)
   1416c:	9c3d                	addw	s0,s0,a5
   1416e:	67c2                	ld	a5,16(sp)
   14170:	0d51                	addi	s10,s10,20
   14172:	8385                	srli	a5,a5,0x1
   14174:	e83e                	sd	a5,16(sp)
   14176:	06400793          	li	a5,100
   1417a:	ecfd14e3          	bne	s10,a5,14042 <_ldtoa_r+0x294>
   1417e:	0e215783          	lhu	a5,226(sp)
   14182:	0a215703          	lhu	a4,162(sp)
   14186:	090c                	addi	a1,sp,144
   14188:	0988                	addi	a0,sp,208
   1418a:	9fb9                	addw	a5,a5,a4
   1418c:	7771                	lui	a4,0xffffc
   1418e:	f727071b          	addiw	a4,a4,-142
   14192:	9fb9                	addw	a5,a5,a4
   14194:	0ef11123          	sh	a5,226(sp)
   14198:	e65fe0ef          	jal	ra,12ffc <emov>
   1419c:	8526                	mv	a0,s1
   1419e:	190c                	addi	a1,sp,176
   141a0:	e5dfe0ef          	jal	ra,12ffc <emov>
   141a4:	4481                	li	s1,0
   141a6:	6d05                	lui	s10,0x1
   141a8:	12098993          	addi	s3,s3,288
   141ac:	10400d93          	li	s11,260
   141b0:	67e9                	lui	a5,0x1a
   141b2:	2b878793          	addi	a5,a5,696 # 1a2b8 <etens>
   141b6:	098c                	addi	a1,sp,208
   141b8:	854e                	mv	a0,s3
   141ba:	00f48c33          	add	s8,s1,a5
   141be:	950ff0ef          	jal	ra,1330e <ecmp>
   141c2:	d8a047e3          	bgtz	a0,13f50 <_ldtoa_r+0x1a2>
   141c6:	098c                	addi	a1,sp,208
   141c8:	8562                	mv	a0,s8
   141ca:	944ff0ef          	jal	ra,1330e <ecmp>
   141ce:	02a04063          	bgtz	a0,141ee <_ldtoa_r+0x440>
   141d2:	0990                	addi	a2,sp,208
   141d4:	85b2                	mv	a1,a2
   141d6:	0b14                	addi	a3,sp,400
   141d8:	8562                	mv	a0,s8
   141da:	989ff0ef          	jal	ra,13b62 <ediv>
   141de:	1910                	addi	a2,sp,176
   141e0:	0b14                	addi	a3,sp,400
   141e2:	85b2                	mv	a1,a2
   141e4:	8562                	mv	a0,s8
   141e6:	faeff0ef          	jal	ra,13994 <emul>
   141ea:	008d043b          	addw	s0,s10,s0
   141ee:	04d1                	addi	s1,s1,20
   141f0:	001d5d13          	srli	s10,s10,0x1
   141f4:	fbb49ee3          	bne	s1,s11,141b0 <_ldtoa_r+0x402>
   141f8:	bba1                	j	13f50 <_ldtoa_r+0x1a2>
   141fa:	8526                	mv	a0,s1
   141fc:	198c                	addi	a1,sp,240
   141fe:	dfffe0ef          	jal	ra,12ffc <emov>
   14202:	1988                	addi	a0,sp,240
   14204:	82aff0ef          	jal	ra,1322e <eisnan>
   14208:	fd15                	bnez	a0,14144 <_ldtoa_r+0x396>
   1420a:	10215783          	lhu	a5,258(sp)
   1420e:	7761                	lui	a4,0xffff8
   14210:	8fb9                	xor	a5,a5,a4
   14212:	10f11123          	sh	a5,258(sp)
   14216:	b73d                	j	14144 <_ldtoa_r+0x396>
   14218:	ee051ce3          	bnez	a0,14110 <_ldtoa_r+0x362>
   1421c:	0a0c                	addi	a1,sp,272
   1421e:	8526                	mv	a0,s1
   14220:	854ff0ef          	jal	ra,13274 <emovi>
   14224:	1a0c                	addi	a1,sp,304
   14226:	1988                	addi	a0,sp,240
   14228:	84cff0ef          	jal	ra,13274 <emovi>
   1422c:	11015703          	lhu	a4,272(sp)
   14230:	13215d83          	lhu	s11,306(sp)
   14234:	11215783          	lhu	a5,274(sp)
   14238:	fff74713          	not	a4,a4
   1423c:	1742                	slli	a4,a4,0x30
   1423e:	9341                	srli	a4,a4,0x30
   14240:	10e11823          	sh	a4,272(sp)
   14244:	41b787b3          	sub	a5,a5,s11
   14248:	06f05363          	blez	a5,142ae <_ldtoa_r+0x500>
   1424c:	0a8c                	addi	a1,sp,336
   1424e:	1a08                	addi	a0,sp,304
   14250:	fc3e                	sd	a5,56(sp)
   14252:	dd1fe0ef          	jal	ra,13022 <emovz>
   14256:	1a0c                	addi	a1,sp,304
   14258:	0a08                	addi	a0,sp,272
   1425a:	dc9fe0ef          	jal	ra,13022 <emovz>
   1425e:	0a0c                	addi	a1,sp,272
   14260:	0a88                	addi	a0,sp,336
   14262:	dc1fe0ef          	jal	ra,13022 <emovz>
   14266:	77e2                	ld	a5,56(sp)
   14268:	13215d83          	lhu	s11,306(sp)
   1426c:	40f007b3          	neg	a5,a5
   14270:	f6f00713          	li	a4,-145
   14274:	06e7c763          	blt	a5,a4,142e2 <_ldtoa_r+0x534>
   14278:	85be                	mv	a1,a5
   1427a:	0a08                	addi	a0,sp,272
   1427c:	978ff0ef          	jal	ra,133f4 <eshift.part.3>
   14280:	882a                	mv	a6,a0
   14282:	11015703          	lhu	a4,272(sp)
   14286:	13015783          	lhu	a5,304(sp)
   1428a:	fc42                	sd	a6,56(sp)
   1428c:	1a0c                	addi	a1,sp,304
   1428e:	0a08                	addi	a0,sp,272
   14290:	08f71f63          	bne	a4,a5,1432e <_ldtoa_r+0x580>
   14294:	ed7fe0ef          	jal	ra,1316a <eaddm>
   14298:	7862                	ld	a6,56(sp)
   1429a:	0b1c                	addi	a5,sp,400
   1429c:	04000713          	li	a4,64
   142a0:	86ee                	mv	a3,s11
   142a2:	8662                	mv	a2,s8
   142a4:	85c2                	mv	a1,a6
   142a6:	1a08                	addi	a0,sp,304
   142a8:	bf2ff0ef          	jal	ra,1369a <emdnorm>
   142ac:	a81d                	j	142e2 <_ldtoa_r+0x534>
   142ae:	f3e9                	bnez	a5,14270 <_ldtoa_r+0x4c2>
   142b0:	1a0c                	addi	a1,sp,304
   142b2:	0a08                	addi	a0,sp,272
   142b4:	fc3a                	sd	a4,56(sp)
   142b6:	d89fe0ef          	jal	ra,1303e <ecmpm>
   142ba:	e929                	bnez	a0,1430c <_ldtoa_r+0x55e>
   142bc:	13015783          	lhu	a5,304(sp)
   142c0:	7762                	ld	a4,56(sp)
   142c2:	00e78663          	beq	a5,a4,142ce <_ldtoa_r+0x520>
   142c6:	1988                	addi	a0,sp,240
   142c8:	d25fe0ef          	jal	ra,12fec <eclear>
   142cc:	bda5                	j	14144 <_ldtoa_r+0x396>
   142ce:	000d9f63          	bnez	s11,142ec <_ldtoa_r+0x53e>
   142d2:	13611703          	lh	a4,310(sp)
   142d6:	4781                	li	a5,0
   142d8:	00074b63          	bltz	a4,142ee <_ldtoa_r+0x540>
   142dc:	1a08                	addi	a0,sp,304
   142de:	dc3fe0ef          	jal	ra,130a0 <eshup1>
   142e2:	198c                	addi	a1,sp,240
   142e4:	1a08                	addi	a0,sp,304
   142e6:	aa4ff0ef          	jal	ra,1358a <emovo.isra.6>
   142ea:	bda9                	j	14144 <_ldtoa_r+0x396>
   142ec:	4781                	li	a5,0
   142ee:	4759                	li	a4,22
   142f0:	1a14                	addi	a3,sp,304
   142f2:	00f68633          	add	a2,a3,a5
   142f6:	00265603          	lhu	a2,2(a2)
   142fa:	c609                	beqz	a2,14304 <_ldtoa_r+0x556>
   142fc:	0d85                	addi	s11,s11,1
   142fe:	13b11923          	sh	s11,306(sp)
   14302:	b7c5                	j	142e2 <_ldtoa_r+0x534>
   14304:	0789                	addi	a5,a5,2
   14306:	fee795e3          	bne	a5,a4,142f0 <_ldtoa_r+0x542>
   1430a:	bfd5                	j	142fe <_ldtoa_r+0x550>
   1430c:	4801                	li	a6,0
   1430e:	f6a05ae3          	blez	a0,14282 <_ldtoa_r+0x4d4>
   14312:	0a8c                	addi	a1,sp,336
   14314:	1a08                	addi	a0,sp,304
   14316:	d0dfe0ef          	jal	ra,13022 <emovz>
   1431a:	1a0c                	addi	a1,sp,304
   1431c:	0a08                	addi	a0,sp,272
   1431e:	d05fe0ef          	jal	ra,13022 <emovz>
   14322:	0a0c                	addi	a1,sp,272
   14324:	0a88                	addi	a0,sp,336
   14326:	cfdfe0ef          	jal	ra,13022 <emovz>
   1432a:	8862                	mv	a6,s8
   1432c:	bf99                	j	14282 <_ldtoa_r+0x4d4>
   1432e:	e65fe0ef          	jal	ra,13192 <esubm>
   14332:	4c05                	li	s8,1
   14334:	b795                	j	14298 <_ldtoa_r+0x4ea>
   14336:	0789                	addi	a5,a5,2
   14338:	4749                	li	a4,18
   1433a:	d4e798e3          	bne	a5,a4,1408a <_ldtoa_r+0x2dc>
   1433e:	b519                	j	14144 <_ldtoa_r+0x396>
   14340:	0a215783          	lhu	a5,162(sp)
   14344:	12098c13          	addi	s8,s3,288
   14348:	cfad                	beqz	a5,143c2 <_ldtoa_r+0x614>
   1434a:	198c                	addi	a1,sp,240
   1434c:	0908                	addi	a0,sp,144
   1434e:	6c11                	lui	s8,0x4
   14350:	f25fe0ef          	jal	ra,13274 <emovi>
   14354:	1c79                	addi	s8,s8,-2
   14356:	fd500d13          	li	s10,-43
   1435a:	10815783          	lhu	a5,264(sp)
   1435e:	8b9d                	andi	a5,a5,7
   14360:	e7a9                	bnez	a5,143aa <_ldtoa_r+0x5fc>
   14362:	098c                	addi	a1,sp,208
   14364:	1988                	addi	a0,sp,240
   14366:	cbdfe0ef          	jal	ra,13022 <emovz>
   1436a:	0988                	addi	a0,sp,208
   1436c:	cfdfe0ef          	jal	ra,13068 <eshdn1>
   14370:	0988                	addi	a0,sp,208
   14372:	cf7fe0ef          	jal	ra,13068 <eshdn1>
   14376:	098c                	addi	a1,sp,208
   14378:	1988                	addi	a0,sp,240
   1437a:	df1fe0ef          	jal	ra,1316a <eaddm>
   1437e:	0d215783          	lhu	a5,210(sp)
   14382:	278d                	addiw	a5,a5,3
   14384:	0cf11923          	sh	a5,210(sp)
   14388:	0d415783          	lhu	a5,212(sp)
   1438c:	efdd                	bnez	a5,1444a <_ldtoa_r+0x69c>
   1438e:	0e815783          	lhu	a5,232(sp)
   14392:	ef81                	bnez	a5,143aa <_ldtoa_r+0x5fc>
   14394:	0d215783          	lhu	a5,210(sp)
   14398:	00fc6963          	bltu	s8,a5,143aa <_ldtoa_r+0x5fc>
   1439c:	198c                	addi	a1,sp,240
   1439e:	0988                	addi	a0,sp,208
   143a0:	347d                	addiw	s0,s0,-1
   143a2:	c81fe0ef          	jal	ra,13022 <emovz>
   143a6:	fba41ae3          	bne	s0,s10,1435a <_ldtoa_r+0x5ac>
   143aa:	090c                	addi	a1,sp,144
   143ac:	1988                	addi	a0,sp,240
   143ae:	9dcff0ef          	jal	ra,1358a <emovo.isra.6>
   143b2:	a821                	j	143ca <_ldtoa_r+0x61c>
   143b4:	0910                	addi	a2,sp,144
   143b6:	0b14                	addi	a3,sp,400
   143b8:	85b2                	mv	a1,a2
   143ba:	8562                	mv	a0,s8
   143bc:	dd8ff0ef          	jal	ra,13994 <emul>
   143c0:	347d                	addiw	s0,s0,-1
   143c2:	0a011783          	lh	a5,160(sp)
   143c6:	fe07d7e3          	bgez	a5,143b4 <_ldtoa_r+0x606>
   143ca:	198c                	addi	a1,sp,240
   143cc:	0908                	addi	a0,sp,144
   143ce:	c2ffe0ef          	jal	ra,12ffc <emov>
   143d2:	190c                	addi	a1,sp,176
   143d4:	8526                	mv	a0,s1
   143d6:	c27fe0ef          	jal	ra,12ffc <emov>
   143da:	16098793          	addi	a5,s3,352
   143de:	4d01                	li	s10,0
   143e0:	7c7d                	lui	s8,0xfffff
   143e2:	e83e                	sd	a5,16(sp)
   143e4:	4d89                	li	s11,2
   143e6:	67e9                	lui	a5,0x1a
   143e8:	2b878793          	addi	a5,a5,696 # 1a2b8 <etens>
   143ec:	01a789b3          	add	s3,a5,s10
   143f0:	67c2                	ld	a5,16(sp)
   143f2:	198c                	addi	a1,sp,240
   143f4:	8526                	mv	a0,s1
   143f6:	01a78733          	add	a4,a5,s10
   143fa:	f43a                	sd	a4,40(sp)
   143fc:	f13fe0ef          	jal	ra,1330e <ecmp>
   14400:	7722                	ld	a4,40(sp)
   14402:	02a05d63          	blez	a0,1443c <_ldtoa_r+0x68e>
   14406:	198c                	addi	a1,sp,240
   14408:	853a                	mv	a0,a4
   1440a:	f05fe0ef          	jal	ra,1330e <ecmp>
   1440e:	02054063          	bltz	a0,1442e <_ldtoa_r+0x680>
   14412:	1990                	addi	a2,sp,240
   14414:	85b2                	mv	a1,a2
   14416:	0b14                	addi	a3,sp,400
   14418:	854e                	mv	a0,s3
   1441a:	d7aff0ef          	jal	ra,13994 <emul>
   1441e:	1910                	addi	a2,sp,176
   14420:	0b14                	addi	a3,sp,400
   14422:	85b2                	mv	a1,a2
   14424:	854e                	mv	a0,s3
   14426:	d6eff0ef          	jal	ra,13994 <emul>
   1442a:	008c043b          	addw	s0,s8,s0
   1442e:	0d51                	addi	s10,s10,20
   14430:	10400793          	li	a5,260
   14434:	03bc4c3b          	divw	s8,s8,s11
   14438:	fafd17e3          	bne	s10,a5,143e6 <_ldtoa_r+0x638>
   1443c:	1910                	addi	a2,sp,176
   1443e:	0b14                	addi	a3,sp,400
   14440:	85a6                	mv	a1,s1
   14442:	8532                	mv	a0,a2
   14444:	f1eff0ef          	jal	ra,13b62 <ediv>
   14448:	b621                	j	13f50 <_ldtoa_r+0x1a2>
   1444a:	0988                	addi	a0,sp,208
   1444c:	c1dfe0ef          	jal	ra,13068 <eshdn1>
   14450:	0d215783          	lhu	a5,210(sp)
   14454:	2785                	addiw	a5,a5,1
   14456:	b73d                	j	14384 <_ldtoa_r+0x5d6>
   14458:	0908                	addi	a0,sp,144
   1445a:	c47fe0ef          	jal	ra,130a0 <eshup1>
   1445e:	098c                	addi	a1,sp,208
   14460:	0908                	addi	a0,sp,144
   14462:	bc1fe0ef          	jal	ra,13022 <emovz>
   14466:	0988                	addi	a0,sp,208
   14468:	c39fe0ef          	jal	ra,130a0 <eshup1>
   1446c:	0988                	addi	a0,sp,208
   1446e:	c33fe0ef          	jal	ra,130a0 <eshup1>
   14472:	090c                	addi	a1,sp,144
   14474:	0988                	addi	a0,sp,208
   14476:	cf5fe0ef          	jal	ra,1316a <eaddm>
   1447a:	0b10                	addi	a2,sp,400
   1447c:	090c                	addi	a1,sp,144
   1447e:	1908                	addi	a0,sp,176
   14480:	c80ff0ef          	jal	ra,13900 <eiremain>
   14484:	347d                	addiw	s0,s0,-1
   14486:	1dc15483          	lhu	s1,476(sp)
   1448a:	bcd5                	j	13f7e <_ldtoa_r+0x1d0>
   1448c:	02000793          	li	a5,32
   14490:	b621                	j	13f98 <_ldtoa_r+0x1ea>
   14492:	0304849b          	addiw	s1,s1,48
   14496:	02e00793          	li	a5,46
   1449a:	149108a3          	sb	s1,337(sp)
   1449e:	14f10923          	sb	a5,338(sp)
   144a2:	15310c13          	addi	s8,sp,339
   144a6:	84e2                	mv	s1,s8
   144a8:	418487bb          	subw	a5,s1,s8
   144ac:	04f9d063          	ble	a5,s3,144ec <_ldtoa_r+0x73e>
   144b0:	1dc15783          	lhu	a5,476(sp)
   144b4:	4711                	li	a4,4
   144b6:	fff48c13          	addi	s8,s1,-1
   144ba:	b2f754e3          	ble	a5,a4,13fe2 <_ldtoa_r+0x234>
   144be:	4715                	li	a4,5
   144c0:	06e78463          	beq	a5,a4,14528 <_ldtoa_r+0x77a>
   144c4:	87e2                	mv	a5,s8
   144c6:	02e00613          	li	a2,46
   144ca:	03800593          	li	a1,56
   144ce:	03000693          	li	a3,48
   144d2:	17fd                	addi	a5,a5,-1
   144d4:	0007c703          	lbu	a4,0(a5)
   144d8:	07f77713          	andi	a4,a4,127
   144dc:	0809d163          	bgez	s3,1455e <_ldtoa_r+0x7b0>
   144e0:	03100713          	li	a4,49
   144e4:	00e78023          	sb	a4,0(a5)
   144e8:	2405                	addiw	s0,s0,1
   144ea:	bce5                	j	13fe2 <_ldtoa_r+0x234>
   144ec:	0908                	addi	a0,sp,144
   144ee:	bb3fe0ef          	jal	ra,130a0 <eshup1>
   144f2:	098c                	addi	a1,sp,208
   144f4:	0908                	addi	a0,sp,144
   144f6:	b2dfe0ef          	jal	ra,13022 <emovz>
   144fa:	0988                	addi	a0,sp,208
   144fc:	ba5fe0ef          	jal	ra,130a0 <eshup1>
   14500:	0988                	addi	a0,sp,208
   14502:	b9ffe0ef          	jal	ra,130a0 <eshup1>
   14506:	090c                	addi	a1,sp,144
   14508:	0988                	addi	a0,sp,208
   1450a:	c61fe0ef          	jal	ra,1316a <eaddm>
   1450e:	0b10                	addi	a2,sp,400
   14510:	090c                	addi	a1,sp,144
   14512:	1908                	addi	a0,sp,176
   14514:	becff0ef          	jal	ra,13900 <eiremain>
   14518:	1dc14783          	lbu	a5,476(sp)
   1451c:	0485                	addi	s1,s1,1
   1451e:	0307879b          	addiw	a5,a5,48
   14522:	fef48fa3          	sb	a5,-1(s1)
   14526:	b749                	j	144a8 <_ldtoa_r+0x6fa>
   14528:	190c                	addi	a1,sp,176
   1452a:	0908                	addi	a0,sp,144
   1452c:	85eff0ef          	jal	ra,1358a <emovo.isra.6>
   14530:	288b0593          	addi	a1,s6,648
   14534:	1908                	addi	a0,sp,176
   14536:	dd9fe0ef          	jal	ra,1330e <ecmp>
   1453a:	f549                	bnez	a0,144c4 <_ldtoa_r+0x716>
   1453c:	aa09c3e3          	bltz	s3,13fe2 <_ldtoa_r+0x234>
   14540:	ffe4c783          	lbu	a5,-2(s1)
   14544:	fd278793          	addi	a5,a5,-46
   14548:	0017b793          	seqz	a5,a5
   1454c:	fff7c793          	not	a5,a5
   14550:	97e2                	add	a5,a5,s8
   14552:	0007c783          	lbu	a5,0(a5)
   14556:	8b85                	andi	a5,a5,1
   14558:	a80785e3          	beqz	a5,13fe2 <_ldtoa_r+0x234>
   1455c:	b7a5                	j	144c4 <_ldtoa_r+0x716>
   1455e:	02c71063          	bne	a4,a2,1457e <_ldtoa_r+0x7d0>
   14562:	fff7c703          	lbu	a4,-1(a5)
   14566:	03800693          	li	a3,56
   1456a:	00e6e663          	bltu	a3,a4,14576 <_ldtoa_r+0x7c8>
   1456e:	2705                	addiw	a4,a4,1
   14570:	fee78fa3          	sb	a4,-1(a5)
   14574:	b4bd                	j	13fe2 <_ldtoa_r+0x234>
   14576:	2405                	addiw	s0,s0,1
   14578:	03100713          	li	a4,49
   1457c:	bfd5                	j	14570 <_ldtoa_r+0x7c2>
   1457e:	00e5e663          	bltu	a1,a4,1458a <_ldtoa_r+0x7dc>
   14582:	2705                	addiw	a4,a4,1
   14584:	00e78023          	sb	a4,0(a5)
   14588:	bca9                	j	13fe2 <_ldtoa_r+0x234>
   1458a:	00d78023          	sb	a3,0(a5)
   1458e:	b791                	j	144d2 <_ldtoa_r+0x724>
   14590:	2405                	addiw	s0,s0,1
   14592:	008ca023          	sw	s0,0(s9)
   14596:	87ce                	mv	a5,s3
   14598:	02e00693          	li	a3,46
   1459c:	0007c703          	lbu	a4,0(a5)
   145a0:	e701                	bnez	a4,145a8 <_ldtoa_r+0x7fa>
   145a2:	04500713          	li	a4,69
   145a6:	a839                	j	145c4 <_ldtoa_r+0x816>
   145a8:	00d70963          	beq	a4,a3,145ba <_ldtoa_r+0x80c>
   145ac:	0785                	addi	a5,a5,1
   145ae:	b7fd                	j	1459c <_ldtoa_r+0x7ee>
   145b0:	0017c703          	lbu	a4,1(a5)
   145b4:	0785                	addi	a5,a5,1
   145b6:	fee78fa3          	sb	a4,-1(a5)
   145ba:	0007c703          	lbu	a4,0(a5)
   145be:	fb6d                	bnez	a4,145b0 <_ldtoa_r+0x802>
   145c0:	b7cd                	j	145a2 <_ldtoa_r+0x7f4>
   145c2:	17fd                	addi	a5,a5,-1
   145c4:	0007c683          	lbu	a3,0(a5)
   145c8:	00e68463          	beq	a3,a4,145d0 <_ldtoa_r+0x822>
   145cc:	fef9ebe3          	bltu	s3,a5,145c2 <_ldtoa_r+0x814>
   145d0:	00078023          	sb	zero,0(a5)
   145d4:	8c1ff06f          	j	13e94 <_ldtoa_r+0xe6>
   145d8:	0785                	addi	a5,a5,1
   145da:	8c5ff06f          	j	13e9e <_ldtoa_r+0xf0>
   145de:	8436                	mv	s0,a3
   145e0:	8cdff06f          	j	13eac <_ldtoa_r+0xfe>
   145e4:	147d                	addi	s0,s0,-1
   145e6:	00040023          	sb	zero,0(s0)
   145ea:	fff44703          	lbu	a4,-1(s0)
   145ee:	00d71663          	bne	a4,a3,145fa <_ldtoa_r+0x84c>
   145f2:	41340733          	sub	a4,s0,s3
   145f6:	fee7c7e3          	blt	a5,a4,145e4 <_ldtoa_r+0x836>
   145fa:	478d                	li	a5,3
   145fc:	0cfb9963          	bne	s7,a5,146ce <_ldtoa_r+0x920>
   14600:	1a012783          	lw	a5,416(sp)
   14604:	0127893b          	addw	s2,a5,s2
   14608:	00095763          	bgez	s2,14616 <_ldtoa_r+0x868>
   1460c:	14010823          	sb	zero,336(sp)
   14610:	000ca023          	sw	zero,0(s9)
   14614:	844e                	mv	s0,s3
   14616:	000ca783          	lw	a5,0(s9)
   1461a:	01578abb          	addw	s5,a5,s5
   1461e:	2a8d                	addiw	s5,s5,3
   14620:	060a2423          	sw	zero,104(s4)
   14624:	4791                	li	a5,4
   14626:	01c78713          	addi	a4,a5,28
   1462a:	068a2583          	lw	a1,104(s4)
   1462e:	04eafc63          	bleu	a4,s5,14686 <_ldtoa_r+0x8d8>
   14632:	8552                	mv	a0,s4
   14634:	334000ef          	jal	ra,14968 <_Balloc>
   14638:	06aa3023          	sd	a0,96(s4)
   1463c:	85ce                	mv	a1,s3
   1463e:	84aa                	mv	s1,a0
   14640:	482010ef          	jal	ra,15ac2 <strcpy>
   14644:	67e2                	ld	a5,24(sp)
   14646:	c789                	beqz	a5,14650 <_ldtoa_r+0x8a2>
   14648:	41340433          	sub	s0,s0,s3
   1464c:	9426                	add	s0,s0,s1
   1464e:	e380                	sd	s0,0(a5)
   14650:	24813083          	ld	ra,584(sp)
   14654:	24013403          	ld	s0,576(sp)
   14658:	8526                	mv	a0,s1
   1465a:	23013903          	ld	s2,560(sp)
   1465e:	23813483          	ld	s1,568(sp)
   14662:	22813983          	ld	s3,552(sp)
   14666:	22013a03          	ld	s4,544(sp)
   1466a:	21813a83          	ld	s5,536(sp)
   1466e:	21013b03          	ld	s6,528(sp)
   14672:	20813b83          	ld	s7,520(sp)
   14676:	20013c03          	ld	s8,512(sp)
   1467a:	7cfe                	ld	s9,504(sp)
   1467c:	7d5e                	ld	s10,496(sp)
   1467e:	7dbe                	ld	s11,488(sp)
   14680:	25010113          	addi	sp,sp,592
   14684:	8082                	ret
   14686:	2585                	addiw	a1,a1,1
   14688:	06ba2423          	sw	a1,104(s4)
   1468c:	0017979b          	slliw	a5,a5,0x1
   14690:	bf59                	j	14626 <_ldtoa_r+0x878>
   14692:	67a1                	lui	a5,0x8
   14694:	17fd                	addi	a5,a5,-1
   14696:	96f714e3          	bne	a4,a5,13ffe <_ldtoa_r+0x250>
   1469a:	67a2                	ld	a5,8(sp)
   1469c:	94078ce3          	beqz	a5,13ff4 <_ldtoa_r+0x246>
   146a0:	0001a5b7          	lui	a1,0x1a
   146a4:	4f858593          	addi	a1,a1,1272 # 1a4f8 <emtens+0x110>
   146a8:	fb6ff06f          	j	13e5e <_ldtoa_r+0xb0>
   146ac:	47a9                	li	a5,10
   146ae:	02a00993          	li	s3,42
   146b2:	def490e3          	bne	s1,a5,14492 <_ldtoa_r+0x6e4>
   146b6:	03100793          	li	a5,49
   146ba:	14f108a3          	sb	a5,337(sp)
   146be:	02e00793          	li	a5,46
   146c2:	14f10923          	sb	a5,338(sp)
   146c6:	02a00993          	li	s3,42
   146ca:	905ff06f          	j	13fce <_ldtoa_r+0x220>
   146ce:	2aa5                	addiw	s5,s5,9
   146d0:	bf81                	j	14620 <_ldtoa_r+0x872>

00000000000146d2 <_ldcheck>:
   146d2:	611c                	ld	a5,0(a0)
   146d4:	7139                	addi	sp,sp,-64
   146d6:	080c                	addi	a1,sp,16
   146d8:	e03e                	sd	a5,0(sp)
   146da:	651c                	ld	a5,8(a0)
   146dc:	850a                	mv	a0,sp
   146de:	fc06                	sd	ra,56(sp)
   146e0:	e43e                	sd	a5,8(sp)
   146e2:	efbfe0ef          	jal	ra,135dc <e113toe.isra.8>
   146e6:	02215783          	lhu	a5,34(sp)
   146ea:	4501                	li	a0,0
   146ec:	fff7c793          	not	a5,a5
   146f0:	03179713          	slli	a4,a5,0x31
   146f4:	e719                	bnez	a4,14702 <_ldcheck+0x30>
   146f6:	0808                	addi	a0,sp,16
   146f8:	b37fe0ef          	jal	ra,1322e <eisnan>
   146fc:	00153513          	seqz	a0,a0
   14700:	0505                	addi	a0,a0,1
   14702:	70e2                	ld	ra,56(sp)
   14704:	6121                	addi	sp,sp,64
   14706:	8082                	ret

0000000000014708 <__localeconv_l>:
   14708:	10050513          	addi	a0,a0,256
   1470c:	8082                	ret

000000000001470e <_localeconv_r>:
   1470e:	8381b783          	ld	a5,-1992(gp) # 1ceb0 <_impure_ptr>
   14712:	67a8                	ld	a0,72(a5)
   14714:	e501                	bnez	a0,1471c <_localeconv_r+0xe>
   14716:	6575                	lui	a0,0x1d
   14718:	cd050513          	addi	a0,a0,-816 # 1ccd0 <__global_locale>
   1471c:	10050513          	addi	a0,a0,256
   14720:	8082                	ret

0000000000014722 <localeconv>:
   14722:	8381b783          	ld	a5,-1992(gp) # 1ceb0 <_impure_ptr>
   14726:	67a8                	ld	a0,72(a5)
   14728:	e501                	bnez	a0,14730 <localeconv+0xe>
   1472a:	6575                	lui	a0,0x1d
   1472c:	cd050513          	addi	a0,a0,-816 # 1ccd0 <__global_locale>
   14730:	10050513          	addi	a0,a0,256
   14734:	8082                	ret

0000000000014736 <_setlocale_r>:
   14736:	1101                	addi	sp,sp,-32
   14738:	e426                	sd	s1,8(sp)
   1473a:	ec06                	sd	ra,24(sp)
   1473c:	e822                	sd	s0,16(sp)
   1473e:	0001a4b7          	lui	s1,0x1a
   14742:	ca0d                	beqz	a2,14774 <_setlocale_r+0x3e>
   14744:	0001a5b7          	lui	a1,0x1a
   14748:	53058593          	addi	a1,a1,1328 # 1a530 <emtens+0x148>
   1474c:	8532                	mv	a0,a2
   1474e:	8432                	mv	s0,a2
   14750:	288010ef          	jal	ra,159d8 <strcmp>
   14754:	c105                	beqz	a0,14774 <_setlocale_r+0x3e>
   14756:	52848593          	addi	a1,s1,1320 # 1a528 <emtens+0x140>
   1475a:	8522                	mv	a0,s0
   1475c:	27c010ef          	jal	ra,159d8 <strcmp>
   14760:	c911                	beqz	a0,14774 <_setlocale_r+0x3e>
   14762:	0001a5b7          	lui	a1,0x1a
   14766:	27858593          	addi	a1,a1,632 # 1a278 <zeroes.4441+0x88>
   1476a:	8522                	mv	a0,s0
   1476c:	26c010ef          	jal	ra,159d8 <strcmp>
   14770:	4781                	li	a5,0
   14772:	e119                	bnez	a0,14778 <_setlocale_r+0x42>
   14774:	52848793          	addi	a5,s1,1320
   14778:	60e2                	ld	ra,24(sp)
   1477a:	6442                	ld	s0,16(sp)
   1477c:	64a2                	ld	s1,8(sp)
   1477e:	853e                	mv	a0,a5
   14780:	6105                	addi	sp,sp,32
   14782:	8082                	ret

0000000000014784 <__locale_mb_cur_max>:
   14784:	8381b783          	ld	a5,-1992(gp) # 1ceb0 <_impure_ptr>
   14788:	67bc                	ld	a5,72(a5)
   1478a:	e781                	bnez	a5,14792 <__locale_mb_cur_max+0xe>
   1478c:	67f5                	lui	a5,0x1d
   1478e:	cd078793          	addi	a5,a5,-816 # 1ccd0 <__global_locale>
   14792:	1607c503          	lbu	a0,352(a5)
   14796:	8082                	ret

0000000000014798 <__locale_ctype_ptr_l>:
   14798:	7d68                	ld	a0,248(a0)
   1479a:	8082                	ret

000000000001479c <__locale_ctype_ptr>:
   1479c:	8381b783          	ld	a5,-1992(gp) # 1ceb0 <_impure_ptr>
   147a0:	67bc                	ld	a5,72(a5)
   147a2:	e781                	bnez	a5,147aa <__locale_ctype_ptr+0xe>
   147a4:	67f5                	lui	a5,0x1d
   147a6:	cd078793          	addi	a5,a5,-816 # 1ccd0 <__global_locale>
   147aa:	7fe8                	ld	a0,248(a5)
   147ac:	8082                	ret

00000000000147ae <setlocale>:
   147ae:	862e                	mv	a2,a1
   147b0:	85aa                	mv	a1,a0
   147b2:	8381b503          	ld	a0,-1992(gp) # 1ceb0 <_impure_ptr>
   147b6:	f81ff06f          	j	14736 <_setlocale_r>

00000000000147ba <__swhatbuf_r>:
   147ba:	7135                	addi	sp,sp,-160
   147bc:	e526                	sd	s1,136(sp)
   147be:	84ae                	mv	s1,a1
   147c0:	01259583          	lh	a1,18(a1)
   147c4:	e922                	sd	s0,144(sp)
   147c6:	ed06                	sd	ra,152(sp)
   147c8:	8432                	mv	s0,a2
   147ca:	0005dc63          	bgez	a1,147e2 <__swhatbuf_r+0x28>
   147ce:	0104d783          	lhu	a5,16(s1)
   147d2:	0006a023          	sw	zero,0(a3)
   147d6:	0807f793          	andi	a5,a5,128
   147da:	eb95                	bnez	a5,1480e <__swhatbuf_r+0x54>
   147dc:	40000793          	li	a5,1024
   147e0:	a80d                	j	14812 <__swhatbuf_r+0x58>
   147e2:	0830                	addi	a2,sp,24
   147e4:	e436                	sd	a3,8(sp)
   147e6:	4ee030ef          	jal	ra,17cd4 <_fstat_r>
   147ea:	66a2                	ld	a3,8(sp)
   147ec:	fe0541e3          	bltz	a0,147ce <__swhatbuf_r+0x14>
   147f0:	47f2                	lw	a5,28(sp)
   147f2:	673d                	lui	a4,0xf
   147f4:	6505                	lui	a0,0x1
   147f6:	8ff9                	and	a5,a5,a4
   147f8:	6709                	lui	a4,0x2
   147fa:	8f99                	sub	a5,a5,a4
   147fc:	0017b793          	seqz	a5,a5
   14800:	c29c                	sw	a5,0(a3)
   14802:	40000793          	li	a5,1024
   14806:	e01c                	sd	a5,0(s0)
   14808:	80050513          	addi	a0,a0,-2048 # 800 <_start-0xf8b0>
   1480c:	a029                	j	14816 <__swhatbuf_r+0x5c>
   1480e:	04000793          	li	a5,64
   14812:	e01c                	sd	a5,0(s0)
   14814:	4501                	li	a0,0
   14816:	60ea                	ld	ra,152(sp)
   14818:	644a                	ld	s0,144(sp)
   1481a:	64aa                	ld	s1,136(sp)
   1481c:	610d                	addi	sp,sp,160
   1481e:	8082                	ret

0000000000014820 <__smakebuf_r>:
   14820:	0105d783          	lhu	a5,16(a1)
   14824:	7179                	addi	sp,sp,-48
   14826:	f022                	sd	s0,32(sp)
   14828:	f406                	sd	ra,40(sp)
   1482a:	ec26                	sd	s1,24(sp)
   1482c:	e84a                	sd	s2,16(sp)
   1482e:	8b89                	andi	a5,a5,2
   14830:	842e                	mv	s0,a1
   14832:	cf89                	beqz	a5,1484c <__smakebuf_r+0x2c>
   14834:	07740793          	addi	a5,s0,119
   14838:	e01c                	sd	a5,0(s0)
   1483a:	ec1c                	sd	a5,24(s0)
   1483c:	4785                	li	a5,1
   1483e:	d01c                	sw	a5,32(s0)
   14840:	70a2                	ld	ra,40(sp)
   14842:	7402                	ld	s0,32(sp)
   14844:	64e2                	ld	s1,24(sp)
   14846:	6942                	ld	s2,16(sp)
   14848:	6145                	addi	sp,sp,48
   1484a:	8082                	ret
   1484c:	0054                	addi	a3,sp,4
   1484e:	0030                	addi	a2,sp,8
   14850:	84aa                	mv	s1,a0
   14852:	f69ff0ef          	jal	ra,147ba <__swhatbuf_r>
   14856:	65a2                	ld	a1,8(sp)
   14858:	892a                	mv	s2,a0
   1485a:	8526                	mv	a0,s1
   1485c:	e49fb0ef          	jal	ra,106a4 <_malloc_r>
   14860:	ed01                	bnez	a0,14878 <__smakebuf_r+0x58>
   14862:	01041783          	lh	a5,16(s0)
   14866:	2007f713          	andi	a4,a5,512
   1486a:	fb79                	bnez	a4,14840 <__smakebuf_r+0x20>
   1486c:	9bf1                	andi	a5,a5,-4
   1486e:	0027e793          	ori	a5,a5,2
   14872:	00f41823          	sh	a5,16(s0)
   14876:	bf7d                	j	14834 <__smakebuf_r+0x14>
   14878:	000127b7          	lui	a5,0x12
   1487c:	7e878793          	addi	a5,a5,2024 # 127e8 <_cleanup_r>
   14880:	ecbc                	sd	a5,88(s1)
   14882:	01045783          	lhu	a5,16(s0)
   14886:	e008                	sd	a0,0(s0)
   14888:	ec08                	sd	a0,24(s0)
   1488a:	0807e793          	ori	a5,a5,128
   1488e:	00f41823          	sh	a5,16(s0)
   14892:	67a2                	ld	a5,8(sp)
   14894:	d01c                	sw	a5,32(s0)
   14896:	4792                	lw	a5,4(sp)
   14898:	cf91                	beqz	a5,148b4 <__smakebuf_r+0x94>
   1489a:	01241583          	lh	a1,18(s0)
   1489e:	8526                	mv	a0,s1
   148a0:	462030ef          	jal	ra,17d02 <_isatty_r>
   148a4:	c901                	beqz	a0,148b4 <__smakebuf_r+0x94>
   148a6:	01045783          	lhu	a5,16(s0)
   148aa:	9bf1                	andi	a5,a5,-4
   148ac:	0017e793          	ori	a5,a5,1
   148b0:	00f41823          	sh	a5,16(s0)
   148b4:	01045783          	lhu	a5,16(s0)
   148b8:	00f96933          	or	s2,s2,a5
   148bc:	01241823          	sh	s2,16(s0)
   148c0:	b741                	j	14840 <__smakebuf_r+0x20>

00000000000148c2 <_mbtowc_r>:
   148c2:	8381b783          	ld	a5,-1992(gp) # 1ceb0 <_impure_ptr>
   148c6:	67bc                	ld	a5,72(a5)
   148c8:	e781                	bnez	a5,148d0 <_mbtowc_r+0xe>
   148ca:	67f5                	lui	a5,0x1d
   148cc:	cd078793          	addi	a5,a5,-816 # 1ccd0 <__global_locale>
   148d0:	0e87b303          	ld	t1,232(a5)
   148d4:	8302                	jr	t1

00000000000148d6 <__ascii_mbtowc>:
   148d6:	e185                	bnez	a1,148f6 <__ascii_mbtowc+0x20>
   148d8:	1141                	addi	sp,sp,-16
   148da:	006c                	addi	a1,sp,12
   148dc:	4501                	li	a0,0
   148de:	ca11                	beqz	a2,148f2 <__ascii_mbtowc+0x1c>
   148e0:	5579                	li	a0,-2
   148e2:	ca81                	beqz	a3,148f2 <__ascii_mbtowc+0x1c>
   148e4:	00064783          	lbu	a5,0(a2)
   148e8:	c19c                	sw	a5,0(a1)
   148ea:	00064503          	lbu	a0,0(a2)
   148ee:	00a03533          	snez	a0,a0
   148f2:	0141                	addi	sp,sp,16
   148f4:	8082                	ret
   148f6:	4501                	li	a0,0
   148f8:	ca19                	beqz	a2,1490e <__ascii_mbtowc+0x38>
   148fa:	5579                	li	a0,-2
   148fc:	ca89                	beqz	a3,1490e <__ascii_mbtowc+0x38>
   148fe:	00064783          	lbu	a5,0(a2)
   14902:	c19c                	sw	a5,0(a1)
   14904:	00064503          	lbu	a0,0(a2)
   14908:	00a03533          	snez	a0,a0
   1490c:	8082                	ret
   1490e:	8082                	ret

0000000000014910 <memchr>:
   14910:	0ff5f593          	andi	a1,a1,255
   14914:	962a                	add	a2,a2,a0
   14916:	00c51463          	bne	a0,a2,1491e <memchr+0xe>
   1491a:	4501                	li	a0,0
   1491c:	8082                	ret
   1491e:	00054783          	lbu	a5,0(a0)
   14922:	feb78de3          	beq	a5,a1,1491c <memchr+0xc>
   14926:	0505                	addi	a0,a0,1
   14928:	b7fd                	j	14916 <memchr+0x6>

000000000001492a <memmove>:
   1492a:	00c50733          	add	a4,a0,a2
   1492e:	00a5e663          	bltu	a1,a0,1493a <memmove+0x10>
   14932:	87aa                	mv	a5,a0
   14934:	02e79363          	bne	a5,a4,1495a <memmove+0x30>
   14938:	8082                	ret
   1493a:	00c587b3          	add	a5,a1,a2
   1493e:	8e1d                	sub	a2,a2,a5
   14940:	fef579e3          	bleu	a5,a0,14932 <memmove+0x8>
   14944:	00c786b3          	add	a3,a5,a2
   14948:	e291                	bnez	a3,1494c <memmove+0x22>
   1494a:	8082                	ret
   1494c:	17fd                	addi	a5,a5,-1
   1494e:	0007c683          	lbu	a3,0(a5)
   14952:	177d                	addi	a4,a4,-1
   14954:	00d70023          	sb	a3,0(a4) # 2000 <_start-0xe0b0>
   14958:	b7f5                	j	14944 <memmove+0x1a>
   1495a:	0585                	addi	a1,a1,1
   1495c:	fff5c683          	lbu	a3,-1(a1)
   14960:	0785                	addi	a5,a5,1
   14962:	fed78fa3          	sb	a3,-1(a5)
   14966:	b7f9                	j	14934 <memmove+0xa>

0000000000014968 <_Balloc>:
   14968:	7d3c                	ld	a5,120(a0)
   1496a:	1101                	addi	sp,sp,-32
   1496c:	e426                	sd	s1,8(sp)
   1496e:	e04a                	sd	s2,0(sp)
   14970:	ec06                	sd	ra,24(sp)
   14972:	e822                	sd	s0,16(sp)
   14974:	84aa                	mv	s1,a0
   14976:	892e                	mv	s2,a1
   14978:	c79d                	beqz	a5,149a6 <_Balloc+0x3e>
   1497a:	7cb8                	ld	a4,120(s1)
   1497c:	00391793          	slli	a5,s2,0x3
   14980:	97ba                	add	a5,a5,a4
   14982:	6388                	ld	a0,0(a5)
   14984:	ed1d                	bnez	a0,149c2 <_Balloc+0x5a>
   14986:	4405                	li	s0,1
   14988:	0124143b          	sllw	s0,s0,s2
   1498c:	fff4061b          	addiw	a2,s0,-1
   14990:	0621                	addi	a2,a2,8
   14992:	060a                	slli	a2,a2,0x2
   14994:	4585                	li	a1,1
   14996:	8526                	mv	a0,s1
   14998:	0f0030ef          	jal	ra,17a88 <_calloc_r>
   1499c:	cd01                	beqz	a0,149b4 <_Balloc+0x4c>
   1499e:	01252423          	sw	s2,8(a0)
   149a2:	c540                	sw	s0,12(a0)
   149a4:	a00d                	j	149c6 <_Balloc+0x5e>
   149a6:	04100613          	li	a2,65
   149aa:	45a1                	li	a1,8
   149ac:	0dc030ef          	jal	ra,17a88 <_calloc_r>
   149b0:	fca8                	sd	a0,120(s1)
   149b2:	f561                	bnez	a0,1497a <_Balloc+0x12>
   149b4:	4501                	li	a0,0
   149b6:	60e2                	ld	ra,24(sp)
   149b8:	6442                	ld	s0,16(sp)
   149ba:	64a2                	ld	s1,8(sp)
   149bc:	6902                	ld	s2,0(sp)
   149be:	6105                	addi	sp,sp,32
   149c0:	8082                	ret
   149c2:	6118                	ld	a4,0(a0)
   149c4:	e398                	sd	a4,0(a5)
   149c6:	00053823          	sd	zero,16(a0)
   149ca:	b7f5                	j	149b6 <_Balloc+0x4e>

00000000000149cc <_Bfree>:
   149cc:	c989                	beqz	a1,149de <_Bfree+0x12>
   149ce:	459c                	lw	a5,8(a1)
   149d0:	00379713          	slli	a4,a5,0x3
   149d4:	7d3c                	ld	a5,120(a0)
   149d6:	97ba                	add	a5,a5,a4
   149d8:	6398                	ld	a4,0(a5)
   149da:	e198                	sd	a4,0(a1)
   149dc:	e38c                	sd	a1,0(a5)
   149de:	8082                	ret

00000000000149e0 <__multadd>:
   149e0:	7139                	addi	sp,sp,-64
   149e2:	ec4e                	sd	s3,24(sp)
   149e4:	89aa                	mv	s3,a0
   149e6:	6541                	lui	a0,0x10
   149e8:	f822                	sd	s0,48(sp)
   149ea:	f426                	sd	s1,40(sp)
   149ec:	842e                	mv	s0,a1
   149ee:	49c4                	lw	s1,20(a1)
   149f0:	fc06                	sd	ra,56(sp)
   149f2:	f04a                	sd	s2,32(sp)
   149f4:	05e1                	addi	a1,a1,24
   149f6:	4801                	li	a6,0
   149f8:	157d                	addi	a0,a0,-1
   149fa:	419c                	lw	a5,0(a1)
   149fc:	0591                	addi	a1,a1,4
   149fe:	2805                	addiw	a6,a6,1
   14a00:	00a7f733          	and	a4,a5,a0
   14a04:	02c7073b          	mulw	a4,a4,a2
   14a08:	0107d79b          	srliw	a5,a5,0x10
   14a0c:	02c787bb          	mulw	a5,a5,a2
   14a10:	9f35                	addw	a4,a4,a3
   14a12:	0107569b          	srliw	a3,a4,0x10
   14a16:	8f69                	and	a4,a4,a0
   14a18:	9fb5                	addw	a5,a5,a3
   14a1a:	0107d69b          	srliw	a3,a5,0x10
   14a1e:	0107979b          	slliw	a5,a5,0x10
   14a22:	9fb9                	addw	a5,a5,a4
   14a24:	fef5ae23          	sw	a5,-4(a1)
   14a28:	2681                	sext.w	a3,a3
   14a2a:	fc9848e3          	blt	a6,s1,149fa <__multadd+0x1a>
   14a2e:	c2a1                	beqz	a3,14a6e <__multadd+0x8e>
   14a30:	445c                	lw	a5,12(s0)
   14a32:	02f4c763          	blt	s1,a5,14a60 <__multadd+0x80>
   14a36:	440c                	lw	a1,8(s0)
   14a38:	854e                	mv	a0,s3
   14a3a:	e436                	sd	a3,8(sp)
   14a3c:	2585                	addiw	a1,a1,1
   14a3e:	f2bff0ef          	jal	ra,14968 <_Balloc>
   14a42:	4850                	lw	a2,20(s0)
   14a44:	01040593          	addi	a1,s0,16
   14a48:	892a                	mv	s2,a0
   14a4a:	0609                	addi	a2,a2,2
   14a4c:	060a                	slli	a2,a2,0x2
   14a4e:	0541                	addi	a0,a0,16
   14a50:	934fc0ef          	jal	ra,10b84 <memcpy>
   14a54:	85a2                	mv	a1,s0
   14a56:	854e                	mv	a0,s3
   14a58:	f75ff0ef          	jal	ra,149cc <_Bfree>
   14a5c:	66a2                	ld	a3,8(sp)
   14a5e:	844a                	mv	s0,s2
   14a60:	00448793          	addi	a5,s1,4
   14a64:	078a                	slli	a5,a5,0x2
   14a66:	97a2                	add	a5,a5,s0
   14a68:	c794                	sw	a3,8(a5)
   14a6a:	2485                	addiw	s1,s1,1
   14a6c:	c844                	sw	s1,20(s0)
   14a6e:	8522                	mv	a0,s0
   14a70:	70e2                	ld	ra,56(sp)
   14a72:	7442                	ld	s0,48(sp)
   14a74:	74a2                	ld	s1,40(sp)
   14a76:	7902                	ld	s2,32(sp)
   14a78:	69e2                	ld	s3,24(sp)
   14a7a:	6121                	addi	sp,sp,64
   14a7c:	8082                	ret

0000000000014a7e <__s2b>:
   14a7e:	715d                	addi	sp,sp,-80
   14a80:	47a5                	li	a5,9
   14a82:	f44e                	sd	s3,40(sp)
   14a84:	89b6                	mv	s3,a3
   14a86:	26a1                	addiw	a3,a3,8
   14a88:	e0a2                	sd	s0,64(sp)
   14a8a:	f84a                	sd	s2,48(sp)
   14a8c:	ec56                	sd	s5,24(sp)
   14a8e:	842e                	mv	s0,a1
   14a90:	02f6c6bb          	divw	a3,a3,a5
   14a94:	e486                	sd	ra,72(sp)
   14a96:	fc26                	sd	s1,56(sp)
   14a98:	f052                	sd	s4,32(sp)
   14a9a:	892a                	mv	s2,a0
   14a9c:	8ab2                	mv	s5,a2
   14a9e:	4785                	li	a5,1
   14aa0:	4581                	li	a1,0
   14aa2:	04d7ce63          	blt	a5,a3,14afe <__s2b+0x80>
   14aa6:	854a                	mv	a0,s2
   14aa8:	e43a                	sd	a4,8(sp)
   14aaa:	ebfff0ef          	jal	ra,14968 <_Balloc>
   14aae:	6722                	ld	a4,8(sp)
   14ab0:	4785                	li	a5,1
   14ab2:	c95c                	sw	a5,20(a0)
   14ab4:	cd18                	sw	a4,24(a0)
   14ab6:	47a5                	li	a5,9
   14ab8:	0557d763          	ble	s5,a5,14b06 <__s2b+0x88>
   14abc:	0425                	addi	s0,s0,9
   14abe:	8a22                	mv	s4,s0
   14ac0:	44a5                	li	s1,9
   14ac2:	0a05                	addi	s4,s4,1
   14ac4:	fffa4683          	lbu	a3,-1(s4)
   14ac8:	85aa                	mv	a1,a0
   14aca:	4629                	li	a2,10
   14acc:	fd06869b          	addiw	a3,a3,-48
   14ad0:	854a                	mv	a0,s2
   14ad2:	2485                	addiw	s1,s1,1
   14ad4:	f0dff0ef          	jal	ra,149e0 <__multadd>
   14ad8:	fe9a95e3          	bne	s5,s1,14ac2 <__s2b+0x44>
   14adc:	ff64879b          	addiw	a5,s1,-10
   14ae0:	1782                	slli	a5,a5,0x20
   14ae2:	9381                	srli	a5,a5,0x20
   14ae4:	943e                	add	s0,s0,a5
   14ae6:	0409                	addi	s0,s0,2
   14ae8:	0334c263          	blt	s1,s3,14b0c <__s2b+0x8e>
   14aec:	60a6                	ld	ra,72(sp)
   14aee:	6406                	ld	s0,64(sp)
   14af0:	74e2                	ld	s1,56(sp)
   14af2:	7942                	ld	s2,48(sp)
   14af4:	79a2                	ld	s3,40(sp)
   14af6:	7a02                	ld	s4,32(sp)
   14af8:	6ae2                	ld	s5,24(sp)
   14afa:	6161                	addi	sp,sp,80
   14afc:	8082                	ret
   14afe:	0017979b          	slliw	a5,a5,0x1
   14b02:	2585                	addiw	a1,a1,1
   14b04:	bf79                	j	14aa2 <__s2b+0x24>
   14b06:	0429                	addi	s0,s0,10
   14b08:	44a5                	li	s1,9
   14b0a:	bff9                	j	14ae8 <__s2b+0x6a>
   14b0c:	00044683          	lbu	a3,0(s0)
   14b10:	85aa                	mv	a1,a0
   14b12:	4629                	li	a2,10
   14b14:	fd06869b          	addiw	a3,a3,-48
   14b18:	854a                	mv	a0,s2
   14b1a:	ec7ff0ef          	jal	ra,149e0 <__multadd>
   14b1e:	2485                	addiw	s1,s1,1
   14b20:	0405                	addi	s0,s0,1
   14b22:	b7d9                	j	14ae8 <__s2b+0x6a>

0000000000014b24 <__hi0bits>:
   14b24:	7741                	lui	a4,0xffff0
   14b26:	8f69                	and	a4,a4,a0
   14b28:	87aa                	mv	a5,a0
   14b2a:	4501                	li	a0,0
   14b2c:	e701                	bnez	a4,14b34 <__hi0bits+0x10>
   14b2e:	0107979b          	slliw	a5,a5,0x10
   14b32:	4541                	li	a0,16
   14b34:	ff000737          	lui	a4,0xff000
   14b38:	8f7d                	and	a4,a4,a5
   14b3a:	e701                	bnez	a4,14b42 <__hi0bits+0x1e>
   14b3c:	2521                	addiw	a0,a0,8
   14b3e:	0087979b          	slliw	a5,a5,0x8
   14b42:	f0000737          	lui	a4,0xf0000
   14b46:	8f7d                	and	a4,a4,a5
   14b48:	e701                	bnez	a4,14b50 <__hi0bits+0x2c>
   14b4a:	2511                	addiw	a0,a0,4
   14b4c:	0047979b          	slliw	a5,a5,0x4
   14b50:	c0000737          	lui	a4,0xc0000
   14b54:	8f7d                	and	a4,a4,a5
   14b56:	e701                	bnez	a4,14b5e <__hi0bits+0x3a>
   14b58:	2509                	addiw	a0,a0,2
   14b5a:	0027979b          	slliw	a5,a5,0x2
   14b5e:	0007ca63          	bltz	a5,14b72 <__hi0bits+0x4e>
   14b62:	02179713          	slli	a4,a5,0x21
   14b66:	00075463          	bgez	a4,14b6e <__hi0bits+0x4a>
   14b6a:	2505                	addiw	a0,a0,1
   14b6c:	8082                	ret
   14b6e:	02000513          	li	a0,32
   14b72:	8082                	ret

0000000000014b74 <__lo0bits>:
   14b74:	411c                	lw	a5,0(a0)
   14b76:	0077f713          	andi	a4,a5,7
   14b7a:	86be                	mv	a3,a5
   14b7c:	c31d                	beqz	a4,14ba2 <__lo0bits+0x2e>
   14b7e:	0017f613          	andi	a2,a5,1
   14b82:	4701                	li	a4,0
   14b84:	ea01                	bnez	a2,14b94 <__lo0bits+0x20>
   14b86:	0026f713          	andi	a4,a3,2
   14b8a:	c719                	beqz	a4,14b98 <__lo0bits+0x24>
   14b8c:	0017d79b          	srliw	a5,a5,0x1
   14b90:	c11c                	sw	a5,0(a0)
   14b92:	4705                	li	a4,1
   14b94:	853a                	mv	a0,a4
   14b96:	8082                	ret
   14b98:	0027d79b          	srliw	a5,a5,0x2
   14b9c:	c11c                	sw	a5,0(a0)
   14b9e:	4709                	li	a4,2
   14ba0:	bfd5                	j	14b94 <__lo0bits+0x20>
   14ba2:	03079693          	slli	a3,a5,0x30
   14ba6:	92c1                	srli	a3,a3,0x30
   14ba8:	4701                	li	a4,0
   14baa:	e689                	bnez	a3,14bb4 <__lo0bits+0x40>
   14bac:	0107d79b          	srliw	a5,a5,0x10
   14bb0:	2781                	sext.w	a5,a5
   14bb2:	4741                	li	a4,16
   14bb4:	0ff7f693          	andi	a3,a5,255
   14bb8:	e689                	bnez	a3,14bc2 <__lo0bits+0x4e>
   14bba:	0087d79b          	srliw	a5,a5,0x8
   14bbe:	2721                	addiw	a4,a4,8
   14bc0:	2781                	sext.w	a5,a5
   14bc2:	00f7f693          	andi	a3,a5,15
   14bc6:	e689                	bnez	a3,14bd0 <__lo0bits+0x5c>
   14bc8:	0047d79b          	srliw	a5,a5,0x4
   14bcc:	2711                	addiw	a4,a4,4
   14bce:	2781                	sext.w	a5,a5
   14bd0:	0037f693          	andi	a3,a5,3
   14bd4:	e689                	bnez	a3,14bde <__lo0bits+0x6a>
   14bd6:	0027d79b          	srliw	a5,a5,0x2
   14bda:	2709                	addiw	a4,a4,2
   14bdc:	2781                	sext.w	a5,a5
   14bde:	0017f693          	andi	a3,a5,1
   14be2:	e691                	bnez	a3,14bee <__lo0bits+0x7a>
   14be4:	0017d79b          	srliw	a5,a5,0x1
   14be8:	2781                	sext.w	a5,a5
   14bea:	c781                	beqz	a5,14bf2 <__lo0bits+0x7e>
   14bec:	2705                	addiw	a4,a4,1
   14bee:	c11c                	sw	a5,0(a0)
   14bf0:	b755                	j	14b94 <__lo0bits+0x20>
   14bf2:	02000713          	li	a4,32
   14bf6:	bf79                	j	14b94 <__lo0bits+0x20>

0000000000014bf8 <__i2b>:
   14bf8:	1141                	addi	sp,sp,-16
   14bfa:	e022                	sd	s0,0(sp)
   14bfc:	842e                	mv	s0,a1
   14bfe:	4585                	li	a1,1
   14c00:	e406                	sd	ra,8(sp)
   14c02:	d67ff0ef          	jal	ra,14968 <_Balloc>
   14c06:	cd00                	sw	s0,24(a0)
   14c08:	60a2                	ld	ra,8(sp)
   14c0a:	6402                	ld	s0,0(sp)
   14c0c:	4705                	li	a4,1
   14c0e:	c958                	sw	a4,20(a0)
   14c10:	0141                	addi	sp,sp,16
   14c12:	8082                	ret

0000000000014c14 <__multiply>:
   14c14:	49d8                	lw	a4,20(a1)
   14c16:	4a5c                	lw	a5,20(a2)
   14c18:	7139                	addi	sp,sp,-64
   14c1a:	f426                	sd	s1,40(sp)
   14c1c:	fc06                	sd	ra,56(sp)
   14c1e:	f822                	sd	s0,48(sp)
   14c20:	f04a                	sd	s2,32(sp)
   14c22:	ec4e                	sd	s3,24(sp)
   14c24:	84ae                	mv	s1,a1
   14c26:	00f75463          	ble	a5,a4,14c2e <__multiply+0x1a>
   14c2a:	84b2                	mv	s1,a2
   14c2c:	862e                	mv	a2,a1
   14c2e:	0144a983          	lw	s3,20(s1)
   14c32:	01462903          	lw	s2,20(a2)
   14c36:	44dc                	lw	a5,12(s1)
   14c38:	448c                	lw	a1,8(s1)
   14c3a:	0129843b          	addw	s0,s3,s2
   14c3e:	0087d363          	ble	s0,a5,14c44 <__multiply+0x30>
   14c42:	2585                	addiw	a1,a1,1
   14c44:	e432                	sd	a2,8(sp)
   14c46:	d23ff0ef          	jal	ra,14968 <_Balloc>
   14c4a:	6622                	ld	a2,8(sp)
   14c4c:	01850813          	addi	a6,a0,24 # 10018 <_start-0x98>
   14c50:	00241313          	slli	t1,s0,0x2
   14c54:	9342                	add	t1,t1,a6
   14c56:	87c2                	mv	a5,a6
   14c58:	0267ed63          	bltu	a5,t1,14c92 <__multiply+0x7e>
   14c5c:	01848593          	addi	a1,s1,24
   14c60:	00299893          	slli	a7,s3,0x2
   14c64:	0661                	addi	a2,a2,24
   14c66:	00291e13          	slli	t3,s2,0x2
   14c6a:	66c1                	lui	a3,0x10
   14c6c:	98ae                	add	a7,a7,a1
   14c6e:	9e32                	add	t3,t3,a2
   14c70:	16fd                	addi	a3,a3,-1
   14c72:	03c66463          	bltu	a2,t3,14c9a <__multiply+0x86>
   14c76:	00805663          	blez	s0,14c82 <__multiply+0x6e>
   14c7a:	1371                	addi	t1,t1,-4
   14c7c:	00032783          	lw	a5,0(t1) # 10000 <_start-0xb0>
   14c80:	cbf5                	beqz	a5,14d74 <__multiply+0x160>
   14c82:	c940                	sw	s0,20(a0)
   14c84:	70e2                	ld	ra,56(sp)
   14c86:	7442                	ld	s0,48(sp)
   14c88:	74a2                	ld	s1,40(sp)
   14c8a:	7902                	ld	s2,32(sp)
   14c8c:	69e2                	ld	s3,24(sp)
   14c8e:	6121                	addi	sp,sp,64
   14c90:	8082                	ret
   14c92:	0007a023          	sw	zero,0(a5)
   14c96:	0791                	addi	a5,a5,4
   14c98:	b7c1                	j	14c58 <__multiply+0x44>
   14c9a:	00062f83          	lw	t6,0(a2)
   14c9e:	01f6ffb3          	and	t6,a3,t6
   14ca2:	040f8f63          	beqz	t6,14d00 <__multiply+0xec>
   14ca6:	82c2                	mv	t0,a6
   14ca8:	83ae                	mv	t2,a1
   14caa:	4f01                	li	t5,0
   14cac:	0003a703          	lw	a4,0(t2)
   14cb0:	0002a483          	lw	s1,0(t0) # 10cd2 <memset+0x90>
   14cb4:	0391                	addi	t2,t2,4
   14cb6:	00d77eb3          	and	t4,a4,a3
   14cba:	03fe8ebb          	mulw	t4,t4,t6
   14cbe:	00d4f7b3          	and	a5,s1,a3
   14cc2:	0104d49b          	srliw	s1,s1,0x10
   14cc6:	00fe8ebb          	addw	t4,t4,a5
   14cca:	0107579b          	srliw	a5,a4,0x10
   14cce:	03f787bb          	mulw	a5,a5,t6
   14cd2:	01ee8ebb          	addw	t4,t4,t5
   14cd6:	010ed71b          	srliw	a4,t4,0x10
   14cda:	01d6feb3          	and	t4,a3,t4
   14cde:	9fa5                	addw	a5,a5,s1
   14ce0:	9fb9                	addw	a5,a5,a4
   14ce2:	0107df1b          	srliw	t5,a5,0x10
   14ce6:	0107979b          	slliw	a5,a5,0x10
   14cea:	00428713          	addi	a4,t0,4
   14cee:	00fee7b3          	or	a5,t4,a5
   14cf2:	fef72e23          	sw	a5,-4(a4) # ffffffffbffffffc <__global_pointer$+0xffffffffbffe2984>
   14cf6:	2f01                	sext.w	t5,t5
   14cf8:	0713ea63          	bltu	t2,a7,14d6c <__multiply+0x158>
   14cfc:	01e2a223          	sw	t5,4(t0)
   14d00:	00265283          	lhu	t0,2(a2)
   14d04:	06028163          	beqz	t0,14d66 <__multiply+0x152>
   14d08:	00082e83          	lw	t4,0(a6)
   14d0c:	8f42                	mv	t5,a6
   14d0e:	8fae                	mv	t6,a1
   14d10:	4781                	li	a5,0
   14d12:	000fa703          	lw	a4,0(t6)
   14d16:	002f5383          	lhu	t2,2(t5)
   14d1a:	00defeb3          	and	t4,t4,a3
   14d1e:	8f75                	and	a4,a4,a3
   14d20:	0257073b          	mulw	a4,a4,t0
   14d24:	0f91                	addi	t6,t6,4
   14d26:	0077073b          	addw	a4,a4,t2
   14d2a:	9f3d                	addw	a4,a4,a5
   14d2c:	0107179b          	slliw	a5,a4,0x10
   14d30:	00feeeb3          	or	t4,t4,a5
   14d34:	004f0393          	addi	t2,t5,4
   14d38:	ffd3ae23          	sw	t4,-4(t2)
   14d3c:	ffefd783          	lhu	a5,-2(t6)
   14d40:	004f2e83          	lw	t4,4(t5)
   14d44:	0107571b          	srliw	a4,a4,0x10
   14d48:	025787bb          	mulw	a5,a5,t0
   14d4c:	00defeb3          	and	t4,t4,a3
   14d50:	01d787bb          	addw	a5,a5,t4
   14d54:	00e78ebb          	addw	t4,a5,a4
   14d58:	010ed79b          	srliw	a5,t4,0x10
   14d5c:	2781                	sext.w	a5,a5
   14d5e:	011fe963          	bltu	t6,a7,14d70 <__multiply+0x15c>
   14d62:	01df2223          	sw	t4,4(t5)
   14d66:	0611                	addi	a2,a2,4
   14d68:	0811                	addi	a6,a6,4
   14d6a:	b721                	j	14c72 <__multiply+0x5e>
   14d6c:	82ba                	mv	t0,a4
   14d6e:	bf3d                	j	14cac <__multiply+0x98>
   14d70:	8f1e                	mv	t5,t2
   14d72:	b745                	j	14d12 <__multiply+0xfe>
   14d74:	347d                	addiw	s0,s0,-1
   14d76:	b701                	j	14c76 <__multiply+0x62>

0000000000014d78 <__pow5mult>:
   14d78:	7179                	addi	sp,sp,-48
   14d7a:	ec26                	sd	s1,24(sp)
   14d7c:	e84a                	sd	s2,16(sp)
   14d7e:	e44e                	sd	s3,8(sp)
   14d80:	f406                	sd	ra,40(sp)
   14d82:	f022                	sd	s0,32(sp)
   14d84:	e052                	sd	s4,0(sp)
   14d86:	00367793          	andi	a5,a2,3
   14d8a:	892a                	mv	s2,a0
   14d8c:	84b2                	mv	s1,a2
   14d8e:	89ae                	mv	s3,a1
   14d90:	cf81                	beqz	a5,14da8 <__pow5mult+0x30>
   14d92:	37fd                	addiw	a5,a5,-1
   14d94:	6769                	lui	a4,0x1a
   14d96:	54070713          	addi	a4,a4,1344 # 1a540 <p05.3264>
   14d9a:	078a                	slli	a5,a5,0x2
   14d9c:	97ba                	add	a5,a5,a4
   14d9e:	4390                	lw	a2,0(a5)
   14da0:	4681                	li	a3,0
   14da2:	c3fff0ef          	jal	ra,149e0 <__multadd>
   14da6:	89aa                	mv	s3,a0
   14da8:	8489                	srai	s1,s1,0x2
   14daa:	c8b1                	beqz	s1,14dfe <__pow5mult+0x86>
   14dac:	07093403          	ld	s0,112(s2)
   14db0:	e819                	bnez	s0,14dc6 <__pow5mult+0x4e>
   14db2:	27100593          	li	a1,625
   14db6:	854a                	mv	a0,s2
   14db8:	e41ff0ef          	jal	ra,14bf8 <__i2b>
   14dbc:	06a93823          	sd	a0,112(s2)
   14dc0:	842a                	mv	s0,a0
   14dc2:	00053023          	sd	zero,0(a0)
   14dc6:	0014f793          	andi	a5,s1,1
   14dca:	cf81                	beqz	a5,14de2 <__pow5mult+0x6a>
   14dcc:	85ce                	mv	a1,s3
   14dce:	8622                	mv	a2,s0
   14dd0:	854a                	mv	a0,s2
   14dd2:	e43ff0ef          	jal	ra,14c14 <__multiply>
   14dd6:	8a2a                	mv	s4,a0
   14dd8:	85ce                	mv	a1,s3
   14dda:	854a                	mv	a0,s2
   14ddc:	bf1ff0ef          	jal	ra,149cc <_Bfree>
   14de0:	89d2                	mv	s3,s4
   14de2:	8485                	srai	s1,s1,0x1
   14de4:	cc89                	beqz	s1,14dfe <__pow5mult+0x86>
   14de6:	6008                	ld	a0,0(s0)
   14de8:	e909                	bnez	a0,14dfa <__pow5mult+0x82>
   14dea:	8622                	mv	a2,s0
   14dec:	85a2                	mv	a1,s0
   14dee:	854a                	mv	a0,s2
   14df0:	e25ff0ef          	jal	ra,14c14 <__multiply>
   14df4:	e008                	sd	a0,0(s0)
   14df6:	00053023          	sd	zero,0(a0)
   14dfa:	842a                	mv	s0,a0
   14dfc:	b7e9                	j	14dc6 <__pow5mult+0x4e>
   14dfe:	70a2                	ld	ra,40(sp)
   14e00:	7402                	ld	s0,32(sp)
   14e02:	854e                	mv	a0,s3
   14e04:	64e2                	ld	s1,24(sp)
   14e06:	6942                	ld	s2,16(sp)
   14e08:	69a2                	ld	s3,8(sp)
   14e0a:	6a02                	ld	s4,0(sp)
   14e0c:	6145                	addi	sp,sp,48
   14e0e:	8082                	ret

0000000000014e10 <__lshift>:
   14e10:	715d                	addi	sp,sp,-80
   14e12:	fc26                	sd	s1,56(sp)
   14e14:	84ae                	mv	s1,a1
   14e16:	f44e                	sd	s3,40(sp)
   14e18:	0144a983          	lw	s3,20(s1)
   14e1c:	e85a                	sd	s6,16(sp)
   14e1e:	458c                	lw	a1,8(a1)
   14e20:	40565b1b          	sraiw	s6,a2,0x5
   14e24:	44dc                	lw	a5,12(s1)
   14e26:	016989bb          	addw	s3,s3,s6
   14e2a:	e0a2                	sd	s0,64(sp)
   14e2c:	f84a                	sd	s2,48(sp)
   14e2e:	ec56                	sd	s5,24(sp)
   14e30:	e486                	sd	ra,72(sp)
   14e32:	f052                	sd	s4,32(sp)
   14e34:	8aaa                	mv	s5,a0
   14e36:	845a                	mv	s0,s6
   14e38:	0019891b          	addiw	s2,s3,1
   14e3c:	0927c463          	blt	a5,s2,14ec4 <__lshift+0xb4>
   14e40:	8556                	mv	a0,s5
   14e42:	e432                	sd	a2,8(sp)
   14e44:	b25ff0ef          	jal	ra,14968 <_Balloc>
   14e48:	6622                	ld	a2,8(sp)
   14e4a:	01850793          	addi	a5,a0,24
   14e4e:	8a2a                	mv	s4,a0
   14e50:	86be                	mv	a3,a5
   14e52:	4701                	li	a4,0
   14e54:	0691                	addi	a3,a3,4
   14e56:	07674b63          	blt	a4,s6,14ecc <__lshift+0xbc>
   14e5a:	000b5363          	bgez	s6,14e60 <__lshift+0x50>
   14e5e:	4401                	li	s0,0
   14e60:	48d4                	lw	a3,20(s1)
   14e62:	040a                	slli	s0,s0,0x2
   14e64:	943e                	add	s0,s0,a5
   14e66:	068a                	slli	a3,a3,0x2
   14e68:	01848793          	addi	a5,s1,24
   14e6c:	8a7d                	andi	a2,a2,31
   14e6e:	96be                	add	a3,a3,a5
   14e70:	c625                	beqz	a2,14ed8 <__lshift+0xc8>
   14e72:	02000593          	li	a1,32
   14e76:	9d91                	subw	a1,a1,a2
   14e78:	4701                	li	a4,0
   14e7a:	4388                	lw	a0,0(a5)
   14e7c:	00440813          	addi	a6,s0,4
   14e80:	0791                	addi	a5,a5,4
   14e82:	00c5153b          	sllw	a0,a0,a2
   14e86:	8f49                	or	a4,a4,a0
   14e88:	fee82e23          	sw	a4,-4(a6)
   14e8c:	ffc7a703          	lw	a4,-4(a5)
   14e90:	00b7573b          	srlw	a4,a4,a1
   14e94:	04d7e063          	bltu	a5,a3,14ed4 <__lshift+0xc4>
   14e98:	c058                	sw	a4,4(s0)
   14e9a:	c319                	beqz	a4,14ea0 <__lshift+0x90>
   14e9c:	0029891b          	addiw	s2,s3,2
   14ea0:	397d                	addiw	s2,s2,-1
   14ea2:	012a2a23          	sw	s2,20(s4)
   14ea6:	8556                	mv	a0,s5
   14ea8:	85a6                	mv	a1,s1
   14eaa:	b23ff0ef          	jal	ra,149cc <_Bfree>
   14eae:	60a6                	ld	ra,72(sp)
   14eb0:	6406                	ld	s0,64(sp)
   14eb2:	8552                	mv	a0,s4
   14eb4:	74e2                	ld	s1,56(sp)
   14eb6:	7942                	ld	s2,48(sp)
   14eb8:	79a2                	ld	s3,40(sp)
   14eba:	7a02                	ld	s4,32(sp)
   14ebc:	6ae2                	ld	s5,24(sp)
   14ebe:	6b42                	ld	s6,16(sp)
   14ec0:	6161                	addi	sp,sp,80
   14ec2:	8082                	ret
   14ec4:	2585                	addiw	a1,a1,1
   14ec6:	0017979b          	slliw	a5,a5,0x1
   14eca:	bf8d                	j	14e3c <__lshift+0x2c>
   14ecc:	fe06ae23          	sw	zero,-4(a3) # fffc <_start-0xb4>
   14ed0:	2705                	addiw	a4,a4,1
   14ed2:	b749                	j	14e54 <__lshift+0x44>
   14ed4:	8442                	mv	s0,a6
   14ed6:	b755                	j	14e7a <__lshift+0x6a>
   14ed8:	0791                	addi	a5,a5,4
   14eda:	ffc7a703          	lw	a4,-4(a5)
   14ede:	0411                	addi	s0,s0,4
   14ee0:	fee42e23          	sw	a4,-4(s0)
   14ee4:	fed7eae3          	bltu	a5,a3,14ed8 <__lshift+0xc8>
   14ee8:	bf65                	j	14ea0 <__lshift+0x90>

0000000000014eea <__mcmp>:
   14eea:	495c                	lw	a5,20(a0)
   14eec:	49d8                	lw	a4,20(a1)
   14eee:	9f99                	subw	a5,a5,a4
   14ef0:	e38d                	bnez	a5,14f12 <__mcmp+0x28>
   14ef2:	070a                	slli	a4,a4,0x2
   14ef4:	0561                	addi	a0,a0,24
   14ef6:	05e1                	addi	a1,a1,24
   14ef8:	00e506b3          	add	a3,a0,a4
   14efc:	95ba                	add	a1,a1,a4
   14efe:	16f1                	addi	a3,a3,-4
   14f00:	15f1                	addi	a1,a1,-4
   14f02:	4290                	lw	a2,0(a3)
   14f04:	4198                	lw	a4,0(a1)
   14f06:	00e60863          	beq	a2,a4,14f16 <__mcmp+0x2c>
   14f0a:	57fd                	li	a5,-1
   14f0c:	00e66363          	bltu	a2,a4,14f12 <__mcmp+0x28>
   14f10:	4785                	li	a5,1
   14f12:	853e                	mv	a0,a5
   14f14:	8082                	ret
   14f16:	fed564e3          	bltu	a0,a3,14efe <__mcmp+0x14>
   14f1a:	bfe5                	j	14f12 <__mcmp+0x28>

0000000000014f1c <__mdiff>:
   14f1c:	7179                	addi	sp,sp,-48
   14f1e:	ec26                	sd	s1,24(sp)
   14f20:	84ae                	mv	s1,a1
   14f22:	e44e                	sd	s3,8(sp)
   14f24:	85b2                	mv	a1,a2
   14f26:	89aa                	mv	s3,a0
   14f28:	8526                	mv	a0,s1
   14f2a:	f022                	sd	s0,32(sp)
   14f2c:	f406                	sd	ra,40(sp)
   14f2e:	e84a                	sd	s2,16(sp)
   14f30:	8432                	mv	s0,a2
   14f32:	fb9ff0ef          	jal	ra,14eea <__mcmp>
   14f36:	e105                	bnez	a0,14f56 <__mdiff+0x3a>
   14f38:	4581                	li	a1,0
   14f3a:	854e                	mv	a0,s3
   14f3c:	a2dff0ef          	jal	ra,14968 <_Balloc>
   14f40:	4785                	li	a5,1
   14f42:	c95c                	sw	a5,20(a0)
   14f44:	00052c23          	sw	zero,24(a0)
   14f48:	70a2                	ld	ra,40(sp)
   14f4a:	7402                	ld	s0,32(sp)
   14f4c:	64e2                	ld	s1,24(sp)
   14f4e:	6942                	ld	s2,16(sp)
   14f50:	69a2                	ld	s3,8(sp)
   14f52:	6145                	addi	sp,sp,48
   14f54:	8082                	ret
   14f56:	4905                	li	s2,1
   14f58:	00054663          	bltz	a0,14f64 <__mdiff+0x48>
   14f5c:	87a2                	mv	a5,s0
   14f5e:	4901                	li	s2,0
   14f60:	8426                	mv	s0,s1
   14f62:	84be                	mv	s1,a5
   14f64:	440c                	lw	a1,8(s0)
   14f66:	854e                	mv	a0,s3
   14f68:	a01ff0ef          	jal	ra,14968 <_Balloc>
   14f6c:	01442303          	lw	t1,20(s0)
   14f70:	0144a883          	lw	a7,20(s1)
   14f74:	01840613          	addi	a2,s0,24
   14f78:	00231e13          	slli	t3,t1,0x2
   14f7c:	01848813          	addi	a6,s1,24
   14f80:	088a                	slli	a7,a7,0x2
   14f82:	6f41                	lui	t5,0x10
   14f84:	01252823          	sw	s2,16(a0)
   14f88:	9e32                	add	t3,t3,a2
   14f8a:	98c2                	add	a7,a7,a6
   14f8c:	01850693          	addi	a3,a0,24
   14f90:	4f81                	li	t6,0
   14f92:	1f7d                	addi	t5,t5,-1
   14f94:	4218                	lw	a4,0(a2)
   14f96:	00082783          	lw	a5,0(a6)
   14f9a:	0691                	addi	a3,a3,4
   14f9c:	01e775b3          	and	a1,a4,t5
   14fa0:	01f585bb          	addw	a1,a1,t6
   14fa4:	01e7feb3          	and	t4,a5,t5
   14fa8:	41d58ebb          	subw	t4,a1,t4
   14fac:	0107571b          	srliw	a4,a4,0x10
   14fb0:	0107d79b          	srliw	a5,a5,0x10
   14fb4:	40f707bb          	subw	a5,a4,a5
   14fb8:	410ed59b          	sraiw	a1,t4,0x10
   14fbc:	9fad                	addw	a5,a5,a1
   14fbe:	4107df9b          	sraiw	t6,a5,0x10
   14fc2:	01eef733          	and	a4,t4,t5
   14fc6:	0107979b          	slliw	a5,a5,0x10
   14fca:	8fd9                	or	a5,a5,a4
   14fcc:	0811                	addi	a6,a6,4
   14fce:	fef6ae23          	sw	a5,-4(a3)
   14fd2:	0611                	addi	a2,a2,4
   14fd4:	fd1860e3          	bltu	a6,a7,14f94 <__mdiff+0x78>
   14fd8:	68c1                	lui	a7,0x10
   14fda:	18fd                	addi	a7,a7,-1
   14fdc:	01c66863          	bltu	a2,t3,14fec <__mdiff+0xd0>
   14fe0:	16f1                	addi	a3,a3,-4
   14fe2:	429c                	lw	a5,0(a3)
   14fe4:	cb9d                	beqz	a5,1501a <__mdiff+0xfe>
   14fe6:	00652a23          	sw	t1,20(a0)
   14fea:	bfb9                	j	14f48 <__mdiff+0x2c>
   14fec:	4218                	lw	a4,0(a2)
   14fee:	0691                	addi	a3,a3,4
   14ff0:	0611                	addi	a2,a2,4
   14ff2:	011775b3          	and	a1,a4,a7
   14ff6:	01f5883b          	addw	a6,a1,t6
   14ffa:	0107571b          	srliw	a4,a4,0x10
   14ffe:	4108559b          	sraiw	a1,a6,0x10
   15002:	00b707bb          	addw	a5,a4,a1
   15006:	4107df9b          	sraiw	t6,a5,0x10
   1500a:	01187733          	and	a4,a6,a7
   1500e:	0107979b          	slliw	a5,a5,0x10
   15012:	8fd9                	or	a5,a5,a4
   15014:	fef6ae23          	sw	a5,-4(a3)
   15018:	b7d1                	j	14fdc <__mdiff+0xc0>
   1501a:	337d                	addiw	t1,t1,-1
   1501c:	b7d1                	j	14fe0 <__mdiff+0xc4>

000000000001501e <__ulp>:
   1501e:	e20507d3          	fmv.x.d	a5,fa0
   15022:	7ff00737          	lui	a4,0x7ff00
   15026:	9381                	srli	a5,a5,0x20
   15028:	8f7d                	and	a4,a4,a5
   1502a:	fcc007b7          	lui	a5,0xfcc00
   1502e:	9fb9                	addw	a5,a5,a4
   15030:	0007871b          	sext.w	a4,a5
   15034:	00e05763          	blez	a4,15042 <__ulp+0x24>
   15038:	02079713          	slli	a4,a5,0x20
   1503c:	f2070553          	fmv.d.x	fa0,a4
   15040:	8082                	ret
   15042:	40f007bb          	negw	a5,a5
   15046:	4147d69b          	sraiw	a3,a5,0x14
   1504a:	474d                	li	a4,19
   1504c:	00d74763          	blt	a4,a3,1505a <__ulp+0x3c>
   15050:	00080737          	lui	a4,0x80
   15054:	40d757bb          	sraw	a5,a4,a3
   15058:	b7c5                	j	15038 <__ulp+0x1a>
   1505a:	fec6859b          	addiw	a1,a3,-20
   1505e:	4679                	li	a2,30
   15060:	4701                	li	a4,0
   15062:	4685                	li	a3,1
   15064:	00b64663          	blt	a2,a1,15070 <__ulp+0x52>
   15068:	fff5c793          	not	a5,a1
   1506c:	00f696bb          	sllw	a3,a3,a5
   15070:	57fd                	li	a5,-1
   15072:	1682                	slli	a3,a3,0x20
   15074:	1782                	slli	a5,a5,0x20
   15076:	9281                	srli	a3,a3,0x20
   15078:	8ff9                	and	a5,a5,a4
   1507a:	00d7e733          	or	a4,a5,a3
   1507e:	bf7d                	j	1503c <__ulp+0x1e>

0000000000015080 <__b2d>:
   15080:	7139                	addi	sp,sp,-64
   15082:	f426                	sd	s1,40(sp)
   15084:	4944                	lw	s1,20(a0)
   15086:	ec4e                	sd	s3,24(sp)
   15088:	01850993          	addi	s3,a0,24
   1508c:	048a                	slli	s1,s1,0x2
   1508e:	94ce                	add	s1,s1,s3
   15090:	f822                	sd	s0,48(sp)
   15092:	ffc4a403          	lw	s0,-4(s1)
   15096:	f04a                	sd	s2,32(sp)
   15098:	e42e                	sd	a1,8(sp)
   1509a:	8522                	mv	a0,s0
   1509c:	fc06                	sd	ra,56(sp)
   1509e:	a87ff0ef          	jal	ra,14b24 <__hi0bits>
   150a2:	65a2                	ld	a1,8(sp)
   150a4:	02000793          	li	a5,32
   150a8:	9f89                	subw	a5,a5,a0
   150aa:	c19c                	sw	a5,0(a1)
   150ac:	47a9                	li	a5,10
   150ae:	ffc48913          	addi	s2,s1,-4
   150b2:	04a7c763          	blt	a5,a0,15100 <__b2d+0x80>
   150b6:	46ad                	li	a3,11
   150b8:	40a6863b          	subw	a2,a3,a0
   150bc:	00c4573b          	srlw	a4,s0,a2
   150c0:	3ff007b7          	lui	a5,0x3ff00
   150c4:	8f5d                	or	a4,a4,a5
   150c6:	1702                	slli	a4,a4,0x20
   150c8:	4681                	li	a3,0
   150ca:	0129f463          	bleu	s2,s3,150d2 <__b2d+0x52>
   150ce:	ff84a683          	lw	a3,-8(s1)
   150d2:	0155079b          	addiw	a5,a0,21
   150d6:	00f417bb          	sllw	a5,s0,a5
   150da:	00c6d6bb          	srlw	a3,a3,a2
   150de:	8fd5                	or	a5,a5,a3
   150e0:	547d                	li	s0,-1
   150e2:	1782                	slli	a5,a5,0x20
   150e4:	1402                	slli	s0,s0,0x20
   150e6:	9381                	srli	a5,a5,0x20
   150e8:	8c79                	and	s0,s0,a4
   150ea:	00f46733          	or	a4,s0,a5
   150ee:	70e2                	ld	ra,56(sp)
   150f0:	7442                	ld	s0,48(sp)
   150f2:	74a2                	ld	s1,40(sp)
   150f4:	7902                	ld	s2,32(sp)
   150f6:	69e2                	ld	s3,24(sp)
   150f8:	f2070553          	fmv.d.x	fa0,a4
   150fc:	6121                	addi	sp,sp,64
   150fe:	8082                	ret
   15100:	4681                	li	a3,0
   15102:	0129f663          	bleu	s2,s3,1510e <__b2d+0x8e>
   15106:	ff84a683          	lw	a3,-8(s1)
   1510a:	ff848913          	addi	s2,s1,-8
   1510e:	ff55079b          	addiw	a5,a0,-11
   15112:	853e                	mv	a0,a5
   15114:	c3a9                	beqz	a5,15156 <__b2d+0xd6>
   15116:	02000793          	li	a5,32
   1511a:	40a7863b          	subw	a2,a5,a0
   1511e:	00a4143b          	sllw	s0,s0,a0
   15122:	3ff007b7          	lui	a5,0x3ff00
   15126:	8c5d                	or	s0,s0,a5
   15128:	00c6d7bb          	srlw	a5,a3,a2
   1512c:	8c5d                	or	s0,s0,a5
   1512e:	02041713          	slli	a4,s0,0x20
   15132:	4781                	li	a5,0
   15134:	0129f463          	bleu	s2,s3,1513c <__b2d+0xbc>
   15138:	ffc92783          	lw	a5,-4(s2)
   1513c:	00a696bb          	sllw	a3,a3,a0
   15140:	00c7d7bb          	srlw	a5,a5,a2
   15144:	8edd                	or	a3,a3,a5
   15146:	547d                	li	s0,-1
   15148:	1682                	slli	a3,a3,0x20
   1514a:	1402                	slli	s0,s0,0x20
   1514c:	9281                	srli	a3,a3,0x20
   1514e:	8c79                	and	s0,s0,a4
   15150:	00d46733          	or	a4,s0,a3
   15154:	bf69                	j	150ee <__b2d+0x6e>
   15156:	3ff007b7          	lui	a5,0x3ff00
   1515a:	02069713          	slli	a4,a3,0x20
   1515e:	8c5d                	or	s0,s0,a5
   15160:	9301                	srli	a4,a4,0x20
   15162:	1402                	slli	s0,s0,0x20
   15164:	8f41                	or	a4,a4,s0
   15166:	b761                	j	150ee <__b2d+0x6e>

0000000000015168 <__d2b>:
   15168:	7139                	addi	sp,sp,-64
   1516a:	f822                	sd	s0,48(sp)
   1516c:	e852                	sd	s4,16(sp)
   1516e:	e2050453          	fmv.x.d	s0,fa0
   15172:	8a2e                	mv	s4,a1
   15174:	4585                	li	a1,1
   15176:	f426                	sd	s1,40(sp)
   15178:	f04a                	sd	s2,32(sp)
   1517a:	ec4e                	sd	s3,24(sp)
   1517c:	fc06                	sd	ra,56(sp)
   1517e:	8932                	mv	s2,a2
   15180:	fe8ff0ef          	jal	ra,14968 <_Balloc>
   15184:	001007b7          	lui	a5,0x100
   15188:	42045493          	srai	s1,s0,0x20
   1518c:	17fd                	addi	a5,a5,-1
   1518e:	8fe5                	and	a5,a5,s1
   15190:	0144d49b          	srliw	s1,s1,0x14
   15194:	7ff4f493          	andi	s1,s1,2047
   15198:	89aa                	mv	s3,a0
   1519a:	e0bd                	bnez	s1,15200 <__d2b+0x98>
   1519c:	c63e                	sw	a5,12(sp)
   1519e:	2401                	sext.w	s0,s0
   151a0:	c43d                	beqz	s0,1520e <__d2b+0xa6>
   151a2:	0028                	addi	a0,sp,8
   151a4:	c422                	sw	s0,8(sp)
   151a6:	9cfff0ef          	jal	ra,14b74 <__lo0bits>
   151aa:	46a2                	lw	a3,8(sp)
   151ac:	cd31                	beqz	a0,15208 <__d2b+0xa0>
   151ae:	4732                	lw	a4,12(sp)
   151b0:	02000793          	li	a5,32
   151b4:	9f89                	subw	a5,a5,a0
   151b6:	00f717bb          	sllw	a5,a4,a5
   151ba:	8fd5                	or	a5,a5,a3
   151bc:	00a7573b          	srlw	a4,a4,a0
   151c0:	00f9ac23          	sw	a5,24(s3)
   151c4:	c63a                	sw	a4,12(sp)
   151c6:	4432                	lw	s0,12(sp)
   151c8:	0089ae23          	sw	s0,28(s3)
   151cc:	00803433          	snez	s0,s0
   151d0:	0405                	addi	s0,s0,1
   151d2:	0089aa23          	sw	s0,20(s3)
   151d6:	c8a9                	beqz	s1,15228 <__d2b+0xc0>
   151d8:	bcd4849b          	addiw	s1,s1,-1075
   151dc:	9ca9                	addw	s1,s1,a0
   151de:	03500793          	li	a5,53
   151e2:	009a2023          	sw	s1,0(s4)
   151e6:	40a7853b          	subw	a0,a5,a0
   151ea:	00a92023          	sw	a0,0(s2)
   151ee:	70e2                	ld	ra,56(sp)
   151f0:	7442                	ld	s0,48(sp)
   151f2:	854e                	mv	a0,s3
   151f4:	74a2                	ld	s1,40(sp)
   151f6:	7902                	ld	s2,32(sp)
   151f8:	69e2                	ld	s3,24(sp)
   151fa:	6a42                	ld	s4,16(sp)
   151fc:	6121                	addi	sp,sp,64
   151fe:	8082                	ret
   15200:	00100737          	lui	a4,0x100
   15204:	8fd9                	or	a5,a5,a4
   15206:	bf59                	j	1519c <__d2b+0x34>
   15208:	00d9ac23          	sw	a3,24(s3)
   1520c:	bf6d                	j	151c6 <__d2b+0x5e>
   1520e:	0068                	addi	a0,sp,12
   15210:	965ff0ef          	jal	ra,14b74 <__lo0bits>
   15214:	47b2                	lw	a5,12(sp)
   15216:	0205051b          	addiw	a0,a0,32
   1521a:	4405                	li	s0,1
   1521c:	00f9ac23          	sw	a5,24(s3)
   15220:	4785                	li	a5,1
   15222:	00f9aa23          	sw	a5,20(s3)
   15226:	bf45                	j	151d6 <__d2b+0x6e>
   15228:	bce5051b          	addiw	a0,a0,-1074
   1522c:	00241793          	slli	a5,s0,0x2
   15230:	00aa2023          	sw	a0,0(s4)
   15234:	97ce                	add	a5,a5,s3
   15236:	4bc8                	lw	a0,20(a5)
   15238:	0054141b          	slliw	s0,s0,0x5
   1523c:	8e9ff0ef          	jal	ra,14b24 <__hi0bits>
   15240:	9c09                	subw	s0,s0,a0
   15242:	00892023          	sw	s0,0(s2)
   15246:	b765                	j	151ee <__d2b+0x86>

0000000000015248 <__ratio>:
   15248:	7139                	addi	sp,sp,-64
   1524a:	f04a                	sd	s2,32(sp)
   1524c:	892e                	mv	s2,a1
   1524e:	002c                	addi	a1,sp,8
   15250:	fc06                	sd	ra,56(sp)
   15252:	f426                	sd	s1,40(sp)
   15254:	ec4e                	sd	s3,24(sp)
   15256:	f822                	sd	s0,48(sp)
   15258:	89aa                	mv	s3,a0
   1525a:	e27ff0ef          	jal	ra,15080 <__b2d>
   1525e:	006c                	addi	a1,sp,12
   15260:	854a                	mv	a0,s2
   15262:	e20504d3          	fmv.x.d	s1,fa0
   15266:	e1bff0ef          	jal	ra,15080 <__b2d>
   1526a:	01492683          	lw	a3,20(s2)
   1526e:	0149a783          	lw	a5,20(s3)
   15272:	45b2                	lw	a1,12(sp)
   15274:	e2050653          	fmv.x.d	a2,fa0
   15278:	9f95                	subw	a5,a5,a3
   1527a:	46a2                	lw	a3,8(sp)
   1527c:	0057979b          	slliw	a5,a5,0x5
   15280:	9e8d                	subw	a3,a3,a1
   15282:	9ebd                	addw	a3,a3,a5
   15284:	87b6                	mv	a5,a3
   15286:	02d05a63          	blez	a3,152ba <__ratio+0x72>
   1528a:	0146979b          	slliw	a5,a3,0x14
   1528e:	547d                	li	s0,-1
   15290:	0204d693          	srli	a3,s1,0x20
   15294:	9fb5                	addw	a5,a5,a3
   15296:	9001                	srli	s0,s0,0x20
   15298:	1782                	slli	a5,a5,0x20
   1529a:	8c65                	and	s0,s0,s1
   1529c:	8732                	mv	a4,a2
   1529e:	8c5d                	or	s0,s0,a5
   152a0:	f20407d3          	fmv.d.x	fa5,s0
   152a4:	70e2                	ld	ra,56(sp)
   152a6:	7442                	ld	s0,48(sp)
   152a8:	f2070753          	fmv.d.x	fa4,a4
   152ac:	74a2                	ld	s1,40(sp)
   152ae:	7902                	ld	s2,32(sp)
   152b0:	69e2                	ld	s3,24(sp)
   152b2:	1ae7f553          	fdiv.d	fa0,fa5,fa4
   152b6:	6121                	addi	sp,sp,64
   152b8:	8082                	ret
   152ba:	fff006b7          	lui	a3,0xfff00
   152be:	02f687bb          	mulw	a5,a3,a5
   152c2:	02065713          	srli	a4,a2,0x20
   152c6:	8426                	mv	s0,s1
   152c8:	9fb9                	addw	a5,a5,a4
   152ca:	577d                	li	a4,-1
   152cc:	9301                	srli	a4,a4,0x20
   152ce:	1782                	slli	a5,a5,0x20
   152d0:	8f71                	and	a4,a4,a2
   152d2:	8f5d                	or	a4,a4,a5
   152d4:	b7f1                	j	152a0 <__ratio+0x58>

00000000000152d6 <_mprec_log10>:
   152d6:	47dd                	li	a5,23
   152d8:	00a7c963          	blt	a5,a0,152ea <_mprec_log10+0x14>
   152dc:	67e9                	lui	a5,0x1a
   152de:	54078793          	addi	a5,a5,1344 # 1a540 <p05.3264>
   152e2:	050e                	slli	a0,a0,0x3
   152e4:	953e                	add	a0,a0,a5
   152e6:	2908                	fld	fa0,16(a0)
   152e8:	8082                	ret
   152ea:	0001d7b7          	lui	a5,0x1d
   152ee:	e787b507          	fld	fa0,-392(a5) # 1ce78 <__TMC_END__>
   152f2:	0001d7b7          	lui	a5,0x1d
   152f6:	e807b787          	fld	fa5,-384(a5) # 1ce80 <__TMC_END__+0x8>
   152fa:	357d                	addiw	a0,a0,-1
   152fc:	12f57553          	fmul.d	fa0,fa0,fa5
   15300:	fd6d                	bnez	a0,152fa <_mprec_log10+0x24>
   15302:	8082                	ret

0000000000015304 <__copybits>:
   15304:	fff5879b          	addiw	a5,a1,-1
   15308:	4a58                	lw	a4,20(a2)
   1530a:	4057d79b          	sraiw	a5,a5,0x5
   1530e:	0785                	addi	a5,a5,1
   15310:	078a                	slli	a5,a5,0x2
   15312:	01860693          	addi	a3,a2,24
   15316:	070a                	slli	a4,a4,0x2
   15318:	97aa                	add	a5,a5,a0
   1531a:	9736                	add	a4,a4,a3
   1531c:	00e6e563          	bltu	a3,a4,15326 <__copybits+0x22>
   15320:	00f56a63          	bltu	a0,a5,15334 <__copybits+0x30>
   15324:	8082                	ret
   15326:	0691                	addi	a3,a3,4
   15328:	ffc6a603          	lw	a2,-4(a3) # ffffffffffeffffc <__global_pointer$+0xffffffffffee2984>
   1532c:	0511                	addi	a0,a0,4
   1532e:	fec52e23          	sw	a2,-4(a0)
   15332:	b7ed                	j	1531c <__copybits+0x18>
   15334:	0511                	addi	a0,a0,4
   15336:	fe052e23          	sw	zero,-4(a0)
   1533a:	b7dd                	j	15320 <__copybits+0x1c>

000000000001533c <__any_on>:
   1533c:	4954                	lw	a3,20(a0)
   1533e:	4055d793          	srai	a5,a1,0x5
   15342:	01850713          	addi	a4,a0,24
   15346:	02f6c763          	blt	a3,a5,15374 <__any_on+0x38>
   1534a:	00d7df63          	ble	a3,a5,15368 <__any_on+0x2c>
   1534e:	89fd                	andi	a1,a1,31
   15350:	cd81                	beqz	a1,15368 <__any_on+0x2c>
   15352:	00279693          	slli	a3,a5,0x2
   15356:	96ba                	add	a3,a3,a4
   15358:	4290                	lw	a2,0(a3)
   1535a:	4505                	li	a0,1
   1535c:	00b656bb          	srlw	a3,a2,a1
   15360:	00b695bb          	sllw	a1,a3,a1
   15364:	00c59e63          	bne	a1,a2,15380 <__any_on+0x44>
   15368:	078a                	slli	a5,a5,0x2
   1536a:	97ba                	add	a5,a5,a4
   1536c:	00f76663          	bltu	a4,a5,15378 <__any_on+0x3c>
   15370:	4501                	li	a0,0
   15372:	8082                	ret
   15374:	87b6                	mv	a5,a3
   15376:	bfcd                	j	15368 <__any_on+0x2c>
   15378:	17f1                	addi	a5,a5,-4
   1537a:	4394                	lw	a3,0(a5)
   1537c:	dae5                	beqz	a3,1536c <__any_on+0x30>
   1537e:	4505                	li	a0,1
   15380:	8082                	ret

0000000000015382 <_realloc_r>:
   15382:	711d                	addi	sp,sp,-96
   15384:	e8a2                	sd	s0,80(sp)
   15386:	ec86                	sd	ra,88(sp)
   15388:	842e                	mv	s0,a1
   1538a:	e4a6                	sd	s1,72(sp)
   1538c:	e0ca                	sd	s2,64(sp)
   1538e:	fc4e                	sd	s3,56(sp)
   15390:	f852                	sd	s4,48(sp)
   15392:	f456                	sd	s5,40(sp)
   15394:	f05a                	sd	s6,32(sp)
   15396:	ec5e                	sd	s7,24(sp)
   15398:	e862                	sd	s8,16(sp)
   1539a:	85b2                	mv	a1,a2
   1539c:	ec11                	bnez	s0,153b8 <_realloc_r+0x36>
   1539e:	6446                	ld	s0,80(sp)
   153a0:	60e6                	ld	ra,88(sp)
   153a2:	64a6                	ld	s1,72(sp)
   153a4:	6906                	ld	s2,64(sp)
   153a6:	79e2                	ld	s3,56(sp)
   153a8:	7a42                	ld	s4,48(sp)
   153aa:	7aa2                	ld	s5,40(sp)
   153ac:	7b02                	ld	s6,32(sp)
   153ae:	6be2                	ld	s7,24(sp)
   153b0:	6c42                	ld	s8,16(sp)
   153b2:	6125                	addi	sp,sp,96
   153b4:	af0fb06f          	j	106a4 <_malloc_r>
   153b8:	8aaa                	mv	s5,a0
   153ba:	e432                	sd	a2,8(sp)
   153bc:	931fb0ef          	jal	ra,10cec <__malloc_lock>
   153c0:	65a2                	ld	a1,8(sp)
   153c2:	ff843683          	ld	a3,-8(s0)
   153c6:	02e00793          	li	a5,46
   153ca:	01758993          	addi	s3,a1,23
   153ce:	ff040b93          	addi	s7,s0,-16
   153d2:	ffc6f913          	andi	s2,a3,-4
   153d6:	0337fb63          	bleu	s3,a5,1540c <_realloc_r+0x8a>
   153da:	800007b7          	lui	a5,0x80000
   153de:	ff09fb13          	andi	s6,s3,-16
   153e2:	fff7c793          	not	a5,a5
   153e6:	0367f563          	bleu	s6,a5,15410 <_realloc_r+0x8e>
   153ea:	47b1                	li	a5,12
   153ec:	00faa023          	sw	a5,0(s5)
   153f0:	4a01                	li	s4,0
   153f2:	60e6                	ld	ra,88(sp)
   153f4:	6446                	ld	s0,80(sp)
   153f6:	8552                	mv	a0,s4
   153f8:	64a6                	ld	s1,72(sp)
   153fa:	6906                	ld	s2,64(sp)
   153fc:	79e2                	ld	s3,56(sp)
   153fe:	7a42                	ld	s4,48(sp)
   15400:	7aa2                	ld	s5,40(sp)
   15402:	7b02                	ld	s6,32(sp)
   15404:	6be2                	ld	s7,24(sp)
   15406:	6c42                	ld	s8,16(sp)
   15408:	6125                	addi	sp,sp,96
   1540a:	8082                	ret
   1540c:	02000b13          	li	s6,32
   15410:	fcbb6de3          	bltu	s6,a1,153ea <_realloc_r+0x68>
   15414:	33695163          	ble	s6,s2,15736 <_realloc_r+0x3b4>
   15418:	6c71                	lui	s8,0x1c
   1541a:	4c0c0713          	addi	a4,s8,1216 # 1c4c0 <__malloc_av_>
   1541e:	6b10                	ld	a2,16(a4)
   15420:	012b87b3          	add	a5,s7,s2
   15424:	6798                	ld	a4,8(a5)
   15426:	4c0c0c13          	addi	s8,s8,1216
   1542a:	00f60863          	beq	a2,a5,1543a <_realloc_r+0xb8>
   1542e:	ffe77513          	andi	a0,a4,-2
   15432:	953e                	add	a0,a0,a5
   15434:	6508                	ld	a0,8(a0)
   15436:	8905                	andi	a0,a0,1
   15438:	e559                	bnez	a0,154c6 <_realloc_r+0x144>
   1543a:	9b71                	andi	a4,a4,-4
   1543c:	00e909b3          	add	s3,s2,a4
   15440:	02f61c63          	bne	a2,a5,15478 <_realloc_r+0xf6>
   15444:	020b0513          	addi	a0,s6,32
   15448:	08a9c163          	blt	s3,a0,154ca <_realloc_r+0x148>
   1544c:	9bda                	add	s7,s7,s6
   1544e:	416989b3          	sub	s3,s3,s6
   15452:	017c3823          	sd	s7,16(s8)
   15456:	0019e993          	ori	s3,s3,1
   1545a:	013bb423          	sd	s3,8(s7)
   1545e:	ff843983          	ld	s3,-8(s0)
   15462:	8556                	mv	a0,s5
   15464:	8a22                	mv	s4,s0
   15466:	0019f993          	andi	s3,s3,1
   1546a:	0169e9b3          	or	s3,s3,s6
   1546e:	ff343c23          	sd	s3,-8(s0)
   15472:	87dfb0ef          	jal	ra,10cee <__malloc_unlock>
   15476:	bfb5                	j	153f2 <_realloc_r+0x70>
   15478:	0569c963          	blt	s3,s6,154ca <_realloc_r+0x148>
   1547c:	6f98                	ld	a4,24(a5)
   1547e:	6b9c                	ld	a5,16(a5)
   15480:	ef98                	sd	a4,24(a5)
   15482:	eb1c                	sd	a5,16(a4)
   15484:	008bb703          	ld	a4,8(s7)
   15488:	416986b3          	sub	a3,s3,s6
   1548c:	467d                	li	a2,31
   1548e:	8b05                	andi	a4,a4,1
   15490:	013b87b3          	add	a5,s7,s3
   15494:	2ad67363          	bleu	a3,a2,1573a <_realloc_r+0x3b8>
   15498:	00eb69b3          	or	s3,s6,a4
   1549c:	013bb423          	sd	s3,8(s7)
   154a0:	016b85b3          	add	a1,s7,s6
   154a4:	0016e693          	ori	a3,a3,1
   154a8:	e594                	sd	a3,8(a1)
   154aa:	6798                	ld	a4,8(a5)
   154ac:	05c1                	addi	a1,a1,16
   154ae:	8556                	mv	a0,s5
   154b0:	00176713          	ori	a4,a4,1
   154b4:	e798                	sd	a4,8(a5)
   154b6:	dc8fd0ef          	jal	ra,12a7e <_free_r>
   154ba:	8556                	mv	a0,s5
   154bc:	833fb0ef          	jal	ra,10cee <__malloc_unlock>
   154c0:	010b8a13          	addi	s4,s7,16
   154c4:	b73d                	j	153f2 <_realloc_r+0x70>
   154c6:	4701                	li	a4,0
   154c8:	4781                	li	a5,0
   154ca:	8a85                	andi	a3,a3,1
   154cc:	1c069563          	bnez	a3,15696 <_realloc_r+0x314>
   154d0:	ff043483          	ld	s1,-16(s0)
   154d4:	409b84b3          	sub	s1,s7,s1
   154d8:	0084ba03          	ld	s4,8(s1)
   154dc:	ffca7a13          	andi	s4,s4,-4
   154e0:	9a4a                	add	s4,s4,s2
   154e2:	12078c63          	beqz	a5,1561a <_realloc_r+0x298>
   154e6:	014709b3          	add	s3,a4,s4
   154ea:	0af61663          	bne	a2,a5,15596 <_realloc_r+0x214>
   154ee:	020b0793          	addi	a5,s6,32
   154f2:	12f9c463          	blt	s3,a5,1561a <_realloc_r+0x298>
   154f6:	6898                	ld	a4,16(s1)
   154f8:	6c9c                	ld	a5,24(s1)
   154fa:	ff890613          	addi	a2,s2,-8
   154fe:	01048a13          	addi	s4,s1,16
   15502:	ef1c                	sd	a5,24(a4)
   15504:	eb98                	sd	a4,16(a5)
   15506:	04800713          	li	a4,72
   1550a:	08c76163          	bltu	a4,a2,1558c <_realloc_r+0x20a>
   1550e:	02700693          	li	a3,39
   15512:	87d2                	mv	a5,s4
   15514:	00c6fd63          	bleu	a2,a3,1552e <_realloc_r+0x1ac>
   15518:	601c                	ld	a5,0(s0)
   1551a:	e89c                	sd	a5,16(s1)
   1551c:	641c                	ld	a5,8(s0)
   1551e:	ec9c                	sd	a5,24(s1)
   15520:	03700793          	li	a5,55
   15524:	02c7ef63          	bltu	a5,a2,15562 <_realloc_r+0x1e0>
   15528:	0441                	addi	s0,s0,16
   1552a:	02048793          	addi	a5,s1,32
   1552e:	6018                	ld	a4,0(s0)
   15530:	e398                	sd	a4,0(a5)
   15532:	6418                	ld	a4,8(s0)
   15534:	e798                	sd	a4,8(a5)
   15536:	6818                	ld	a4,16(s0)
   15538:	eb98                	sd	a4,16(a5)
   1553a:	016487b3          	add	a5,s1,s6
   1553e:	416989b3          	sub	s3,s3,s6
   15542:	00fc3823          	sd	a5,16(s8)
   15546:	0019e993          	ori	s3,s3,1
   1554a:	0137b423          	sd	s3,8(a5) # ffffffff80000008 <__global_pointer$+0xffffffff7ffe2990>
   1554e:	649c                	ld	a5,8(s1)
   15550:	8b85                	andi	a5,a5,1
   15552:	0167e9b3          	or	s3,a5,s6
   15556:	0134b423          	sd	s3,8(s1)
   1555a:	8556                	mv	a0,s5
   1555c:	f92fb0ef          	jal	ra,10cee <__malloc_unlock>
   15560:	bd49                	j	153f2 <_realloc_r+0x70>
   15562:	681c                	ld	a5,16(s0)
   15564:	f09c                	sd	a5,32(s1)
   15566:	6c1c                	ld	a5,24(s0)
   15568:	f49c                	sd	a5,40(s1)
   1556a:	00e60763          	beq	a2,a4,15578 <_realloc_r+0x1f6>
   1556e:	02040413          	addi	s0,s0,32
   15572:	03048793          	addi	a5,s1,48
   15576:	bf65                	j	1552e <_realloc_r+0x1ac>
   15578:	701c                	ld	a5,32(s0)
   1557a:	03040413          	addi	s0,s0,48
   1557e:	f89c                	sd	a5,48(s1)
   15580:	ff843703          	ld	a4,-8(s0)
   15584:	04048793          	addi	a5,s1,64
   15588:	fc98                	sd	a4,56(s1)
   1558a:	b755                	j	1552e <_realloc_r+0x1ac>
   1558c:	85a2                	mv	a1,s0
   1558e:	8552                	mv	a0,s4
   15590:	b9aff0ef          	jal	ra,1492a <memmove>
   15594:	b75d                	j	1553a <_realloc_r+0x1b8>
   15596:	0969c263          	blt	s3,s6,1561a <_realloc_r+0x298>
   1559a:	6f98                	ld	a4,24(a5)
   1559c:	6b9c                	ld	a5,16(a5)
   1559e:	ff890613          	addi	a2,s2,-8
   155a2:	01048513          	addi	a0,s1,16
   155a6:	ef98                	sd	a4,24(a5)
   155a8:	eb1c                	sd	a5,16(a4)
   155aa:	6898                	ld	a4,16(s1)
   155ac:	6c9c                	ld	a5,24(s1)
   155ae:	ef1c                	sd	a5,24(a4)
   155b0:	eb98                	sd	a4,16(a5)
   155b2:	04800793          	li	a5,72
   155b6:	04c7ee63          	bltu	a5,a2,15612 <_realloc_r+0x290>
   155ba:	02700713          	li	a4,39
   155be:	00c77d63          	bleu	a2,a4,155d8 <_realloc_r+0x256>
   155c2:	6018                	ld	a4,0(s0)
   155c4:	e898                	sd	a4,16(s1)
   155c6:	6418                	ld	a4,8(s0)
   155c8:	ec98                	sd	a4,24(s1)
   155ca:	03700713          	li	a4,55
   155ce:	00c76d63          	bltu	a4,a2,155e8 <_realloc_r+0x266>
   155d2:	0441                	addi	s0,s0,16
   155d4:	02048513          	addi	a0,s1,32
   155d8:	601c                	ld	a5,0(s0)
   155da:	e11c                	sd	a5,0(a0)
   155dc:	641c                	ld	a5,8(s0)
   155de:	e51c                	sd	a5,8(a0)
   155e0:	681c                	ld	a5,16(s0)
   155e2:	e91c                	sd	a5,16(a0)
   155e4:	8ba6                	mv	s7,s1
   155e6:	bd79                	j	15484 <_realloc_r+0x102>
   155e8:	6818                	ld	a4,16(s0)
   155ea:	f098                	sd	a4,32(s1)
   155ec:	6c18                	ld	a4,24(s0)
   155ee:	f498                	sd	a4,40(s1)
   155f0:	00f60763          	beq	a2,a5,155fe <_realloc_r+0x27c>
   155f4:	02040413          	addi	s0,s0,32
   155f8:	03048513          	addi	a0,s1,48
   155fc:	bff1                	j	155d8 <_realloc_r+0x256>
   155fe:	701c                	ld	a5,32(s0)
   15600:	04048513          	addi	a0,s1,64
   15604:	03040413          	addi	s0,s0,48
   15608:	f89c                	sd	a5,48(s1)
   1560a:	ff843783          	ld	a5,-8(s0)
   1560e:	fc9c                	sd	a5,56(s1)
   15610:	b7e1                	j	155d8 <_realloc_r+0x256>
   15612:	85a2                	mv	a1,s0
   15614:	b16ff0ef          	jal	ra,1492a <memmove>
   15618:	b7f1                	j	155e4 <_realloc_r+0x262>
   1561a:	076a4e63          	blt	s4,s6,15696 <_realloc_r+0x314>
   1561e:	6c9c                	ld	a5,24(s1)
   15620:	6898                	ld	a4,16(s1)
   15622:	ff890613          	addi	a2,s2,-8
   15626:	01048513          	addi	a0,s1,16
   1562a:	ef1c                	sd	a5,24(a4)
   1562c:	eb98                	sd	a4,16(a5)
   1562e:	04800793          	li	a5,72
   15632:	04c7ee63          	bltu	a5,a2,1568e <_realloc_r+0x30c>
   15636:	02700713          	li	a4,39
   1563a:	00c77d63          	bleu	a2,a4,15654 <_realloc_r+0x2d2>
   1563e:	6018                	ld	a4,0(s0)
   15640:	e898                	sd	a4,16(s1)
   15642:	6418                	ld	a4,8(s0)
   15644:	ec98                	sd	a4,24(s1)
   15646:	03700713          	li	a4,55
   1564a:	00c76d63          	bltu	a4,a2,15664 <_realloc_r+0x2e2>
   1564e:	0441                	addi	s0,s0,16
   15650:	02048513          	addi	a0,s1,32
   15654:	601c                	ld	a5,0(s0)
   15656:	e11c                	sd	a5,0(a0)
   15658:	641c                	ld	a5,8(s0)
   1565a:	e51c                	sd	a5,8(a0)
   1565c:	681c                	ld	a5,16(s0)
   1565e:	e91c                	sd	a5,16(a0)
   15660:	89d2                	mv	s3,s4
   15662:	b749                	j	155e4 <_realloc_r+0x262>
   15664:	6818                	ld	a4,16(s0)
   15666:	f098                	sd	a4,32(s1)
   15668:	6c18                	ld	a4,24(s0)
   1566a:	f498                	sd	a4,40(s1)
   1566c:	00f60763          	beq	a2,a5,1567a <_realloc_r+0x2f8>
   15670:	02040413          	addi	s0,s0,32
   15674:	03048513          	addi	a0,s1,48
   15678:	bff1                	j	15654 <_realloc_r+0x2d2>
   1567a:	701c                	ld	a5,32(s0)
   1567c:	04048513          	addi	a0,s1,64
   15680:	03040413          	addi	s0,s0,48
   15684:	f89c                	sd	a5,48(s1)
   15686:	ff843783          	ld	a5,-8(s0)
   1568a:	fc9c                	sd	a5,56(s1)
   1568c:	b7e1                	j	15654 <_realloc_r+0x2d2>
   1568e:	85a2                	mv	a1,s0
   15690:	a9aff0ef          	jal	ra,1492a <memmove>
   15694:	b7f1                	j	15660 <_realloc_r+0x2de>
   15696:	8556                	mv	a0,s5
   15698:	80cfb0ef          	jal	ra,106a4 <_malloc_r>
   1569c:	8a2a                	mv	s4,a0
   1569e:	ea050ee3          	beqz	a0,1555a <_realloc_r+0x1d8>
   156a2:	ff843783          	ld	a5,-8(s0)
   156a6:	ff050713          	addi	a4,a0,-16
   156aa:	9bf9                	andi	a5,a5,-2
   156ac:	97de                	add	a5,a5,s7
   156ae:	00e79863          	bne	a5,a4,156be <_realloc_r+0x33c>
   156b2:	ff853983          	ld	s3,-8(a0)
   156b6:	ffc9f993          	andi	s3,s3,-4
   156ba:	99ca                	add	s3,s3,s2
   156bc:	b3e1                	j	15484 <_realloc_r+0x102>
   156be:	ff890613          	addi	a2,s2,-8
   156c2:	04800793          	li	a5,72
   156c6:	06c7e463          	bltu	a5,a2,1572e <_realloc_r+0x3ac>
   156ca:	02700713          	li	a4,39
   156ce:	04c77d63          	bleu	a2,a4,15728 <_realloc_r+0x3a6>
   156d2:	6018                	ld	a4,0(s0)
   156d4:	e118                	sd	a4,0(a0)
   156d6:	6418                	ld	a4,8(s0)
   156d8:	e518                	sd	a4,8(a0)
   156da:	03700713          	li	a4,55
   156de:	02c76163          	bltu	a4,a2,15700 <_realloc_r+0x37e>
   156e2:	01040713          	addi	a4,s0,16
   156e6:	01050793          	addi	a5,a0,16
   156ea:	6314                	ld	a3,0(a4)
   156ec:	e394                	sd	a3,0(a5)
   156ee:	6714                	ld	a3,8(a4)
   156f0:	e794                	sd	a3,8(a5)
   156f2:	6b18                	ld	a4,16(a4)
   156f4:	eb98                	sd	a4,16(a5)
   156f6:	85a2                	mv	a1,s0
   156f8:	8556                	mv	a0,s5
   156fa:	b84fd0ef          	jal	ra,12a7e <_free_r>
   156fe:	bdb1                	j	1555a <_realloc_r+0x1d8>
   15700:	6818                	ld	a4,16(s0)
   15702:	e918                	sd	a4,16(a0)
   15704:	6c18                	ld	a4,24(s0)
   15706:	ed18                	sd	a4,24(a0)
   15708:	00f60763          	beq	a2,a5,15716 <_realloc_r+0x394>
   1570c:	02040713          	addi	a4,s0,32
   15710:	02050793          	addi	a5,a0,32
   15714:	bfd9                	j	156ea <_realloc_r+0x368>
   15716:	701c                	ld	a5,32(s0)
   15718:	03040713          	addi	a4,s0,48
   1571c:	f11c                	sd	a5,32(a0)
   1571e:	7414                	ld	a3,40(s0)
   15720:	03050793          	addi	a5,a0,48
   15724:	f514                	sd	a3,40(a0)
   15726:	b7d1                	j	156ea <_realloc_r+0x368>
   15728:	87aa                	mv	a5,a0
   1572a:	8722                	mv	a4,s0
   1572c:	bf7d                	j	156ea <_realloc_r+0x368>
   1572e:	85a2                	mv	a1,s0
   15730:	9faff0ef          	jal	ra,1492a <memmove>
   15734:	b7c9                	j	156f6 <_realloc_r+0x374>
   15736:	89ca                	mv	s3,s2
   15738:	b3b1                	j	15484 <_realloc_r+0x102>
   1573a:	00e9e9b3          	or	s3,s3,a4
   1573e:	013bb423          	sd	s3,8(s7)
   15742:	6798                	ld	a4,8(a5)
   15744:	00176713          	ori	a4,a4,1
   15748:	e798                	sd	a4,8(a5)
   1574a:	bb85                	j	154ba <_realloc_r+0x138>

000000000001574c <cleanup_glue>:
   1574c:	1101                	addi	sp,sp,-32
   1574e:	e822                	sd	s0,16(sp)
   15750:	842e                	mv	s0,a1
   15752:	618c                	ld	a1,0(a1)
   15754:	e426                	sd	s1,8(sp)
   15756:	ec06                	sd	ra,24(sp)
   15758:	84aa                	mv	s1,a0
   1575a:	c199                	beqz	a1,15760 <cleanup_glue+0x14>
   1575c:	ff1ff0ef          	jal	ra,1574c <cleanup_glue>
   15760:	85a2                	mv	a1,s0
   15762:	6442                	ld	s0,16(sp)
   15764:	60e2                	ld	ra,24(sp)
   15766:	8526                	mv	a0,s1
   15768:	64a2                	ld	s1,8(sp)
   1576a:	6105                	addi	sp,sp,32
   1576c:	b12fd06f          	j	12a7e <_free_r>

0000000000015770 <_reclaim_reent>:
   15770:	8381b783          	ld	a5,-1992(gp) # 1ceb0 <_impure_ptr>
   15774:	0aa78063          	beq	a5,a0,15814 <_reclaim_reent+0xa4>
   15778:	7d3c                	ld	a5,120(a0)
   1577a:	7179                	addi	sp,sp,-48
   1577c:	f022                	sd	s0,32(sp)
   1577e:	ec26                	sd	s1,24(sp)
   15780:	e84a                	sd	s2,16(sp)
   15782:	f406                	sd	ra,40(sp)
   15784:	e44e                	sd	s3,8(sp)
   15786:	842a                	mv	s0,a0
   15788:	4481                	li	s1,0
   1578a:	20000913          	li	s2,512
   1578e:	eb85                	bnez	a5,157be <_reclaim_reent+0x4e>
   15790:	702c                	ld	a1,96(s0)
   15792:	c581                	beqz	a1,1579a <_reclaim_reent+0x2a>
   15794:	8522                	mv	a0,s0
   15796:	ae8fd0ef          	jal	ra,12a7e <_free_r>
   1579a:	1f843583          	ld	a1,504(s0)
   1579e:	cd95                	beqz	a1,157da <_reclaim_reent+0x6a>
   157a0:	20040493          	addi	s1,s0,512
   157a4:	02958b63          	beq	a1,s1,157da <_reclaim_reent+0x6a>
   157a8:	0005b903          	ld	s2,0(a1)
   157ac:	8522                	mv	a0,s0
   157ae:	ad0fd0ef          	jal	ra,12a7e <_free_r>
   157b2:	85ca                	mv	a1,s2
   157b4:	bfc5                	j	157a4 <_reclaim_reent+0x34>
   157b6:	95a6                	add	a1,a1,s1
   157b8:	618c                	ld	a1,0(a1)
   157ba:	e989                	bnez	a1,157cc <_reclaim_reent+0x5c>
   157bc:	04a1                	addi	s1,s1,8
   157be:	7c2c                	ld	a1,120(s0)
   157c0:	ff249be3          	bne	s1,s2,157b6 <_reclaim_reent+0x46>
   157c4:	8522                	mv	a0,s0
   157c6:	ab8fd0ef          	jal	ra,12a7e <_free_r>
   157ca:	b7d9                	j	15790 <_reclaim_reent+0x20>
   157cc:	0005b983          	ld	s3,0(a1)
   157d0:	8522                	mv	a0,s0
   157d2:	aacfd0ef          	jal	ra,12a7e <_free_r>
   157d6:	85ce                	mv	a1,s3
   157d8:	b7cd                	j	157ba <_reclaim_reent+0x4a>
   157da:	644c                	ld	a1,136(s0)
   157dc:	c581                	beqz	a1,157e4 <_reclaim_reent+0x74>
   157de:	8522                	mv	a0,s0
   157e0:	a9efd0ef          	jal	ra,12a7e <_free_r>
   157e4:	483c                	lw	a5,80(s0)
   157e6:	c385                	beqz	a5,15806 <_reclaim_reent+0x96>
   157e8:	6c3c                	ld	a5,88(s0)
   157ea:	8522                	mv	a0,s0
   157ec:	9782                	jalr	a5
   157ee:	52043583          	ld	a1,1312(s0)
   157f2:	c991                	beqz	a1,15806 <_reclaim_reent+0x96>
   157f4:	8522                	mv	a0,s0
   157f6:	7402                	ld	s0,32(sp)
   157f8:	70a2                	ld	ra,40(sp)
   157fa:	64e2                	ld	s1,24(sp)
   157fc:	6942                	ld	s2,16(sp)
   157fe:	69a2                	ld	s3,8(sp)
   15800:	6145                	addi	sp,sp,48
   15802:	f4bff06f          	j	1574c <cleanup_glue>
   15806:	70a2                	ld	ra,40(sp)
   15808:	7402                	ld	s0,32(sp)
   1580a:	64e2                	ld	s1,24(sp)
   1580c:	6942                	ld	s2,16(sp)
   1580e:	69a2                	ld	s3,8(sp)
   15810:	6145                	addi	sp,sp,48
   15812:	8082                	ret
   15814:	8082                	ret

0000000000015816 <frexp>:
   15816:	e20507d3          	fmv.x.d	a5,fa0
   1581a:	80000637          	lui	a2,0x80000
   1581e:	fff64613          	not	a2,a2
   15822:	4207d713          	srai	a4,a5,0x20
   15826:	00c776b3          	and	a3,a4,a2
   1582a:	00052023          	sw	zero,0(a0)
   1582e:	7ff005b7          	lui	a1,0x7ff00
   15832:	04b6dc63          	ble	a1,a3,1588a <frexp+0x74>
   15836:	00f6e5b3          	or	a1,a3,a5
   1583a:	2581                	sext.w	a1,a1
   1583c:	c5b9                	beqz	a1,1588a <frexp+0x74>
   1583e:	001005b7          	lui	a1,0x100
   15842:	02b6d163          	ble	a1,a3,15864 <frexp+0x4e>
   15846:	0001d737          	lui	a4,0x1d
   1584a:	e8873787          	fld	fa5,-376(a4) # 1ce88 <__TMC_END__+0x10>
   1584e:	12f577d3          	fmul.d	fa5,fa0,fa5
   15852:	e20787d3          	fmv.x.d	a5,fa5
   15856:	4207d713          	srai	a4,a5,0x20
   1585a:	00c776b3          	and	a3,a4,a2
   1585e:	fca00613          	li	a2,-54
   15862:	c110                	sw	a2,0(a0)
   15864:	4110                	lw	a2,0(a0)
   15866:	4146d69b          	sraiw	a3,a3,0x14
   1586a:	c026869b          	addiw	a3,a3,-1022
   1586e:	9eb1                	addw	a3,a3,a2
   15870:	c114                	sw	a3,0(a0)
   15872:	801006b7          	lui	a3,0x80100
   15876:	16fd                	addi	a3,a3,-1
   15878:	8f75                	and	a4,a4,a3
   1587a:	3fe006b7          	lui	a3,0x3fe00
   1587e:	8f55                	or	a4,a4,a3
   15880:	56fd                	li	a3,-1
   15882:	9281                	srli	a3,a3,0x20
   15884:	1702                	slli	a4,a4,0x20
   15886:	8ff5                	and	a5,a5,a3
   15888:	8fd9                	or	a5,a5,a4
   1588a:	f2078553          	fmv.d.x	fa0,a5
   1588e:	8082                	ret

0000000000015890 <_sprintf_r>:
   15890:	7111                	addi	sp,sp,-256
   15892:	f5be                	sd	a5,232(sp)
   15894:	800007b7          	lui	a5,0x80000
   15898:	fff7c793          	not	a5,a5
   1589c:	d83e                	sw	a5,48(sp)
   1589e:	ce3e                	sw	a5,28(sp)
   158a0:	77c1                	lui	a5,0xffff0
   158a2:	edb6                	sd	a3,216(sp)
   158a4:	e82e                	sd	a1,16(sp)
   158a6:	f42e                	sd	a1,40(sp)
   158a8:	2087879b          	addiw	a5,a5,520
   158ac:	09b4                	addi	a3,sp,216
   158ae:	080c                	addi	a1,sp,16
   158b0:	e586                	sd	ra,200(sp)
   158b2:	d03e                	sw	a5,32(sp)
   158b4:	f1ba                	sd	a4,224(sp)
   158b6:	f9c2                	sd	a6,240(sp)
   158b8:	fdc6                	sd	a7,248(sp)
   158ba:	e436                	sd	a3,8(sp)
   158bc:	248000ef          	jal	ra,15b04 <_svfprintf_r>
   158c0:	67c2                	ld	a5,16(sp)
   158c2:	00078023          	sb	zero,0(a5) # ffffffffffff0000 <__global_pointer$+0xfffffffffffd2988>
   158c6:	60ae                	ld	ra,200(sp)
   158c8:	6111                	addi	sp,sp,256
   158ca:	8082                	ret

00000000000158cc <sprintf>:
   158cc:	7111                	addi	sp,sp,-256
   158ce:	f5be                	sd	a5,232(sp)
   158d0:	800007b7          	lui	a5,0x80000
   158d4:	fff7c793          	not	a5,a5
   158d8:	d83e                	sw	a5,48(sp)
   158da:	ce3e                	sw	a5,28(sp)
   158dc:	77c1                	lui	a5,0xffff0
   158de:	2087879b          	addiw	a5,a5,520
   158e2:	d03e                	sw	a5,32(sp)
   158e4:	e82a                	sd	a0,16(sp)
   158e6:	f42a                	sd	a0,40(sp)
   158e8:	8381b503          	ld	a0,-1992(gp) # 1ceb0 <_impure_ptr>
   158ec:	e9b2                	sd	a2,208(sp)
   158ee:	edb6                	sd	a3,216(sp)
   158f0:	862e                	mv	a2,a1
   158f2:	0994                	addi	a3,sp,208
   158f4:	080c                	addi	a1,sp,16
   158f6:	e586                	sd	ra,200(sp)
   158f8:	f1ba                	sd	a4,224(sp)
   158fa:	f9c2                	sd	a6,240(sp)
   158fc:	fdc6                	sd	a7,248(sp)
   158fe:	e436                	sd	a3,8(sp)
   15900:	204000ef          	jal	ra,15b04 <_svfprintf_r>
   15904:	67c2                	ld	a5,16(sp)
   15906:	00078023          	sb	zero,0(a5) # ffffffffffff0000 <__global_pointer$+0xfffffffffffd2988>
   1590a:	60ae                	ld	ra,200(sp)
   1590c:	6111                	addi	sp,sp,256
   1590e:	8082                	ret

0000000000015910 <__sread>:
   15910:	1141                	addi	sp,sp,-16
   15912:	e022                	sd	s0,0(sp)
   15914:	842e                	mv	s0,a1
   15916:	01259583          	lh	a1,18(a1) # 100012 <__global_pointer$+0xe299a>
   1591a:	e406                	sd	ra,8(sp)
   1591c:	442020ef          	jal	ra,17d5e <_read_r>
   15920:	00054963          	bltz	a0,15932 <__sread+0x22>
   15924:	685c                	ld	a5,144(s0)
   15926:	97aa                	add	a5,a5,a0
   15928:	e85c                	sd	a5,144(s0)
   1592a:	60a2                	ld	ra,8(sp)
   1592c:	6402                	ld	s0,0(sp)
   1592e:	0141                	addi	sp,sp,16
   15930:	8082                	ret
   15932:	01045783          	lhu	a5,16(s0)
   15936:	777d                	lui	a4,0xfffff
   15938:	177d                	addi	a4,a4,-1
   1593a:	8ff9                	and	a5,a5,a4
   1593c:	00f41823          	sh	a5,16(s0)
   15940:	b7ed                	j	1592a <__sread+0x1a>

0000000000015942 <__seofread>:
   15942:	4501                	li	a0,0
   15944:	8082                	ret

0000000000015946 <__swrite>:
   15946:	0105d783          	lhu	a5,16(a1)
   1594a:	7179                	addi	sp,sp,-48
   1594c:	f022                	sd	s0,32(sp)
   1594e:	ec26                	sd	s1,24(sp)
   15950:	e84a                	sd	s2,16(sp)
   15952:	e44e                	sd	s3,8(sp)
   15954:	f406                	sd	ra,40(sp)
   15956:	1007f793          	andi	a5,a5,256
   1595a:	84aa                	mv	s1,a0
   1595c:	842e                	mv	s0,a1
   1595e:	8932                	mv	s2,a2
   15960:	89b6                	mv	s3,a3
   15962:	c799                	beqz	a5,15970 <__swrite+0x2a>
   15964:	01259583          	lh	a1,18(a1)
   15968:	4689                	li	a3,2
   1596a:	4601                	li	a2,0
   1596c:	3c2020ef          	jal	ra,17d2e <_lseek_r>
   15970:	01045783          	lhu	a5,16(s0)
   15974:	777d                	lui	a4,0xfffff
   15976:	177d                	addi	a4,a4,-1
   15978:	8ff9                	and	a5,a5,a4
   1597a:	00f41823          	sh	a5,16(s0)
   1597e:	01241583          	lh	a1,18(s0)
   15982:	7402                	ld	s0,32(sp)
   15984:	70a2                	ld	ra,40(sp)
   15986:	86ce                	mv	a3,s3
   15988:	864a                	mv	a2,s2
   1598a:	69a2                	ld	s3,8(sp)
   1598c:	6942                	ld	s2,16(sp)
   1598e:	8526                	mv	a0,s1
   15990:	64e2                	ld	s1,24(sp)
   15992:	6145                	addi	sp,sp,48
   15994:	0c40206f          	j	17a58 <_write_r>

0000000000015998 <__sseek>:
   15998:	1141                	addi	sp,sp,-16
   1599a:	e022                	sd	s0,0(sp)
   1599c:	842e                	mv	s0,a1
   1599e:	01259583          	lh	a1,18(a1)
   159a2:	e406                	sd	ra,8(sp)
   159a4:	38a020ef          	jal	ra,17d2e <_lseek_r>
   159a8:	57fd                	li	a5,-1
   159aa:	01045703          	lhu	a4,16(s0)
   159ae:	00f51b63          	bne	a0,a5,159c4 <__sseek+0x2c>
   159b2:	77fd                	lui	a5,0xfffff
   159b4:	17fd                	addi	a5,a5,-1
   159b6:	8ff9                	and	a5,a5,a4
   159b8:	00f41823          	sh	a5,16(s0)
   159bc:	60a2                	ld	ra,8(sp)
   159be:	6402                	ld	s0,0(sp)
   159c0:	0141                	addi	sp,sp,16
   159c2:	8082                	ret
   159c4:	6785                	lui	a5,0x1
   159c6:	8fd9                	or	a5,a5,a4
   159c8:	00f41823          	sh	a5,16(s0)
   159cc:	e848                	sd	a0,144(s0)
   159ce:	b7fd                	j	159bc <__sseek+0x24>

00000000000159d0 <__sclose>:
   159d0:	01259583          	lh	a1,18(a1)
   159d4:	1300206f          	j	17b04 <_close_r>

00000000000159d8 <strcmp>:
   159d8:	00b56733          	or	a4,a0,a1
   159dc:	53fd                	li	t2,-1
   159de:	8b1d                	andi	a4,a4,7
   159e0:	eb4d                	bnez	a4,15a92 <strcmp+0xba>
   159e2:	00007797          	auipc	a5,0x7
   159e6:	4ae7b783          	ld	a5,1198(a5) # 1ce90 <mask>
   159ea:	6110                	ld	a2,0(a0)
   159ec:	6194                	ld	a3,0(a1)
   159ee:	00f672b3          	and	t0,a2,a5
   159f2:	00f66333          	or	t1,a2,a5
   159f6:	92be                	add	t0,t0,a5
   159f8:	0062e2b3          	or	t0,t0,t1
   159fc:	0a729963          	bne	t0,t2,15aae <strcmp+0xd6>
   15a00:	02d61e63          	bne	a2,a3,15a3c <strcmp+0x64>
   15a04:	6510                	ld	a2,8(a0)
   15a06:	6594                	ld	a3,8(a1)
   15a08:	00f672b3          	and	t0,a2,a5
   15a0c:	00f66333          	or	t1,a2,a5
   15a10:	92be                	add	t0,t0,a5
   15a12:	0062e2b3          	or	t0,t0,t1
   15a16:	08729a63          	bne	t0,t2,15aaa <strcmp+0xd2>
   15a1a:	02d61163          	bne	a2,a3,15a3c <strcmp+0x64>
   15a1e:	6910                	ld	a2,16(a0)
   15a20:	6994                	ld	a3,16(a1)
   15a22:	00f672b3          	and	t0,a2,a5
   15a26:	00f66333          	or	t1,a2,a5
   15a2a:	92be                	add	t0,t0,a5
   15a2c:	0062e2b3          	or	t0,t0,t1
   15a30:	08729363          	bne	t0,t2,15ab6 <strcmp+0xde>
   15a34:	0561                	addi	a0,a0,24
   15a36:	05e1                	addi	a1,a1,24
   15a38:	fad609e3          	beq	a2,a3,159ea <strcmp+0x12>
   15a3c:	03061713          	slli	a4,a2,0x30
   15a40:	03069793          	slli	a5,a3,0x30
   15a44:	02f71863          	bne	a4,a5,15a74 <strcmp+0x9c>
   15a48:	02061713          	slli	a4,a2,0x20
   15a4c:	02069793          	slli	a5,a3,0x20
   15a50:	02f71263          	bne	a4,a5,15a74 <strcmp+0x9c>
   15a54:	01061713          	slli	a4,a2,0x10
   15a58:	01069793          	slli	a5,a3,0x10
   15a5c:	00f71c63          	bne	a4,a5,15a74 <strcmp+0x9c>
   15a60:	03065713          	srli	a4,a2,0x30
   15a64:	0306d793          	srli	a5,a3,0x30
   15a68:	40f70533          	sub	a0,a4,a5
   15a6c:	0ff57593          	andi	a1,a0,255
   15a70:	e991                	bnez	a1,15a84 <strcmp+0xac>
   15a72:	8082                	ret
   15a74:	9341                	srli	a4,a4,0x30
   15a76:	93c1                	srli	a5,a5,0x30
   15a78:	40f70533          	sub	a0,a4,a5
   15a7c:	0ff57593          	andi	a1,a0,255
   15a80:	e191                	bnez	a1,15a84 <strcmp+0xac>
   15a82:	8082                	ret
   15a84:	0ff77713          	andi	a4,a4,255
   15a88:	0ff7f793          	andi	a5,a5,255
   15a8c:	40f70533          	sub	a0,a4,a5
   15a90:	8082                	ret
   15a92:	00054603          	lbu	a2,0(a0)
   15a96:	0005c683          	lbu	a3,0(a1)
   15a9a:	0505                	addi	a0,a0,1
   15a9c:	0585                	addi	a1,a1,1
   15a9e:	00d61363          	bne	a2,a3,15aa4 <strcmp+0xcc>
   15aa2:	fa65                	bnez	a2,15a92 <strcmp+0xba>
   15aa4:	40d60533          	sub	a0,a2,a3
   15aa8:	8082                	ret
   15aaa:	0521                	addi	a0,a0,8
   15aac:	05a1                	addi	a1,a1,8
   15aae:	fed612e3          	bne	a2,a3,15a92 <strcmp+0xba>
   15ab2:	4501                	li	a0,0
   15ab4:	8082                	ret
   15ab6:	0541                	addi	a0,a0,16
   15ab8:	05c1                	addi	a1,a1,16
   15aba:	fcd61ce3          	bne	a2,a3,15a92 <strcmp+0xba>
   15abe:	4501                	li	a0,0
   15ac0:	8082                	ret

0000000000015ac2 <strcpy>:
   15ac2:	87aa                	mv	a5,a0
   15ac4:	0005c703          	lbu	a4,0(a1)
   15ac8:	0785                	addi	a5,a5,1
   15aca:	0585                	addi	a1,a1,1
   15acc:	fee78fa3          	sb	a4,-1(a5)
   15ad0:	fb75                	bnez	a4,15ac4 <strcpy+0x2>
   15ad2:	8082                	ret

0000000000015ad4 <strncpy>:
   15ad4:	872a                	mv	a4,a0
   15ad6:	e211                	bnez	a2,15ada <strncpy+0x6>
   15ad8:	8082                	ret
   15ada:	0585                	addi	a1,a1,1
   15adc:	fff5c683          	lbu	a3,-1(a1)
   15ae0:	00170793          	addi	a5,a4,1 # fffffffffffff001 <__global_pointer$+0xfffffffffffe1989>
   15ae4:	fff60813          	addi	a6,a2,-1 # ffffffff7fffffff <__global_pointer$+0xffffffff7ffe2987>
   15ae8:	fed78fa3          	sb	a3,-1(a5)
   15aec:	e689                	bnez	a3,15af6 <strncpy+0x22>
   15aee:	9732                	add	a4,a4,a2
   15af0:	00e79663          	bne	a5,a4,15afc <strncpy+0x28>
   15af4:	8082                	ret
   15af6:	873e                	mv	a4,a5
   15af8:	8642                	mv	a2,a6
   15afa:	bff1                	j	15ad6 <strncpy+0x2>
   15afc:	0785                	addi	a5,a5,1
   15afe:	fe078fa3          	sb	zero,-1(a5)
   15b02:	b7fd                	j	15af0 <strncpy+0x1c>

0000000000015b04 <_svfprintf_r>:
   15b04:	d9010113          	addi	sp,sp,-624
   15b08:	26113423          	sd	ra,616(sp)
   15b0c:	24913c23          	sd	s1,600(sp)
   15b10:	25213823          	sd	s2,592(sp)
   15b14:	25313423          	sd	s3,584(sp)
   15b18:	23713423          	sd	s7,552(sp)
   15b1c:	89ae                	mv	s3,a1
   15b1e:	84b2                	mv	s1,a2
   15b20:	8bb6                	mv	s7,a3
   15b22:	26813023          	sd	s0,608(sp)
   15b26:	25413023          	sd	s4,576(sp)
   15b2a:	23513c23          	sd	s5,568(sp)
   15b2e:	23613823          	sd	s6,560(sp)
   15b32:	23813023          	sd	s8,544(sp)
   15b36:	21913c23          	sd	s9,536(sp)
   15b3a:	21a13823          	sd	s10,528(sp)
   15b3e:	21b13423          	sd	s11,520(sp)
   15b42:	892a                	mv	s2,a0
   15b44:	bcbfe0ef          	jal	ra,1470e <_localeconv_r>
   15b48:	611c                	ld	a5,0(a0)
   15b4a:	853e                	mv	a0,a5
   15b4c:	e4be                	sd	a5,72(sp)
   15b4e:	a9efb0ef          	jal	ra,10dec <strlen>
   15b52:	0109d783          	lhu	a5,16(s3)
   15b56:	ec2a                	sd	a0,24(sp)
   15b58:	f982                	sd	zero,240(sp)
   15b5a:	fd82                	sd	zero,248(sp)
   15b5c:	0807f793          	andi	a5,a5,128
   15b60:	cb85                	beqz	a5,15b90 <_svfprintf_r+0x8c>
   15b62:	0189b783          	ld	a5,24(s3)
   15b66:	e78d                	bnez	a5,15b90 <_svfprintf_r+0x8c>
   15b68:	04000593          	li	a1,64
   15b6c:	854a                	mv	a0,s2
   15b6e:	b37fa0ef          	jal	ra,106a4 <_malloc_r>
   15b72:	00a9b023          	sd	a0,0(s3)
   15b76:	00a9bc23          	sd	a0,24(s3)
   15b7a:	e519                	bnez	a0,15b88 <_svfprintf_r+0x84>
   15b7c:	47b1                	li	a5,12
   15b7e:	00f92023          	sw	a5,0(s2)
   15b82:	57fd                	li	a5,-1
   15b84:	f43e                	sd	a5,40(sp)
   15b86:	a3d5                	j	1616a <_svfprintf_r+0x666>
   15b88:	04000793          	li	a5,64
   15b8c:	02f9a023          	sw	a5,32(s3)
   15b90:	67e9                	lui	a5,0x1a
   15b92:	66878793          	addi	a5,a5,1640 # 1a668 <__mprec_bigtens+0x28>
   15b96:	ed3e                	sd	a5,152(sp)
   15b98:	0001a7b7          	lui	a5,0x1a
   15b9c:	2087b783          	ld	a5,520(a5) # 1a208 <zeroes.4441+0x18>
   15ba0:	18010a93          	addi	s5,sp,384
   15ba4:	e256                	sd	s5,256(sp)
   15ba6:	f13e                	sd	a5,160(sp)
   15ba8:	0001a7b7          	lui	a5,0x1a
   15bac:	2187b783          	ld	a5,536(a5) # 1a218 <zeroes.4441+0x28>
   15bb0:	ea02                	sd	zero,272(sp)
   15bb2:	10012423          	sw	zero,264(sp)
   15bb6:	f53e                	sd	a5,168(sp)
   15bb8:	0001a7b7          	lui	a5,0x1a
   15bbc:	2287b783          	ld	a5,552(a5) # 1a228 <zeroes.4441+0x38>
   15bc0:	4a01                	li	s4,0
   15bc2:	8cd6                	mv	s9,s5
   15bc4:	f082                	sd	zero,96(sp)
   15bc6:	ec82                	sd	zero,88(sp)
   15bc8:	e002                	sd	zero,0(sp)
   15bca:	e082                	sd	zero,64(sp)
   15bcc:	e882                	sd	zero,80(sp)
   15bce:	f402                	sd	zero,40(sp)
   15bd0:	e93e                	sd	a5,144(sp)
   15bd2:	8426                	mv	s0,s1
   15bd4:	02500713          	li	a4,37
   15bd8:	00044783          	lbu	a5,0(s0)
   15bdc:	c399                	beqz	a5,15be2 <_svfprintf_r+0xde>
   15bde:	08e79663          	bne	a5,a4,15c6a <_svfprintf_r+0x166>
   15be2:	40940b3b          	subw	s6,s0,s1
   15be6:	020b0f63          	beqz	s6,15c24 <_svfprintf_r+0x120>
   15bea:	67d2                	ld	a5,272(sp)
   15bec:	009cb023          	sd	s1,0(s9)
   15bf0:	016cb423          	sd	s6,8(s9)
   15bf4:	97da                	add	a5,a5,s6
   15bf6:	ea3e                	sd	a5,272(sp)
   15bf8:	10812783          	lw	a5,264(sp)
   15bfc:	0cc1                	addi	s9,s9,16
   15bfe:	0017871b          	addiw	a4,a5,1
   15c02:	10e12423          	sw	a4,264(sp)
   15c06:	479d                	li	a5,7
   15c08:	00e7da63          	ble	a4,a5,15c1c <_svfprintf_r+0x118>
   15c0c:	0210                	addi	a2,sp,256
   15c0e:	85ce                	mv	a1,s3
   15c10:	854a                	mv	a0,s2
   15c12:	17c020ef          	jal	ra,17d8e <__ssprint_r>
   15c16:	54051463          	bnez	a0,1615e <_svfprintf_r+0x65a>
   15c1a:	8cd6                	mv	s9,s5
   15c1c:	77a2                	ld	a5,40(sp)
   15c1e:	016787bb          	addw	a5,a5,s6
   15c22:	f43e                	sd	a5,40(sp)
   15c24:	00044783          	lbu	a5,0(s0)
   15c28:	e399                	bnez	a5,15c2e <_svfprintf_r+0x12a>
   15c2a:	4380106f          	j	17062 <_svfprintf_r+0x155e>
   15c2e:	00140793          	addi	a5,s0,1
   15c32:	0c0107a3          	sb	zero,207(sp)
   15c36:	5dfd                	li	s11,-1
   15c38:	f002                	sd	zero,32(sp)
   15c3a:	4401                	li	s0,0
   15c3c:	05a00d13          	li	s10,90
   15c40:	4c29                	li	s8,10
   15c42:	0007cb03          	lbu	s6,0(a5)
   15c46:	00178713          	addi	a4,a5,1
   15c4a:	e83a                	sd	a4,16(sp)
   15c4c:	46a5                	li	a3,9
   15c4e:	02a00613          	li	a2,42
   15c52:	fe0b079b          	addiw	a5,s6,-32
   15c56:	0007871b          	sext.w	a4,a5
   15c5a:	3eed62e3          	bltu	s10,a4,1683e <_svfprintf_r+0xd3a>
   15c5e:	676a                	ld	a4,152(sp)
   15c60:	1782                	slli	a5,a5,0x20
   15c62:	83f9                	srli	a5,a5,0x1e
   15c64:	97ba                	add	a5,a5,a4
   15c66:	439c                	lw	a5,0(a5)
   15c68:	8782                	jr	a5
   15c6a:	0405                	addi	s0,s0,1
   15c6c:	b7b5                	j	15bd8 <_svfprintf_r+0xd4>
   15c6e:	0001a7b7          	lui	a5,0x1a
   15c72:	26878793          	addi	a5,a5,616 # 1a268 <zeroes.4441+0x78>
   15c76:	f0be                	sd	a5,96(sp)
   15c78:	008b8793          	addi	a5,s7,8
   15c7c:	f83e                	sd	a5,48(sp)
   15c7e:	02047793          	andi	a5,s0,32
   15c82:	280787e3          	beqz	a5,16710 <_svfprintf_r+0xc0c>
   15c86:	000bbb83          	ld	s7,0(s7)
   15c8a:	00147793          	andi	a5,s0,1
   15c8e:	cf81                	beqz	a5,15ca6 <_svfprintf_r+0x1a2>
   15c90:	000b8b63          	beqz	s7,15ca6 <_svfprintf_r+0x1a2>
   15c94:	03000793          	li	a5,48
   15c98:	00246413          	ori	s0,s0,2
   15c9c:	0cf10823          	sb	a5,208(sp)
   15ca0:	0d6108a3          	sb	s6,209(sp)
   15ca4:	2401                	sext.w	s0,s0
   15ca6:	bff47413          	andi	s0,s0,-1025
   15caa:	2401                	sext.w	s0,s0
   15cac:	4789                	li	a5,2
   15cae:	15f0006f          	j	1660c <_svfprintf_r+0xb08>
   15cb2:	854a                	mv	a0,s2
   15cb4:	a5bfe0ef          	jal	ra,1470e <_localeconv_r>
   15cb8:	651c                	ld	a5,8(a0)
   15cba:	853e                	mv	a0,a5
   15cbc:	e8be                	sd	a5,80(sp)
   15cbe:	92efb0ef          	jal	ra,10dec <strlen>
   15cc2:	e0aa                	sd	a0,64(sp)
   15cc4:	854a                	mv	a0,s2
   15cc6:	a49fe0ef          	jal	ra,1470e <_localeconv_r>
   15cca:	691c                	ld	a5,16(a0)
   15ccc:	e03e                	sd	a5,0(sp)
   15cce:	6786                	ld	a5,64(sp)
   15cd0:	c38d                	beqz	a5,15cf2 <_svfprintf_r+0x1ee>
   15cd2:	6782                	ld	a5,0(sp)
   15cd4:	cf99                	beqz	a5,15cf2 <_svfprintf_r+0x1ee>
   15cd6:	0007c783          	lbu	a5,0(a5)
   15cda:	cf81                	beqz	a5,15cf2 <_svfprintf_r+0x1ee>
   15cdc:	40046413          	ori	s0,s0,1024
   15ce0:	2401                	sext.w	s0,s0
   15ce2:	a801                	j	15cf2 <_svfprintf_r+0x1ee>
   15ce4:	0cf14783          	lbu	a5,207(sp)
   15ce8:	e789                	bnez	a5,15cf2 <_svfprintf_r+0x1ee>
   15cea:	02000793          	li	a5,32
   15cee:	0cf107a3          	sb	a5,207(sp)
   15cf2:	67c2                	ld	a5,16(sp)
   15cf4:	b7b9                	j	15c42 <_svfprintf_r+0x13e>
   15cf6:	00146413          	ori	s0,s0,1
   15cfa:	b7dd                	j	15ce0 <_svfprintf_r+0x1dc>
   15cfc:	000ba783          	lw	a5,0(s7)
   15d00:	0ba1                	addi	s7,s7,8
   15d02:	f03e                	sd	a5,32(sp)
   15d04:	fe07d7e3          	bgez	a5,15cf2 <_svfprintf_r+0x1ee>
   15d08:	40f007bb          	negw	a5,a5
   15d0c:	f03e                	sd	a5,32(sp)
   15d0e:	00446413          	ori	s0,s0,4
   15d12:	b7f9                	j	15ce0 <_svfprintf_r+0x1dc>
   15d14:	02b00793          	li	a5,43
   15d18:	bfd9                	j	15cee <_svfprintf_r+0x1ea>
   15d1a:	6742                	ld	a4,16(sp)
   15d1c:	67c2                	ld	a5,16(sp)
   15d1e:	00074b03          	lbu	s6,0(a4)
   15d22:	0785                	addi	a5,a5,1
   15d24:	02cb1e63          	bne	s6,a2,15d60 <_svfprintf_r+0x25c>
   15d28:	000bae03          	lw	t3,0(s7)
   15d2c:	008b8713          	addi	a4,s7,8
   15d30:	020e1693          	slli	a3,t3,0x20
   15d34:	0006d363          	bgez	a3,15d3a <_svfprintf_r+0x236>
   15d38:	5e7d                	li	t3,-1
   15d3a:	000e0d9b          	sext.w	s11,t3
   15d3e:	8bba                	mv	s7,a4
   15d40:	e83e                	sd	a5,16(sp)
   15d42:	bf45                	j	15cf2 <_svfprintf_r+0x1ee>
   15d44:	03bc0e3b          	mulw	t3,s8,s11
   15d48:	0785                	addi	a5,a5,1
   15d4a:	fff7cb03          	lbu	s6,-1(a5)
   15d4e:	00ee0dbb          	addw	s11,t3,a4
   15d52:	fd0b059b          	addiw	a1,s6,-48
   15d56:	872e                	mv	a4,a1
   15d58:	feb6f6e3          	bleu	a1,a3,15d44 <_svfprintf_r+0x240>
   15d5c:	e83e                	sd	a5,16(sp)
   15d5e:	bdd5                	j	15c52 <_svfprintf_r+0x14e>
   15d60:	4d81                	li	s11,0
   15d62:	bfc5                	j	15d52 <_svfprintf_r+0x24e>
   15d64:	08046413          	ori	s0,s0,128
   15d68:	bfa5                	j	15ce0 <_svfprintf_r+0x1dc>
   15d6a:	67c2                	ld	a5,16(sp)
   15d6c:	f002                	sd	zero,32(sp)
   15d6e:	7702                	ld	a4,32(sp)
   15d70:	fd0b0b1b          	addiw	s6,s6,-48
   15d74:	0785                	addi	a5,a5,1
   15d76:	02ec073b          	mulw	a4,s8,a4
   15d7a:	00eb073b          	addw	a4,s6,a4
   15d7e:	fff7cb03          	lbu	s6,-1(a5)
   15d82:	f03a                	sd	a4,32(sp)
   15d84:	fd0b071b          	addiw	a4,s6,-48
   15d88:	fee6f3e3          	bleu	a4,a3,15d6e <_svfprintf_r+0x26a>
   15d8c:	bfc1                	j	15d5c <_svfprintf_r+0x258>
   15d8e:	00846413          	ori	s0,s0,8
   15d92:	b7b9                	j	15ce0 <_svfprintf_r+0x1dc>
   15d94:	67c2                	ld	a5,16(sp)
   15d96:	0007c703          	lbu	a4,0(a5)
   15d9a:	06800793          	li	a5,104
   15d9e:	00f71863          	bne	a4,a5,15dae <_svfprintf_r+0x2aa>
   15da2:	67c2                	ld	a5,16(sp)
   15da4:	20046413          	ori	s0,s0,512
   15da8:	0785                	addi	a5,a5,1
   15daa:	e83e                	sd	a5,16(sp)
   15dac:	bf15                	j	15ce0 <_svfprintf_r+0x1dc>
   15dae:	04046413          	ori	s0,s0,64
   15db2:	b73d                	j	15ce0 <_svfprintf_r+0x1dc>
   15db4:	67c2                	ld	a5,16(sp)
   15db6:	0007c703          	lbu	a4,0(a5)
   15dba:	06c00793          	li	a5,108
   15dbe:	00f71863          	bne	a4,a5,15dce <_svfprintf_r+0x2ca>
   15dc2:	67c2                	ld	a5,16(sp)
   15dc4:	0785                	addi	a5,a5,1
   15dc6:	e83e                	sd	a5,16(sp)
   15dc8:	02046413          	ori	s0,s0,32
   15dcc:	bf11                	j	15ce0 <_svfprintf_r+0x1dc>
   15dce:	01046413          	ori	s0,s0,16
   15dd2:	b739                	j	15ce0 <_svfprintf_r+0x1dc>
   15dd4:	008b8793          	addi	a5,s7,8
   15dd8:	f83e                	sd	a5,48(sp)
   15dda:	000ba783          	lw	a5,0(s7)
   15dde:	0c0107a3          	sb	zero,207(sp)
   15de2:	10f10c23          	sb	a5,280(sp)
   15de6:	4b81                	li	s7,0
   15de8:	4d85                	li	s11,1
   15dea:	4701                	li	a4,0
   15dec:	e402                	sd	zero,8(sp)
   15dee:	4c01                	li	s8,0
   15df0:	4d01                	li	s10,0
   15df2:	0a24                	addi	s1,sp,280
   15df4:	86ba                	mv	a3,a4
   15df6:	01b75363          	ble	s11,a4,15dfc <_svfprintf_r+0x2f8>
   15dfa:	86ee                	mv	a3,s11
   15dfc:	0cf14603          	lbu	a2,207(sp)
   15e00:	0006879b          	sext.w	a5,a3
   15e04:	fc3e                	sd	a5,56(sp)
   15e06:	c601                	beqz	a2,15e0e <_svfprintf_r+0x30a>
   15e08:	0016879b          	addiw	a5,a3,1
   15e0c:	fc3e                	sd	a5,56(sp)
   15e0e:	00247693          	andi	a3,s0,2
   15e12:	0006879b          	sext.w	a5,a3
   15e16:	f4be                	sd	a5,104(sp)
   15e18:	c781                	beqz	a5,15e20 <_svfprintf_r+0x31c>
   15e1a:	77e2                	ld	a5,56(sp)
   15e1c:	2789                	addiw	a5,a5,2
   15e1e:	fc3e                	sd	a5,56(sp)
   15e20:	08447793          	andi	a5,s0,132
   15e24:	f8be                	sd	a5,112(sp)
   15e26:	efa9                	bnez	a5,15e80 <_svfprintf_r+0x37c>
   15e28:	7782                	ld	a5,32(sp)
   15e2a:	76e2                	ld	a3,56(sp)
   15e2c:	40d786bb          	subw	a3,a5,a3
   15e30:	04d05863          	blez	a3,15e80 <_svfprintf_r+0x37c>
   15e34:	6869                	lui	a6,0x1a
   15e36:	48c1                	li	a7,16
   15e38:	7d880813          	addi	a6,a6,2008 # 1a7d8 <blanks.4425>
   15e3c:	4e9d                	li	t4,7
   15e3e:	10812583          	lw	a1,264(sp)
   15e42:	010cb023          	sd	a6,0(s9)
   15e46:	6652                	ld	a2,272(sp)
   15e48:	0015851b          	addiw	a0,a1,1
   15e4c:	85aa                	mv	a1,a0
   15e4e:	010c8f13          	addi	t5,s9,16
   15e52:	1ed8cfe3          	blt	a7,a3,16850 <_svfprintf_r+0xd4c>
   15e56:	00dcb423          	sd	a3,8(s9)
   15e5a:	96b2                	add	a3,a3,a2
   15e5c:	ea36                	sd	a3,272(sp)
   15e5e:	10a12423          	sw	a0,264(sp)
   15e62:	469d                	li	a3,7
   15e64:	8cfa                	mv	s9,t5
   15e66:	00a6dd63          	ble	a0,a3,15e80 <_svfprintf_r+0x37c>
   15e6a:	0210                	addi	a2,sp,256
   15e6c:	85ce                	mv	a1,s3
   15e6e:	854a                	mv	a0,s2
   15e70:	fcba                	sd	a4,120(sp)
   15e72:	71d010ef          	jal	ra,17d8e <__ssprint_r>
   15e76:	c119                	beqz	a0,15e7c <_svfprintf_r+0x378>
   15e78:	1ac0106f          	j	17024 <_svfprintf_r+0x1520>
   15e7c:	7766                	ld	a4,120(sp)
   15e7e:	8cd6                	mv	s9,s5
   15e80:	0cf14683          	lbu	a3,207(sp)
   15e84:	c2a1                	beqz	a3,15ec4 <_svfprintf_r+0x3c0>
   15e86:	0cf10693          	addi	a3,sp,207
   15e8a:	00dcb023          	sd	a3,0(s9)
   15e8e:	4685                	li	a3,1
   15e90:	00dcb423          	sd	a3,8(s9)
   15e94:	66d2                	ld	a3,272(sp)
   15e96:	0cc1                	addi	s9,s9,16
   15e98:	0685                	addi	a3,a3,1
   15e9a:	ea36                	sd	a3,272(sp)
   15e9c:	10812683          	lw	a3,264(sp)
   15ea0:	0016861b          	addiw	a2,a3,1
   15ea4:	10c12423          	sw	a2,264(sp)
   15ea8:	469d                	li	a3,7
   15eaa:	00c6dd63          	ble	a2,a3,15ec4 <_svfprintf_r+0x3c0>
   15eae:	0210                	addi	a2,sp,256
   15eb0:	85ce                	mv	a1,s3
   15eb2:	854a                	mv	a0,s2
   15eb4:	fcba                	sd	a4,120(sp)
   15eb6:	6d9010ef          	jal	ra,17d8e <__ssprint_r>
   15eba:	c119                	beqz	a0,15ec0 <_svfprintf_r+0x3bc>
   15ebc:	1680106f          	j	17024 <_svfprintf_r+0x1520>
   15ec0:	7766                	ld	a4,120(sp)
   15ec2:	8cd6                	mv	s9,s5
   15ec4:	77a6                	ld	a5,104(sp)
   15ec6:	cf9d                	beqz	a5,15f04 <_svfprintf_r+0x400>
   15ec8:	0994                	addi	a3,sp,208
   15eca:	00dcb023          	sd	a3,0(s9)
   15ece:	4689                	li	a3,2
   15ed0:	00dcb423          	sd	a3,8(s9)
   15ed4:	66d2                	ld	a3,272(sp)
   15ed6:	0cc1                	addi	s9,s9,16
   15ed8:	0689                	addi	a3,a3,2
   15eda:	ea36                	sd	a3,272(sp)
   15edc:	10812683          	lw	a3,264(sp)
   15ee0:	0016861b          	addiw	a2,a3,1
   15ee4:	10c12423          	sw	a2,264(sp)
   15ee8:	469d                	li	a3,7
   15eea:	00c6dd63          	ble	a2,a3,15f04 <_svfprintf_r+0x400>
   15eee:	0210                	addi	a2,sp,256
   15ef0:	85ce                	mv	a1,s3
   15ef2:	854a                	mv	a0,s2
   15ef4:	f4ba                	sd	a4,104(sp)
   15ef6:	699010ef          	jal	ra,17d8e <__ssprint_r>
   15efa:	c119                	beqz	a0,15f00 <_svfprintf_r+0x3fc>
   15efc:	1280106f          	j	17024 <_svfprintf_r+0x1520>
   15f00:	7726                	ld	a4,104(sp)
   15f02:	8cd6                	mv	s9,s5
   15f04:	77c6                	ld	a5,112(sp)
   15f06:	08000693          	li	a3,128
   15f0a:	04d79e63          	bne	a5,a3,15f66 <_svfprintf_r+0x462>
   15f0e:	7782                	ld	a5,32(sp)
   15f10:	76e2                	ld	a3,56(sp)
   15f12:	40d786bb          	subw	a3,a5,a3
   15f16:	04d05863          	blez	a3,15f66 <_svfprintf_r+0x462>
   15f1a:	6869                	lui	a6,0x1a
   15f1c:	48c1                	li	a7,16
   15f1e:	7e880813          	addi	a6,a6,2024 # 1a7e8 <zeroes.4426>
   15f22:	4e9d                	li	t4,7
   15f24:	10812583          	lw	a1,264(sp)
   15f28:	010cb023          	sd	a6,0(s9)
   15f2c:	6652                	ld	a2,272(sp)
   15f2e:	0015851b          	addiw	a0,a1,1
   15f32:	85aa                	mv	a1,a0
   15f34:	010c8f13          	addi	t5,s9,16
   15f38:	14d8cae3          	blt	a7,a3,1688c <_svfprintf_r+0xd88>
   15f3c:	00dcb423          	sd	a3,8(s9)
   15f40:	96b2                	add	a3,a3,a2
   15f42:	ea36                	sd	a3,272(sp)
   15f44:	10a12423          	sw	a0,264(sp)
   15f48:	469d                	li	a3,7
   15f4a:	8cfa                	mv	s9,t5
   15f4c:	00a6dd63          	ble	a0,a3,15f66 <_svfprintf_r+0x462>
   15f50:	0210                	addi	a2,sp,256
   15f52:	85ce                	mv	a1,s3
   15f54:	854a                	mv	a0,s2
   15f56:	f4ba                	sd	a4,104(sp)
   15f58:	637010ef          	jal	ra,17d8e <__ssprint_r>
   15f5c:	c119                	beqz	a0,15f62 <_svfprintf_r+0x45e>
   15f5e:	0c60106f          	j	17024 <_svfprintf_r+0x1520>
   15f62:	7726                	ld	a4,104(sp)
   15f64:	8cd6                	mv	s9,s5
   15f66:	41b7073b          	subw	a4,a4,s11
   15f6a:	04e05663          	blez	a4,15fb6 <_svfprintf_r+0x4b2>
   15f6e:	6869                	lui	a6,0x1a
   15f70:	48c1                	li	a7,16
   15f72:	7e880813          	addi	a6,a6,2024 # 1a7e8 <zeroes.4426>
   15f76:	4e9d                	li	t4,7
   15f78:	10812603          	lw	a2,264(sp)
   15f7c:	010cb023          	sd	a6,0(s9)
   15f80:	66d2                	ld	a3,272(sp)
   15f82:	0016059b          	addiw	a1,a2,1
   15f86:	862e                	mv	a2,a1
   15f88:	010c8513          	addi	a0,s9,16
   15f8c:	12e8cee3          	blt	a7,a4,168c8 <_svfprintf_r+0xdc4>
   15f90:	00ecb423          	sd	a4,8(s9)
   15f94:	9736                	add	a4,a4,a3
   15f96:	ea3a                	sd	a4,272(sp)
   15f98:	10b12423          	sw	a1,264(sp)
   15f9c:	471d                	li	a4,7
   15f9e:	8caa                	mv	s9,a0
   15fa0:	00b75b63          	ble	a1,a4,15fb6 <_svfprintf_r+0x4b2>
   15fa4:	0210                	addi	a2,sp,256
   15fa6:	85ce                	mv	a1,s3
   15fa8:	854a                	mv	a0,s2
   15faa:	5e5010ef          	jal	ra,17d8e <__ssprint_r>
   15fae:	c119                	beqz	a0,15fb4 <_svfprintf_r+0x4b0>
   15fb0:	0740106f          	j	17024 <_svfprintf_r+0x1520>
   15fb4:	8cd6                	mv	s9,s5
   15fb6:	10047693          	andi	a3,s0,256
   15fba:	6752                	ld	a4,272(sp)
   15fbc:	140692e3          	bnez	a3,16900 <_svfprintf_r+0xdfc>
   15fc0:	10812783          	lw	a5,264(sp)
   15fc4:	00ed8e33          	add	t3,s11,a4
   15fc8:	009cb023          	sd	s1,0(s9)
   15fcc:	0017871b          	addiw	a4,a5,1
   15fd0:	01bcb423          	sd	s11,8(s9)
   15fd4:	ea72                	sd	t3,272(sp)
   15fd6:	10e12423          	sw	a4,264(sp)
   15fda:	479d                	li	a5,7
   15fdc:	0cc1                	addi	s9,s9,16
   15fde:	1ee7dde3          	ble	a4,a5,169d8 <_svfprintf_r+0xed4>
   15fe2:	0210                	addi	a2,sp,256
   15fe4:	85ce                	mv	a1,s3
   15fe6:	854a                	mv	a0,s2
   15fe8:	5a7010ef          	jal	ra,17d8e <__ssprint_r>
   15fec:	c119                	beqz	a0,15ff2 <_svfprintf_r+0x4ee>
   15fee:	0360106f          	j	17024 <_svfprintf_r+0x1520>
   15ff2:	8cd6                	mv	s9,s5
   15ff4:	1e50006f          	j	169d8 <_svfprintf_r+0xed4>
   15ff8:	01046413          	ori	s0,s0,16
   15ffc:	2401                	sext.w	s0,s0
   15ffe:	008b8793          	addi	a5,s7,8
   16002:	f83e                	sd	a5,48(sp)
   16004:	02047793          	andi	a5,s0,32
   16008:	cb85                	beqz	a5,16038 <_svfprintf_r+0x534>
   1600a:	000bbb83          	ld	s7,0(s7)
   1600e:	000bd863          	bgez	s7,1601e <_svfprintf_r+0x51a>
   16012:	02d00793          	li	a5,45
   16016:	41700bb3          	neg	s7,s7
   1601a:	0cf107a3          	sb	a5,207(sp)
   1601e:	57fd                	li	a5,-1
   16020:	72fd9263          	bne	s11,a5,16744 <_svfprintf_r+0xc40>
   16024:	47a5                	li	a5,9
   16026:	7777ed63          	bltu	a5,s7,167a0 <_svfprintf_r+0xc9c>
   1602a:	030b8b9b          	addiw	s7,s7,48
   1602e:	17710da3          	sb	s7,379(sp)
   16032:	17b10493          	addi	s1,sp,379
   16036:	af81                	j	16786 <_svfprintf_r+0xc82>
   16038:	01047793          	andi	a5,s0,16
   1603c:	f7f9                	bnez	a5,1600a <_svfprintf_r+0x506>
   1603e:	04047793          	andi	a5,s0,64
   16042:	c781                	beqz	a5,1604a <_svfprintf_r+0x546>
   16044:	000b9b83          	lh	s7,0(s7)
   16048:	b7d9                	j	1600e <_svfprintf_r+0x50a>
   1604a:	20047793          	andi	a5,s0,512
   1604e:	c781                	beqz	a5,16056 <_svfprintf_r+0x552>
   16050:	000b8b83          	lb	s7,0(s7)
   16054:	bf6d                	j	1600e <_svfprintf_r+0x50a>
   16056:	000bab83          	lw	s7,0(s7)
   1605a:	bf55                	j	1600e <_svfprintf_r+0x50a>
   1605c:	00847793          	andi	a5,s0,8
   16060:	cfb9                	beqz	a5,160be <_svfprintf_r+0x5ba>
   16062:	0bbd                	addi	s7,s7,15
   16064:	ff0bfb93          	andi	s7,s7,-16
   16068:	010b8793          	addi	a5,s7,16
   1606c:	f83e                	sd	a5,48(sp)
   1606e:	000bb783          	ld	a5,0(s7)
   16072:	f9be                	sd	a5,240(sp)
   16074:	008bb783          	ld	a5,8(s7)
   16078:	fdbe                	sd	a5,248(sp)
   1607a:	1988                	addi	a0,sp,240
   1607c:	e56fe0ef          	jal	ra,146d2 <_ldcheck>
   16080:	cdaa                	sw	a0,216(sp)
   16082:	4789                	li	a5,2
   16084:	04f51c63          	bne	a0,a5,160dc <_svfprintf_r+0x5d8>
   16088:	754e                	ld	a0,240(sp)
   1608a:	75ee                	ld	a1,248(sp)
   1608c:	4601                	li	a2,0
   1608e:	4681                	li	a3,0
   16090:	327020ef          	jal	ra,18bb6 <__letf2>
   16094:	00055663          	bgez	a0,160a0 <_svfprintf_r+0x59c>
   16098:	02d00793          	li	a5,45
   1609c:	0cf107a3          	sb	a5,207(sp)
   160a0:	04700793          	li	a5,71
   160a4:	0367c763          	blt	a5,s6,160d2 <_svfprintf_r+0x5ce>
   160a8:	0001a4b7          	lui	s1,0x1a
   160ac:	23048493          	addi	s1,s1,560 # 1a230 <zeroes.4441+0x40>
   160b0:	f7f47413          	andi	s0,s0,-129
   160b4:	2401                	sext.w	s0,s0
   160b6:	4b81                	li	s7,0
   160b8:	4d8d                	li	s11,3
   160ba:	4701                	li	a4,0
   160bc:	add9                	j	16792 <_svfprintf_r+0xc8e>
   160be:	000bb507          	fld	fa0,0(s7)
   160c2:	008b8793          	addi	a5,s7,8
   160c6:	f83e                	sd	a5,48(sp)
   160c8:	34b030ef          	jal	ra,19c12 <__extenddftf2>
   160cc:	f9aa                	sd	a0,240(sp)
   160ce:	fdae                	sd	a1,248(sp)
   160d0:	b76d                	j	1607a <_svfprintf_r+0x576>
   160d2:	0001a4b7          	lui	s1,0x1a
   160d6:	23848493          	addi	s1,s1,568 # 1a238 <zeroes.4441+0x48>
   160da:	bfd9                	j	160b0 <_svfprintf_r+0x5ac>
   160dc:	4785                	li	a5,1
   160de:	02f51763          	bne	a0,a5,1610c <_svfprintf_r+0x608>
   160e2:	77ee                	ld	a5,248(sp)
   160e4:	0007d663          	bgez	a5,160f0 <_svfprintf_r+0x5ec>
   160e8:	02d00793          	li	a5,45
   160ec:	0cf107a3          	sb	a5,207(sp)
   160f0:	04700793          	li	a5,71
   160f4:	0167c763          	blt	a5,s6,16102 <_svfprintf_r+0x5fe>
   160f8:	0001a4b7          	lui	s1,0x1a
   160fc:	24048493          	addi	s1,s1,576 # 1a240 <zeroes.4441+0x50>
   16100:	bf45                	j	160b0 <_svfprintf_r+0x5ac>
   16102:	0001a4b7          	lui	s1,0x1a
   16106:	24848493          	addi	s1,s1,584 # 1a248 <zeroes.4441+0x58>
   1610a:	b75d                	j	160b0 <_svfprintf_r+0x5ac>
   1610c:	fdfb7c13          	andi	s8,s6,-33
   16110:	04100793          	li	a5,65
   16114:	08fc1963          	bne	s8,a5,161a6 <_svfprintf_r+0x6a2>
   16118:	03000793          	li	a5,48
   1611c:	0cf10823          	sb	a5,208(sp)
   16120:	06100713          	li	a4,97
   16124:	05800793          	li	a5,88
   16128:	00eb1463          	bne	s6,a4,16130 <_svfprintf_r+0x62c>
   1612c:	07800793          	li	a5,120
   16130:	0cf108a3          	sb	a5,209(sp)
   16134:	00246413          	ori	s0,s0,2
   16138:	06300793          	li	a5,99
   1613c:	2401                	sext.w	s0,s0
   1613e:	19b7d863          	ble	s11,a5,162ce <_svfprintf_r+0x7ca>
   16142:	001d859b          	addiw	a1,s11,1
   16146:	854a                	mv	a0,s2
   16148:	d5cfa0ef          	jal	ra,106a4 <_malloc_r>
   1614c:	84aa                	mv	s1,a0
   1614e:	18051363          	bnez	a0,162d4 <_svfprintf_r+0x7d0>
   16152:	0109d783          	lhu	a5,16(s3)
   16156:	0407e793          	ori	a5,a5,64
   1615a:	00f99823          	sh	a5,16(s3)
   1615e:	0109d783          	lhu	a5,16(s3)
   16162:	0407f793          	andi	a5,a5,64
   16166:	a0079ee3          	bnez	a5,15b82 <_svfprintf_r+0x7e>
   1616a:	26813083          	ld	ra,616(sp)
   1616e:	26013403          	ld	s0,608(sp)
   16172:	7522                	ld	a0,40(sp)
   16174:	25813483          	ld	s1,600(sp)
   16178:	25013903          	ld	s2,592(sp)
   1617c:	24813983          	ld	s3,584(sp)
   16180:	24013a03          	ld	s4,576(sp)
   16184:	23813a83          	ld	s5,568(sp)
   16188:	23013b03          	ld	s6,560(sp)
   1618c:	22813b83          	ld	s7,552(sp)
   16190:	22013c03          	ld	s8,544(sp)
   16194:	21813c83          	ld	s9,536(sp)
   16198:	21013d03          	ld	s10,528(sp)
   1619c:	20813d83          	ld	s11,520(sp)
   161a0:	27010113          	addi	sp,sp,624
   161a4:	8082                	ret
   161a6:	57fd                	li	a5,-1
   161a8:	12fd8863          	beq	s11,a5,162d8 <_svfprintf_r+0x7d4>
   161ac:	04700793          	li	a5,71
   161b0:	4b81                	li	s7,0
   161b2:	00fc1463          	bne	s8,a5,161ba <_svfprintf_r+0x6b6>
   161b6:	120d8463          	beqz	s11,162de <_svfprintf_r+0x7da>
   161ba:	10046793          	ori	a5,s0,256
   161be:	7a6e                	ld	s4,248(sp)
   161c0:	2781                	sext.w	a5,a5
   161c2:	fc3e                	sd	a5,56(sp)
   161c4:	fc82                	sd	zero,120(sp)
   161c6:	7ece                	ld	t4,240(sp)
   161c8:	000a5963          	bgez	s4,161da <_svfprintf_r+0x6d6>
   161cc:	57fd                	li	a5,-1
   161ce:	17fe                	slli	a5,a5,0x3f
   161d0:	00fa4a33          	xor	s4,s4,a5
   161d4:	02d00793          	li	a5,45
   161d8:	fcbe                	sd	a5,120(sp)
   161da:	04100793          	li	a5,65
   161de:	22fc1263          	bne	s8,a5,16402 <_svfprintf_r+0x8fe>
   161e2:	8576                	mv	a0,t4
   161e4:	85d2                	mv	a1,s4
   161e6:	321030ef          	jal	ra,19d06 <__trunctfdf2>
   161ea:	09a8                	addi	a0,sp,216
   161ec:	e2aff0ef          	jal	ra,15816 <frexp>
   161f0:	223030ef          	jal	ra,19c12 <__extenddftf2>
   161f4:	768a                	ld	a3,160(sp)
   161f6:	4601                	li	a2,0
   161f8:	283020ef          	jal	ra,18c7a <__multf3>
   161fc:	4601                	li	a2,0
   161fe:	4681                	li	a3,0
   16200:	e12a                	sd	a0,128(sp)
   16202:	e52e                	sd	a1,136(sp)
   16204:	04b020ef          	jal	ra,18a4e <__eqtf2>
   16208:	e119                	bnez	a0,1620e <_svfprintf_r+0x70a>
   1620a:	4785                	li	a5,1
   1620c:	cdbe                	sw	a5,216(sp)
   1620e:	06100793          	li	a5,97
   16212:	0cfb1963          	bne	s6,a5,162e4 <_svfprintf_r+0x7e0>
   16216:	0001a7b7          	lui	a5,0x1a
   1621a:	25078793          	addi	a5,a5,592 # 1a250 <zeroes.4441+0x60>
   1621e:	e43e                	sd	a5,8(sp)
   16220:	fffd871b          	addiw	a4,s11,-1
   16224:	8a26                	mv	s4,s1
   16226:	76aa                	ld	a3,168(sp)
   16228:	650a                	ld	a0,128(sp)
   1622a:	65aa                	ld	a1,136(sp)
   1622c:	4601                	li	a2,0
   1622e:	f93a                	sd	a4,176(sp)
   16230:	24b020ef          	jal	ra,18c7a <__multf3>
   16234:	8d2a                	mv	s10,a0
   16236:	f4ae                	sd	a1,104(sp)
   16238:	0b7030ef          	jal	ra,19aee <__fixtfsi>
   1623c:	0005079b          	sext.w	a5,a0
   16240:	f8be                	sd	a5,112(sp)
   16242:	13f030ef          	jal	ra,19b80 <__floatsitf>
   16246:	77a6                	ld	a5,104(sp)
   16248:	86ae                	mv	a3,a1
   1624a:	862a                	mv	a2,a0
   1624c:	85be                	mv	a1,a5
   1624e:	856a                	mv	a0,s10
   16250:	080030ef          	jal	ra,192d0 <__subtf3>
   16254:	67a2                	ld	a5,8(sp)
   16256:	7746                	ld	a4,112(sp)
   16258:	0a05                	addi	s4,s4,1
   1625a:	e12a                	sd	a0,128(sp)
   1625c:	00e786b3          	add	a3,a5,a4
   16260:	774a                	ld	a4,176(sp)
   16262:	0006c683          	lbu	a3,0(a3) # 3fe00000 <__global_pointer$+0x3fde2988>
   16266:	e52e                	sd	a1,136(sp)
   16268:	0007079b          	sext.w	a5,a4
   1626c:	f4be                	sd	a5,104(sp)
   1626e:	feda0fa3          	sb	a3,-1(s4)
   16272:	57fd                	li	a5,-1
   16274:	88aa                	mv	a7,a0
   16276:	8d2e                	mv	s10,a1
   16278:	06f70b63          	beq	a4,a5,162ee <_svfprintf_r+0x7ea>
   1627c:	377d                	addiw	a4,a4,-1
   1627e:	4601                	li	a2,0
   16280:	4681                	li	a3,0
   16282:	f93a                	sd	a4,176(sp)
   16284:	fd2a                	sd	a0,184(sp)
   16286:	7c8020ef          	jal	ra,18a4e <__eqtf2>
   1628a:	774a                	ld	a4,176(sp)
   1628c:	78ea                	ld	a7,184(sp)
   1628e:	fd41                	bnez	a0,16226 <_svfprintf_r+0x722>
   16290:	66ca                	ld	a3,144(sp)
   16292:	4601                	li	a2,0
   16294:	8546                	mv	a0,a7
   16296:	85ea                	mv	a1,s10
   16298:	e146                	sd	a7,128(sp)
   1629a:	059020ef          	jal	ra,18af2 <__getf2>
   1629e:	04a04b63          	bgtz	a0,162f4 <_svfprintf_r+0x7f0>
   162a2:	688a                	ld	a7,128(sp)
   162a4:	66ca                	ld	a3,144(sp)
   162a6:	4601                	li	a2,0
   162a8:	8546                	mv	a0,a7
   162aa:	85ea                	mv	a1,s10
   162ac:	7a2020ef          	jal	ra,18a4e <__eqtf2>
   162b0:	e509                	bnez	a0,162ba <_svfprintf_r+0x7b6>
   162b2:	77c6                	ld	a5,112(sp)
   162b4:	0017f713          	andi	a4,a5,1
   162b8:	ef15                	bnez	a4,162f4 <_svfprintf_r+0x7f0>
   162ba:	5726                	lw	a4,104(sp)
   162bc:	03000693          	li	a3,48
   162c0:	06074163          	bltz	a4,16322 <_svfprintf_r+0x81e>
   162c4:	0a05                	addi	s4,s4,1
   162c6:	feda0fa3          	sb	a3,-1(s4)
   162ca:	377d                	addiw	a4,a4,-1
   162cc:	bfd5                	j	162c0 <_svfprintf_r+0x7bc>
   162ce:	4b81                	li	s7,0
   162d0:	0a24                	addi	s1,sp,280
   162d2:	b5e5                	j	161ba <_svfprintf_r+0x6b6>
   162d4:	8baa                	mv	s7,a0
   162d6:	b5d5                	j	161ba <_svfprintf_r+0x6b6>
   162d8:	4b81                	li	s7,0
   162da:	4d99                	li	s11,6
   162dc:	bdf9                	j	161ba <_svfprintf_r+0x6b6>
   162de:	8bee                	mv	s7,s11
   162e0:	4d85                	li	s11,1
   162e2:	bde1                	j	161ba <_svfprintf_r+0x6b6>
   162e4:	0001a7b7          	lui	a5,0x1a
   162e8:	26878793          	addi	a5,a5,616 # 1a268 <zeroes.4441+0x78>
   162ec:	bf0d                	j	1621e <_svfprintf_r+0x71a>
   162ee:	57fd                	li	a5,-1
   162f0:	f4be                	sd	a5,104(sp)
   162f2:	bf79                	j	16290 <_svfprintf_r+0x78c>
   162f4:	67a2                	ld	a5,8(sp)
   162f6:	f5d2                	sd	s4,232(sp)
   162f8:	03000593          	li	a1,48
   162fc:	00f7c603          	lbu	a2,15(a5)
   16300:	76ae                	ld	a3,232(sp)
   16302:	fff68713          	addi	a4,a3,-1
   16306:	f5ba                	sd	a4,232(sp)
   16308:	fff6c703          	lbu	a4,-1(a3)
   1630c:	0ec70463          	beq	a4,a2,163f4 <_svfprintf_r+0x8f0>
   16310:	03900613          	li	a2,57
   16314:	0ec71363          	bne	a4,a2,163fa <_svfprintf_r+0x8f6>
   16318:	67a2                	ld	a5,8(sp)
   1631a:	00a7c703          	lbu	a4,10(a5)
   1631e:	fee68fa3          	sb	a4,-1(a3)
   16322:	04700713          	li	a4,71
   16326:	409a0a3b          	subw	s4,s4,s1
   1632a:	4d6e                	lw	s10,216(sp)
   1632c:	18ec1363          	bne	s8,a4,164b2 <_svfprintf_r+0x9ae>
   16330:	5775                	li	a4,-3
   16332:	00ed4463          	blt	s10,a4,1633a <_svfprintf_r+0x836>
   16336:	1fadd363          	ble	s10,s11,1651c <_svfprintf_r+0xa18>
   1633a:	3b79                	addiw	s6,s6,-2
   1633c:	fffd069b          	addiw	a3,s10,-1
   16340:	cdb6                	sw	a3,216(sp)
   16342:	fdfb7613          	andi	a2,s6,-33
   16346:	04100513          	li	a0,65
   1634a:	0ffb7713          	andi	a4,s6,255
   1634e:	4581                	li	a1,0
   16350:	00a61663          	bne	a2,a0,1635c <_svfprintf_r+0x858>
   16354:	273d                	addiw	a4,a4,15
   16356:	0ff77713          	andi	a4,a4,255
   1635a:	4585                	li	a1,1
   1635c:	0ee10023          	sb	a4,224(sp)
   16360:	02b00793          	li	a5,43
   16364:	0006d763          	bgez	a3,16372 <_svfprintf_r+0x86e>
   16368:	4685                	li	a3,1
   1636a:	41a686bb          	subw	a3,a3,s10
   1636e:	02d00793          	li	a5,45
   16372:	0ef100a3          	sb	a5,225(sp)
   16376:	47a5                	li	a5,9
   16378:	16d7d963          	ble	a3,a5,164ea <_svfprintf_r+0x9e6>
   1637c:	0ef10713          	addi	a4,sp,239
   16380:	853a                	mv	a0,a4
   16382:	45a9                	li	a1,10
   16384:	4825                	li	a6,9
   16386:	02b6e7bb          	remw	a5,a3,a1
   1638a:	fff70613          	addi	a2,a4,-1
   1638e:	02b6c6bb          	divw	a3,a3,a1
   16392:	0307879b          	addiw	a5,a5,48
   16396:	fef70fa3          	sb	a5,-1(a4)
   1639a:	12d84f63          	blt	a6,a3,164d8 <_svfprintf_r+0x9d4>
   1639e:	0306879b          	addiw	a5,a3,48
   163a2:	fef60fa3          	sb	a5,-1(a2)
   163a6:	1779                	addi	a4,a4,-2
   163a8:	0e210613          	addi	a2,sp,226
   163ac:	12a76863          	bltu	a4,a0,164dc <_svfprintf_r+0x9d8>
   163b0:	119c                	addi	a5,sp,224
   163b2:	40f607bb          	subw	a5,a2,a5
   163b6:	ecbe                	sd	a5,88(sp)
   163b8:	01478dbb          	addw	s11,a5,s4
   163bc:	4705                	li	a4,1
   163be:	87ee                	mv	a5,s11
   163c0:	01474563          	blt	a4,s4,163ca <_svfprintf_r+0x8c6>
   163c4:	00147713          	andi	a4,s0,1
   163c8:	c701                	beqz	a4,163d0 <_svfprintf_r+0x8cc>
   163ca:	6762                	ld	a4,24(sp)
   163cc:	00e78dbb          	addw	s11,a5,a4
   163d0:	bff47413          	andi	s0,s0,-1025
   163d4:	2401                	sext.w	s0,s0
   163d6:	10046793          	ori	a5,s0,256
   163da:	fc3e                	sd	a5,56(sp)
   163dc:	e402                	sd	zero,8(sp)
   163de:	4c01                	li	s8,0
   163e0:	4d01                	li	s10,0
   163e2:	77e6                	ld	a5,120(sp)
   163e4:	c789                	beqz	a5,163ee <_svfprintf_r+0x8ea>
   163e6:	02d00713          	li	a4,45
   163ea:	0ce107a3          	sb	a4,207(sp)
   163ee:	7462                	ld	s0,56(sp)
   163f0:	4701                	li	a4,0
   163f2:	b409                	j	15df4 <_svfprintf_r+0x2f0>
   163f4:	feb68fa3          	sb	a1,-1(a3)
   163f8:	b721                	j	16300 <_svfprintf_r+0x7fc>
   163fa:	2705                	addiw	a4,a4,1
   163fc:	0ff77713          	andi	a4,a4,255
   16400:	bf39                	j	1631e <_svfprintf_r+0x81a>
   16402:	04600793          	li	a5,70
   16406:	00fc0b63          	beq	s8,a5,1641c <_svfprintf_r+0x918>
   1640a:	04500793          	li	a5,69
   1640e:	8d6e                	mv	s10,s11
   16410:	00fc1463          	bne	s8,a5,16418 <_svfprintf_r+0x914>
   16414:	001d8d1b          	addiw	s10,s11,1
   16418:	4689                	li	a3,2
   1641a:	a019                	j	16420 <_svfprintf_r+0x91c>
   1641c:	8d6e                	mv	s10,s11
   1641e:	468d                	li	a3,3
   16420:	09bc                	addi	a5,sp,216
   16422:	85f6                	mv	a1,t4
   16424:	0e810893          	addi	a7,sp,232
   16428:	0dc10813          	addi	a6,sp,220
   1642c:	876a                	mv	a4,s10
   1642e:	8652                	mv	a2,s4
   16430:	854a                	mv	a0,s2
   16432:	e476                	sd	t4,8(sp)
   16434:	97bfd0ef          	jal	ra,13dae <_ldtoa_r>
   16438:	04700793          	li	a5,71
   1643c:	84aa                	mv	s1,a0
   1643e:	6ea2                	ld	t4,8(sp)
   16440:	00fc1563          	bne	s8,a5,1644a <_svfprintf_r+0x946>
   16444:	00147793          	andi	a5,s0,1
   16448:	cbb1                	beqz	a5,1649c <_svfprintf_r+0x998>
   1644a:	04600713          	li	a4,70
   1644e:	01a487b3          	add	a5,s1,s10
   16452:	02ec1963          	bne	s8,a4,16484 <_svfprintf_r+0x980>
   16456:	0004c683          	lbu	a3,0(s1)
   1645a:	03000713          	li	a4,48
   1645e:	02e69163          	bne	a3,a4,16480 <_svfprintf_r+0x97c>
   16462:	8576                	mv	a0,t4
   16464:	4601                	li	a2,0
   16466:	4681                	li	a3,0
   16468:	85d2                	mv	a1,s4
   1646a:	f4be                	sd	a5,104(sp)
   1646c:	e476                	sd	t4,8(sp)
   1646e:	5e0020ef          	jal	ra,18a4e <__eqtf2>
   16472:	6ea2                	ld	t4,8(sp)
   16474:	77a6                	ld	a5,104(sp)
   16476:	c509                	beqz	a0,16480 <_svfprintf_r+0x97c>
   16478:	4705                	li	a4,1
   1647a:	41a70d3b          	subw	s10,a4,s10
   1647e:	cdea                	sw	s10,216(sp)
   16480:	476e                	lw	a4,216(sp)
   16482:	97ba                	add	a5,a5,a4
   16484:	4681                	li	a3,0
   16486:	4601                	li	a2,0
   16488:	8576                	mv	a0,t4
   1648a:	85d2                	mv	a1,s4
   1648c:	e43e                	sd	a5,8(sp)
   1648e:	5c0020ef          	jal	ra,18a4e <__eqtf2>
   16492:	67a2                	ld	a5,8(sp)
   16494:	03000693          	li	a3,48
   16498:	e909                	bnez	a0,164aa <_svfprintf_r+0x9a6>
   1649a:	f5be                	sd	a5,232(sp)
   1649c:	7a2e                	ld	s4,232(sp)
   1649e:	b551                	j	16322 <_svfprintf_r+0x81e>
   164a0:	00170613          	addi	a2,a4,1
   164a4:	f5b2                	sd	a2,232(sp)
   164a6:	00d70023          	sb	a3,0(a4)
   164aa:	772e                	ld	a4,232(sp)
   164ac:	fef76ae3          	bltu	a4,a5,164a0 <_svfprintf_r+0x99c>
   164b0:	b7f5                	j	1649c <_svfprintf_r+0x998>
   164b2:	04600713          	li	a4,70
   164b6:	e8ec13e3          	bne	s8,a4,1633c <_svfprintf_r+0x838>
   164ba:	05a05863          	blez	s10,1650a <_svfprintf_r+0xa06>
   164be:	000d9563          	bnez	s11,164c8 <_svfprintf_r+0x9c4>
   164c2:	00147713          	andi	a4,s0,1
   164c6:	cf59                	beqz	a4,16564 <_svfprintf_r+0xa60>
   164c8:	67e2                	ld	a5,24(sp)
   164ca:	01a7873b          	addw	a4,a5,s10
   164ce:	01b70dbb          	addw	s11,a4,s11
   164d2:	06600b13          	li	s6,102
   164d6:	a895                	j	1654a <_svfprintf_r+0xa46>
   164d8:	8732                	mv	a4,a2
   164da:	b575                	j	16386 <_svfprintf_r+0x882>
   164dc:	0705                	addi	a4,a4,1
   164de:	fff74783          	lbu	a5,-1(a4)
   164e2:	0605                	addi	a2,a2,1
   164e4:	fef60fa3          	sb	a5,-1(a2)
   164e8:	b5d1                	j	163ac <_svfprintf_r+0x8a8>
   164ea:	0e210713          	addi	a4,sp,226
   164ee:	e599                	bnez	a1,164fc <_svfprintf_r+0x9f8>
   164f0:	03000793          	li	a5,48
   164f4:	0ef10123          	sb	a5,226(sp)
   164f8:	0e310713          	addi	a4,sp,227
   164fc:	0306879b          	addiw	a5,a3,48
   16500:	00170613          	addi	a2,a4,1
   16504:	00f70023          	sb	a5,0(a4)
   16508:	b565                	j	163b0 <_svfprintf_r+0x8ac>
   1650a:	000d9563          	bnez	s11,16514 <_svfprintf_r+0xa10>
   1650e:	00147713          	andi	a4,s0,1
   16512:	cb39                	beqz	a4,16568 <_svfprintf_r+0xa64>
   16514:	67e2                	ld	a5,24(sp)
   16516:	0017871b          	addiw	a4,a5,1
   1651a:	bf55                	j	164ce <_svfprintf_r+0x9ca>
   1651c:	014d4c63          	blt	s10,s4,16534 <_svfprintf_r+0xa30>
   16520:	00147713          	andi	a4,s0,1
   16524:	8dea                	mv	s11,s10
   16526:	c701                	beqz	a4,1652e <_svfprintf_r+0xa2a>
   16528:	67e2                	ld	a5,24(sp)
   1652a:	01a78dbb          	addw	s11,a5,s10
   1652e:	06700b13          	li	s6,103
   16532:	a821                	j	1654a <_svfprintf_r+0xa46>
   16534:	67e2                	ld	a5,24(sp)
   16536:	06700b13          	li	s6,103
   1653a:	01478dbb          	addw	s11,a5,s4
   1653e:	01a04663          	bgtz	s10,1654a <_svfprintf_r+0xa46>
   16542:	41ad8e3b          	subw	t3,s11,s10
   16546:	001e0d9b          	addiw	s11,t3,1
   1654a:	40047413          	andi	s0,s0,1024
   1654e:	00040c1b          	sext.w	s8,s0
   16552:	e402                	sd	zero,8(sp)
   16554:	e80c07e3          	beqz	s8,163e2 <_svfprintf_r+0x8de>
   16558:	4c01                	li	s8,0
   1655a:	e9a054e3          	blez	s10,163e2 <_svfprintf_r+0x8de>
   1655e:	0ff00693          	li	a3,255
   16562:	a01d                	j	16588 <_svfprintf_r+0xa84>
   16564:	8dea                	mv	s11,s10
   16566:	b7b5                	j	164d2 <_svfprintf_r+0x9ce>
   16568:	06600b13          	li	s6,102
   1656c:	4d85                	li	s11,1
   1656e:	bff1                	j	1654a <_svfprintf_r+0xa46>
   16570:	2701                	sext.w	a4,a4
   16572:	03a75063          	ble	s10,a4,16592 <_svfprintf_r+0xa8e>
   16576:	6782                	ld	a5,0(sp)
   16578:	40ed0d3b          	subw	s10,s10,a4
   1657c:	0017c703          	lbu	a4,1(a5)
   16580:	c315                	beqz	a4,165a4 <_svfprintf_r+0xaa0>
   16582:	0785                	addi	a5,a5,1
   16584:	2c05                	addiw	s8,s8,1
   16586:	e03e                	sd	a5,0(sp)
   16588:	6782                	ld	a5,0(sp)
   1658a:	0007c703          	lbu	a4,0(a5)
   1658e:	fed711e3          	bne	a4,a3,16570 <_svfprintf_r+0xa6c>
   16592:	67a2                	ld	a5,8(sp)
   16594:	00fc073b          	addw	a4,s8,a5
   16598:	6786                	ld	a5,64(sp)
   1659a:	02f7073b          	mulw	a4,a4,a5
   1659e:	01b70dbb          	addw	s11,a4,s11
   165a2:	b581                	j	163e2 <_svfprintf_r+0x8de>
   165a4:	67a2                	ld	a5,8(sp)
   165a6:	2785                	addiw	a5,a5,1
   165a8:	e43e                	sd	a5,8(sp)
   165aa:	bff9                	j	16588 <_svfprintf_r+0xa84>
   165ac:	008b8713          	addi	a4,s7,8
   165b0:	f83a                	sd	a4,48(sp)
   165b2:	02047713          	andi	a4,s0,32
   165b6:	000bb783          	ld	a5,0(s7)
   165ba:	c719                	beqz	a4,165c8 <_svfprintf_r+0xac4>
   165bc:	7722                	ld	a4,40(sp)
   165be:	e398                	sd	a4,0(a5)
   165c0:	7bc2                	ld	s7,48(sp)
   165c2:	64c2                	ld	s1,16(sp)
   165c4:	e0eff06f          	j	15bd2 <_svfprintf_r+0xce>
   165c8:	01047713          	andi	a4,s0,16
   165cc:	fb65                	bnez	a4,165bc <_svfprintf_r+0xab8>
   165ce:	04047713          	andi	a4,s0,64
   165d2:	c709                	beqz	a4,165dc <_svfprintf_r+0xad8>
   165d4:	7722                	ld	a4,40(sp)
   165d6:	00e79023          	sh	a4,0(a5)
   165da:	b7dd                	j	165c0 <_svfprintf_r+0xabc>
   165dc:	20047413          	andi	s0,s0,512
   165e0:	7722                	ld	a4,40(sp)
   165e2:	c401                	beqz	s0,165ea <_svfprintf_r+0xae6>
   165e4:	00e78023          	sb	a4,0(a5)
   165e8:	bfe1                	j	165c0 <_svfprintf_r+0xabc>
   165ea:	c398                	sw	a4,0(a5)
   165ec:	bfd1                	j	165c0 <_svfprintf_r+0xabc>
   165ee:	01046413          	ori	s0,s0,16
   165f2:	2401                	sext.w	s0,s0
   165f4:	008b8793          	addi	a5,s7,8
   165f8:	f83e                	sd	a5,48(sp)
   165fa:	02047793          	andi	a5,s0,32
   165fe:	cb85                	beqz	a5,1662e <_svfprintf_r+0xb2a>
   16600:	000bbb83          	ld	s7,0(s7)
   16604:	bff47413          	andi	s0,s0,-1025
   16608:	2401                	sext.w	s0,s0
   1660a:	4781                	li	a5,0
   1660c:	0c0107a3          	sb	zero,207(sp)
   16610:	577d                	li	a4,-1
   16612:	12ed8c63          	beq	s11,a4,1674a <_svfprintf_r+0xc46>
   16616:	8722                	mv	a4,s0
   16618:	f7f47413          	andi	s0,s0,-129
   1661c:	2401                	sext.w	s0,s0
   1661e:	120b9663          	bnez	s7,1674a <_svfprintf_r+0xc46>
   16622:	200d8463          	beqz	s11,1682a <_svfprintf_r+0xd26>
   16626:	4705                	li	a4,1
   16628:	12e79463          	bne	a5,a4,16750 <_svfprintf_r+0xc4c>
   1662c:	bafd                	j	1602a <_svfprintf_r+0x526>
   1662e:	01047793          	andi	a5,s0,16
   16632:	f7f9                	bnez	a5,16600 <_svfprintf_r+0xafc>
   16634:	04047793          	andi	a5,s0,64
   16638:	000bab83          	lw	s7,0(s7)
   1663c:	c789                	beqz	a5,16646 <_svfprintf_r+0xb42>
   1663e:	1bc2                	slli	s7,s7,0x30
   16640:	030bdb93          	srli	s7,s7,0x30
   16644:	b7c1                	j	16604 <_svfprintf_r+0xb00>
   16646:	20047793          	andi	a5,s0,512
   1664a:	c781                	beqz	a5,16652 <_svfprintf_r+0xb4e>
   1664c:	0ffbfb93          	andi	s7,s7,255
   16650:	bf55                	j	16604 <_svfprintf_r+0xb00>
   16652:	1b82                	slli	s7,s7,0x20
   16654:	020bdb93          	srli	s7,s7,0x20
   16658:	b775                	j	16604 <_svfprintf_r+0xb00>
   1665a:	008b8793          	addi	a5,s7,8
   1665e:	f83e                	sd	a5,48(sp)
   16660:	77e1                	lui	a5,0xffff8
   16662:	8307c793          	xori	a5,a5,-2000
   16666:	0cf11823          	sh	a5,208(sp)
   1666a:	0001a7b7          	lui	a5,0x1a
   1666e:	25078793          	addi	a5,a5,592 # 1a250 <zeroes.4441+0x60>
   16672:	00246413          	ori	s0,s0,2
   16676:	f0be                	sd	a5,96(sp)
   16678:	000bbb83          	ld	s7,0(s7)
   1667c:	2401                	sext.w	s0,s0
   1667e:	4789                	li	a5,2
   16680:	07800b13          	li	s6,120
   16684:	b761                	j	1660c <_svfprintf_r+0xb08>
   16686:	008b8793          	addi	a5,s7,8
   1668a:	f83e                	sd	a5,48(sp)
   1668c:	0c0107a3          	sb	zero,207(sp)
   16690:	57fd                	li	a5,-1
   16692:	000bb483          	ld	s1,0(s7)
   16696:	00fd8e63          	beq	s11,a5,166b2 <_svfprintf_r+0xbae>
   1669a:	866e                	mv	a2,s11
   1669c:	4581                	li	a1,0
   1669e:	8526                	mv	a0,s1
   166a0:	a70fe0ef          	jal	ra,14910 <memchr>
   166a4:	8baa                	mv	s7,a0
   166a6:	a0050ae3          	beqz	a0,160ba <_svfprintf_r+0x5b6>
   166aa:	40950dbb          	subw	s11,a0,s1
   166ae:	4b81                	li	s7,0
   166b0:	b429                	j	160ba <_svfprintf_r+0x5b6>
   166b2:	8526                	mv	a0,s1
   166b4:	f38fa0ef          	jal	ra,10dec <strlen>
   166b8:	00050d9b          	sext.w	s11,a0
   166bc:	bfcd                	j	166ae <_svfprintf_r+0xbaa>
   166be:	01046413          	ori	s0,s0,16
   166c2:	2401                	sext.w	s0,s0
   166c4:	008b8793          	addi	a5,s7,8
   166c8:	f83e                	sd	a5,48(sp)
   166ca:	02047793          	andi	a5,s0,32
   166ce:	c789                	beqz	a5,166d8 <_svfprintf_r+0xbd4>
   166d0:	000bbb83          	ld	s7,0(s7)
   166d4:	4785                	li	a5,1
   166d6:	bf1d                	j	1660c <_svfprintf_r+0xb08>
   166d8:	01047793          	andi	a5,s0,16
   166dc:	fbf5                	bnez	a5,166d0 <_svfprintf_r+0xbcc>
   166de:	04047793          	andi	a5,s0,64
   166e2:	000bab83          	lw	s7,0(s7)
   166e6:	c789                	beqz	a5,166f0 <_svfprintf_r+0xbec>
   166e8:	1bc2                	slli	s7,s7,0x30
   166ea:	030bdb93          	srli	s7,s7,0x30
   166ee:	b7dd                	j	166d4 <_svfprintf_r+0xbd0>
   166f0:	20047793          	andi	a5,s0,512
   166f4:	c781                	beqz	a5,166fc <_svfprintf_r+0xbf8>
   166f6:	0ffbfb93          	andi	s7,s7,255
   166fa:	bfe9                	j	166d4 <_svfprintf_r+0xbd0>
   166fc:	1b82                	slli	s7,s7,0x20
   166fe:	020bdb93          	srli	s7,s7,0x20
   16702:	bfc9                	j	166d4 <_svfprintf_r+0xbd0>
   16704:	0001a7b7          	lui	a5,0x1a
   16708:	25078793          	addi	a5,a5,592 # 1a250 <zeroes.4441+0x60>
   1670c:	d6aff06f          	j	15c76 <_svfprintf_r+0x172>
   16710:	01047793          	andi	a5,s0,16
   16714:	d6079963          	bnez	a5,15c86 <_svfprintf_r+0x182>
   16718:	04047793          	andi	a5,s0,64
   1671c:	000bab83          	lw	s7,0(s7)
   16720:	c791                	beqz	a5,1672c <_svfprintf_r+0xc28>
   16722:	1bc2                	slli	s7,s7,0x30
   16724:	030bdb93          	srli	s7,s7,0x30
   16728:	d62ff06f          	j	15c8a <_svfprintf_r+0x186>
   1672c:	20047793          	andi	a5,s0,512
   16730:	c789                	beqz	a5,1673a <_svfprintf_r+0xc36>
   16732:	0ffbfb93          	andi	s7,s7,255
   16736:	d54ff06f          	j	15c8a <_svfprintf_r+0x186>
   1673a:	1b82                	slli	s7,s7,0x20
   1673c:	020bdb93          	srli	s7,s7,0x20
   16740:	d4aff06f          	j	15c8a <_svfprintf_r+0x186>
   16744:	8722                	mv	a4,s0
   16746:	4785                	li	a5,1
   16748:	bdc1                	j	16618 <_svfprintf_r+0xb14>
   1674a:	4705                	li	a4,1
   1674c:	8ce78ce3          	beq	a5,a4,16024 <_svfprintf_r+0x520>
   16750:	4709                	li	a4,2
   16752:	0ae78d63          	beq	a5,a4,1680c <_svfprintf_r+0xd08>
   16756:	1afc                	addi	a5,sp,380
   16758:	007bf713          	andi	a4,s7,7
   1675c:	03070713          	addi	a4,a4,48
   16760:	fee78fa3          	sb	a4,-1(a5)
   16764:	003bdb93          	srli	s7,s7,0x3
   16768:	fff78493          	addi	s1,a5,-1
   1676c:	020b9863          	bnez	s7,1679c <_svfprintf_r+0xc98>
   16770:	00147693          	andi	a3,s0,1
   16774:	ca89                	beqz	a3,16786 <_svfprintf_r+0xc82>
   16776:	03000693          	li	a3,48
   1677a:	00d70663          	beq	a4,a3,16786 <_svfprintf_r+0xc82>
   1677e:	fed48fa3          	sb	a3,-1(s1)
   16782:	ffe78493          	addi	s1,a5,-2
   16786:	17c10e13          	addi	t3,sp,380
   1678a:	876e                	mv	a4,s11
   1678c:	4b81                	li	s7,0
   1678e:	409e0dbb          	subw	s11,t3,s1
   16792:	e402                	sd	zero,8(sp)
   16794:	4c01                	li	s8,0
   16796:	4d01                	li	s10,0
   16798:	e5cff06f          	j	15df4 <_svfprintf_r+0x2f0>
   1679c:	87a6                	mv	a5,s1
   1679e:	bf6d                	j	16758 <_svfprintf_r+0xc54>
   167a0:	40047c13          	andi	s8,s0,1024
   167a4:	4a01                	li	s4,0
   167a6:	1afc                	addi	a5,sp,380
   167a8:	4d29                	li	s10,10
   167aa:	2c01                	sext.w	s8,s8
   167ac:	0ff00693          	li	a3,255
   167b0:	4825                	li	a6,9
   167b2:	03abf733          	remu	a4,s7,s10
   167b6:	fff78493          	addi	s1,a5,-1
   167ba:	2a05                	addiw	s4,s4,1
   167bc:	0307071b          	addiw	a4,a4,48
   167c0:	fee78fa3          	sb	a4,-1(a5)
   167c4:	020c0e63          	beqz	s8,16800 <_svfprintf_r+0xcfc>
   167c8:	6782                	ld	a5,0(sp)
   167ca:	0007c783          	lbu	a5,0(a5)
   167ce:	02fa1963          	bne	s4,a5,16800 <_svfprintf_r+0xcfc>
   167d2:	02d78763          	beq	a5,a3,16800 <_svfprintf_r+0xcfc>
   167d6:	03787563          	bleu	s7,a6,16800 <_svfprintf_r+0xcfc>
   167da:	6786                	ld	a5,64(sp)
   167dc:	65c6                	ld	a1,80(sp)
   167de:	fc42                	sd	a6,56(sp)
   167e0:	8c9d                	sub	s1,s1,a5
   167e2:	863e                	mv	a2,a5
   167e4:	8526                	mv	a0,s1
   167e6:	e436                	sd	a3,8(sp)
   167e8:	aecff0ef          	jal	ra,15ad4 <strncpy>
   167ec:	6782                	ld	a5,0(sp)
   167ee:	4a01                	li	s4,0
   167f0:	66a2                	ld	a3,8(sp)
   167f2:	0017c783          	lbu	a5,1(a5)
   167f6:	7862                	ld	a6,56(sp)
   167f8:	c781                	beqz	a5,16800 <_svfprintf_r+0xcfc>
   167fa:	6782                	ld	a5,0(sp)
   167fc:	0785                	addi	a5,a5,1
   167fe:	e03e                	sd	a5,0(sp)
   16800:	03abdbb3          	divu	s7,s7,s10
   16804:	f80b81e3          	beqz	s7,16786 <_svfprintf_r+0xc82>
   16808:	87a6                	mv	a5,s1
   1680a:	b765                	j	167b2 <_svfprintf_r+0xcae>
   1680c:	1ae4                	addi	s1,sp,380
   1680e:	7706                	ld	a4,96(sp)
   16810:	00fbf793          	andi	a5,s7,15
   16814:	14fd                	addi	s1,s1,-1
   16816:	97ba                	add	a5,a5,a4
   16818:	0007c783          	lbu	a5,0(a5)
   1681c:	004bdb93          	srli	s7,s7,0x4
   16820:	00f48023          	sb	a5,0(s1)
   16824:	fe0b95e3          	bnez	s7,1680e <_svfprintf_r+0xd0a>
   16828:	bfb9                	j	16786 <_svfprintf_r+0xc82>
   1682a:	1ae4                	addi	s1,sp,380
   1682c:	ffa9                	bnez	a5,16786 <_svfprintf_r+0xc82>
   1682e:	8b05                	andi	a4,a4,1
   16830:	db39                	beqz	a4,16786 <_svfprintf_r+0xc82>
   16832:	03000793          	li	a5,48
   16836:	16f10da3          	sb	a5,379(sp)
   1683a:	ff8ff06f          	j	16032 <_svfprintf_r+0x52e>
   1683e:	020b02e3          	beqz	s6,17062 <_svfprintf_r+0x155e>
   16842:	11610c23          	sb	s6,280(sp)
   16846:	0c0107a3          	sb	zero,207(sp)
   1684a:	f85e                	sd	s7,48(sp)
   1684c:	d9aff06f          	j	15de6 <_svfprintf_r+0x2e2>
   16850:	0641                	addi	a2,a2,16
   16852:	011cb423          	sd	a7,8(s9)
   16856:	ea32                	sd	a2,272(sp)
   16858:	10b12423          	sw	a1,264(sp)
   1685c:	02aed463          	ble	a0,t4,16884 <_svfprintf_r+0xd80>
   16860:	0210                	addi	a2,sp,256
   16862:	85ce                	mv	a1,s3
   16864:	854a                	mv	a0,s2
   16866:	fd76                	sd	t4,184(sp)
   16868:	f942                	sd	a6,176(sp)
   1686a:	e546                	sd	a7,136(sp)
   1686c:	e13a                	sd	a4,128(sp)
   1686e:	fcb6                	sd	a3,120(sp)
   16870:	51e010ef          	jal	ra,17d8e <__ssprint_r>
   16874:	7a051863          	bnez	a0,17024 <_svfprintf_r+0x1520>
   16878:	7eea                	ld	t4,184(sp)
   1687a:	784a                	ld	a6,176(sp)
   1687c:	68aa                	ld	a7,136(sp)
   1687e:	670a                	ld	a4,128(sp)
   16880:	76e6                	ld	a3,120(sp)
   16882:	8f56                	mv	t5,s5
   16884:	36c1                	addiw	a3,a3,-16
   16886:	8cfa                	mv	s9,t5
   16888:	db6ff06f          	j	15e3e <_svfprintf_r+0x33a>
   1688c:	0641                	addi	a2,a2,16
   1688e:	011cb423          	sd	a7,8(s9)
   16892:	ea32                	sd	a2,272(sp)
   16894:	10b12423          	sw	a1,264(sp)
   16898:	02aed463          	ble	a0,t4,168c0 <_svfprintf_r+0xdbc>
   1689c:	0210                	addi	a2,sp,256
   1689e:	85ce                	mv	a1,s3
   168a0:	854a                	mv	a0,s2
   168a2:	e576                	sd	t4,136(sp)
   168a4:	e142                	sd	a6,128(sp)
   168a6:	fcc6                	sd	a7,120(sp)
   168a8:	f8ba                	sd	a4,112(sp)
   168aa:	f4b6                	sd	a3,104(sp)
   168ac:	4e2010ef          	jal	ra,17d8e <__ssprint_r>
   168b0:	76051a63          	bnez	a0,17024 <_svfprintf_r+0x1520>
   168b4:	6eaa                	ld	t4,136(sp)
   168b6:	680a                	ld	a6,128(sp)
   168b8:	78e6                	ld	a7,120(sp)
   168ba:	7746                	ld	a4,112(sp)
   168bc:	76a6                	ld	a3,104(sp)
   168be:	8f56                	mv	t5,s5
   168c0:	36c1                	addiw	a3,a3,-16
   168c2:	8cfa                	mv	s9,t5
   168c4:	e60ff06f          	j	15f24 <_svfprintf_r+0x420>
   168c8:	06c1                	addi	a3,a3,16
   168ca:	011cb423          	sd	a7,8(s9)
   168ce:	ea36                	sd	a3,272(sp)
   168d0:	10c12423          	sw	a2,264(sp)
   168d4:	02bed263          	ble	a1,t4,168f8 <_svfprintf_r+0xdf4>
   168d8:	0210                	addi	a2,sp,256
   168da:	85ce                	mv	a1,s3
   168dc:	854a                	mv	a0,s2
   168de:	e176                	sd	t4,128(sp)
   168e0:	fcc2                	sd	a6,120(sp)
   168e2:	f8c6                	sd	a7,112(sp)
   168e4:	f4ba                	sd	a4,104(sp)
   168e6:	4a8010ef          	jal	ra,17d8e <__ssprint_r>
   168ea:	72051d63          	bnez	a0,17024 <_svfprintf_r+0x1520>
   168ee:	6e8a                	ld	t4,128(sp)
   168f0:	7866                	ld	a6,120(sp)
   168f2:	78c6                	ld	a7,112(sp)
   168f4:	7726                	ld	a4,104(sp)
   168f6:	8556                	mv	a0,s5
   168f8:	3741                	addiw	a4,a4,-16
   168fa:	8caa                	mv	s9,a0
   168fc:	e7cff06f          	j	15f78 <_svfprintf_r+0x474>
   16900:	06500693          	li	a3,101
   16904:	5766df63          	ble	s6,a3,16e82 <_svfprintf_r+0x137e>
   16908:	754e                	ld	a0,240(sp)
   1690a:	75ee                	ld	a1,248(sp)
   1690c:	4601                	li	a2,0
   1690e:	4681                	li	a3,0
   16910:	f4ba                	sd	a4,104(sp)
   16912:	13c020ef          	jal	ra,18a4e <__eqtf2>
   16916:	7726                	ld	a4,104(sp)
   16918:	10051e63          	bnez	a0,16a34 <_svfprintf_r+0xf30>
   1691c:	0001a7b7          	lui	a5,0x1a
   16920:	28078793          	addi	a5,a5,640 # 1a280 <zeroes.4441+0x90>
   16924:	00fcb023          	sd	a5,0(s9)
   16928:	4785                	li	a5,1
   1692a:	00fcb423          	sd	a5,8(s9)
   1692e:	10812783          	lw	a5,264(sp)
   16932:	0705                	addi	a4,a4,1
   16934:	ea3a                	sd	a4,272(sp)
   16936:	0017871b          	addiw	a4,a5,1
   1693a:	10e12423          	sw	a4,264(sp)
   1693e:	479d                	li	a5,7
   16940:	0cc1                	addi	s9,s9,16
   16942:	00e7da63          	ble	a4,a5,16956 <_svfprintf_r+0xe52>
   16946:	0210                	addi	a2,sp,256
   16948:	85ce                	mv	a1,s3
   1694a:	854a                	mv	a0,s2
   1694c:	442010ef          	jal	ra,17d8e <__ssprint_r>
   16950:	6c051a63          	bnez	a0,17024 <_svfprintf_r+0x1520>
   16954:	8cd6                	mv	s9,s5
   16956:	47ee                	lw	a5,216(sp)
   16958:	0147c563          	blt	a5,s4,16962 <_svfprintf_r+0xe5e>
   1695c:	00147793          	andi	a5,s0,1
   16960:	cfa5                	beqz	a5,169d8 <_svfprintf_r+0xed4>
   16962:	67a6                	ld	a5,72(sp)
   16964:	6762                	ld	a4,24(sp)
   16966:	0cc1                	addi	s9,s9,16
   16968:	fefcb823          	sd	a5,-16(s9)
   1696c:	67e2                	ld	a5,24(sp)
   1696e:	fefcbc23          	sd	a5,-8(s9)
   16972:	67d2                	ld	a5,272(sp)
   16974:	97ba                	add	a5,a5,a4
   16976:	ea3e                	sd	a5,272(sp)
   16978:	10812783          	lw	a5,264(sp)
   1697c:	0017871b          	addiw	a4,a5,1
   16980:	10e12423          	sw	a4,264(sp)
   16984:	479d                	li	a5,7
   16986:	00e7da63          	ble	a4,a5,1699a <_svfprintf_r+0xe96>
   1698a:	0210                	addi	a2,sp,256
   1698c:	85ce                	mv	a1,s3
   1698e:	854a                	mv	a0,s2
   16990:	3fe010ef          	jal	ra,17d8e <__ssprint_r>
   16994:	68051863          	bnez	a0,17024 <_svfprintf_r+0x1520>
   16998:	8cd6                	mv	s9,s5
   1699a:	fffa049b          	addiw	s1,s4,-1
   1699e:	02905d63          	blez	s1,169d8 <_svfprintf_r+0xed4>
   169a2:	6b69                	lui	s6,0x1a
   169a4:	4c41                	li	s8,16
   169a6:	7e8b0b13          	addi	s6,s6,2024 # 1a7e8 <zeroes.4426>
   169aa:	4d1d                	li	s10,7
   169ac:	10812703          	lw	a4,264(sp)
   169b0:	016cb023          	sd	s6,0(s9)
   169b4:	67d2                	ld	a5,272(sp)
   169b6:	0017069b          	addiw	a3,a4,1
   169ba:	8736                	mv	a4,a3
   169bc:	010c8613          	addi	a2,s9,16
   169c0:	049c4763          	blt	s8,s1,16a0e <_svfprintf_r+0xf0a>
   169c4:	009cb423          	sd	s1,8(s9)
   169c8:	94be                	add	s1,s1,a5
   169ca:	ea26                	sd	s1,272(sp)
   169cc:	10d12423          	sw	a3,264(sp)
   169d0:	479d                	li	a5,7
   169d2:	8cb2                	mv	s9,a2
   169d4:	e0d7c763          	blt	a5,a3,15fe2 <_svfprintf_r+0x4de>
   169d8:	8811                	andi	s0,s0,4
   169da:	60041063          	bnez	s0,16fda <_svfprintf_r+0x14d6>
   169de:	7702                	ld	a4,32(sp)
   169e0:	76e2                	ld	a3,56(sp)
   169e2:	5782                	lw	a5,32(sp)
   169e4:	00d75363          	ble	a3,a4,169ea <_svfprintf_r+0xee6>
   169e8:	57e2                	lw	a5,56(sp)
   169ea:	7722                	ld	a4,40(sp)
   169ec:	9fb9                	addw	a5,a5,a4
   169ee:	f43e                	sd	a5,40(sp)
   169f0:	67d2                	ld	a5,272(sp)
   169f2:	cb81                	beqz	a5,16a02 <_svfprintf_r+0xefe>
   169f4:	0210                	addi	a2,sp,256
   169f6:	85ce                	mv	a1,s3
   169f8:	854a                	mv	a0,s2
   169fa:	394010ef          	jal	ra,17d8e <__ssprint_r>
   169fe:	62051363          	bnez	a0,17024 <_svfprintf_r+0x1520>
   16a02:	10012423          	sw	zero,264(sp)
   16a06:	640b9963          	bnez	s7,17058 <_svfprintf_r+0x1554>
   16a0a:	8cd6                	mv	s9,s5
   16a0c:	be55                	j	165c0 <_svfprintf_r+0xabc>
   16a0e:	07c1                	addi	a5,a5,16
   16a10:	018cb423          	sd	s8,8(s9)
   16a14:	ea3e                	sd	a5,272(sp)
   16a16:	10e12423          	sw	a4,264(sp)
   16a1a:	00dd5a63          	ble	a3,s10,16a2e <_svfprintf_r+0xf2a>
   16a1e:	0210                	addi	a2,sp,256
   16a20:	85ce                	mv	a1,s3
   16a22:	854a                	mv	a0,s2
   16a24:	36a010ef          	jal	ra,17d8e <__ssprint_r>
   16a28:	5e051e63          	bnez	a0,17024 <_svfprintf_r+0x1520>
   16a2c:	8656                	mv	a2,s5
   16a2e:	34c1                	addiw	s1,s1,-16
   16a30:	8cb2                	mv	s9,a2
   16a32:	bfad                	j	169ac <_svfprintf_r+0xea8>
   16a34:	46ee                	lw	a3,216(sp)
   16a36:	12d04163          	bgtz	a3,16b58 <_svfprintf_r+0x1054>
   16a3a:	0001a7b7          	lui	a5,0x1a
   16a3e:	28078793          	addi	a5,a5,640 # 1a280 <zeroes.4441+0x90>
   16a42:	00fcb023          	sd	a5,0(s9)
   16a46:	4785                	li	a5,1
   16a48:	00fcb423          	sd	a5,8(s9)
   16a4c:	10812783          	lw	a5,264(sp)
   16a50:	0705                	addi	a4,a4,1
   16a52:	ea3a                	sd	a4,272(sp)
   16a54:	0017871b          	addiw	a4,a5,1
   16a58:	10e12423          	sw	a4,264(sp)
   16a5c:	479d                	li	a5,7
   16a5e:	0cc1                	addi	s9,s9,16
   16a60:	00e7da63          	ble	a4,a5,16a74 <_svfprintf_r+0xf70>
   16a64:	0210                	addi	a2,sp,256
   16a66:	85ce                	mv	a1,s3
   16a68:	854a                	mv	a0,s2
   16a6a:	324010ef          	jal	ra,17d8e <__ssprint_r>
   16a6e:	5a051b63          	bnez	a0,17024 <_svfprintf_r+0x1520>
   16a72:	8cd6                	mv	s9,s5
   16a74:	47ee                	lw	a5,216(sp)
   16a76:	e791                	bnez	a5,16a82 <_svfprintf_r+0xf7e>
   16a78:	000a1563          	bnez	s4,16a82 <_svfprintf_r+0xf7e>
   16a7c:	00147793          	andi	a5,s0,1
   16a80:	dfa1                	beqz	a5,169d8 <_svfprintf_r+0xed4>
   16a82:	67a6                	ld	a5,72(sp)
   16a84:	6762                	ld	a4,24(sp)
   16a86:	010c8313          	addi	t1,s9,16
   16a8a:	00fcb023          	sd	a5,0(s9)
   16a8e:	67e2                	ld	a5,24(sp)
   16a90:	00fcb423          	sd	a5,8(s9)
   16a94:	67d2                	ld	a5,272(sp)
   16a96:	97ba                	add	a5,a5,a4
   16a98:	ea3e                	sd	a5,272(sp)
   16a9a:	10812783          	lw	a5,264(sp)
   16a9e:	0017871b          	addiw	a4,a5,1
   16aa2:	10e12423          	sw	a4,264(sp)
   16aa6:	479d                	li	a5,7
   16aa8:	00e7da63          	ble	a4,a5,16abc <_svfprintf_r+0xfb8>
   16aac:	0210                	addi	a2,sp,256
   16aae:	85ce                	mv	a1,s3
   16ab0:	854a                	mv	a0,s2
   16ab2:	2dc010ef          	jal	ra,17d8e <__ssprint_r>
   16ab6:	56051763          	bnez	a0,17024 <_svfprintf_r+0x1520>
   16aba:	8356                	mv	t1,s5
   16abc:	4b6e                	lw	s6,216(sp)
   16abe:	040b5663          	bgez	s6,16b0a <_svfprintf_r+0x1006>
   16ac2:	6c69                	lui	s8,0x1a
   16ac4:	41600b3b          	negw	s6,s6
   16ac8:	879a                	mv	a5,t1
   16aca:	4d41                	li	s10,16
   16acc:	7e8c0c13          	addi	s8,s8,2024 # 1a7e8 <zeroes.4426>
   16ad0:	4c9d                	li	s9,7
   16ad2:	10812683          	lw	a3,264(sp)
   16ad6:	0187b023          	sd	s8,0(a5)
   16ada:	6752                	ld	a4,272(sp)
   16adc:	0016861b          	addiw	a2,a3,1
   16ae0:	86b2                	mv	a3,a2
   16ae2:	0341                	addi	t1,t1,16
   16ae4:	056d4763          	blt	s10,s6,16b32 <_svfprintf_r+0x102e>
   16ae8:	0167b423          	sd	s6,8(a5)
   16aec:	9b3a                	add	s6,s6,a4
   16aee:	ea5a                	sd	s6,272(sp)
   16af0:	10c12423          	sw	a2,264(sp)
   16af4:	479d                	li	a5,7
   16af6:	00c7da63          	ble	a2,a5,16b0a <_svfprintf_r+0x1006>
   16afa:	0210                	addi	a2,sp,256
   16afc:	85ce                	mv	a1,s3
   16afe:	854a                	mv	a0,s2
   16b00:	28e010ef          	jal	ra,17d8e <__ssprint_r>
   16b04:	52051063          	bnez	a0,17024 <_svfprintf_r+0x1520>
   16b08:	8356                	mv	t1,s5
   16b0a:	67d2                	ld	a5,272(sp)
   16b0c:	00933023          	sd	s1,0(t1)
   16b10:	01433423          	sd	s4,8(t1)
   16b14:	97d2                	add	a5,a5,s4
   16b16:	ea3e                	sd	a5,272(sp)
   16b18:	10812783          	lw	a5,264(sp)
   16b1c:	01030c93          	addi	s9,t1,16
   16b20:	0017871b          	addiw	a4,a5,1
   16b24:	10e12423          	sw	a4,264(sp)
   16b28:	479d                	li	a5,7
   16b2a:	eae7d7e3          	ble	a4,a5,169d8 <_svfprintf_r+0xed4>
   16b2e:	cb4ff06f          	j	15fe2 <_svfprintf_r+0x4de>
   16b32:	0741                	addi	a4,a4,16
   16b34:	01a7b423          	sd	s10,8(a5)
   16b38:	ea3a                	sd	a4,272(sp)
   16b3a:	10d12423          	sw	a3,264(sp)
   16b3e:	00ccda63          	ble	a2,s9,16b52 <_svfprintf_r+0x104e>
   16b42:	0210                	addi	a2,sp,256
   16b44:	85ce                	mv	a1,s3
   16b46:	854a                	mv	a0,s2
   16b48:	246010ef          	jal	ra,17d8e <__ssprint_r>
   16b4c:	4c051c63          	bnez	a0,17024 <_svfprintf_r+0x1520>
   16b50:	8356                	mv	t1,s5
   16b52:	3b41                	addiw	s6,s6,-16
   16b54:	879a                	mv	a5,t1
   16b56:	bfb5                	j	16ad2 <_svfprintf_r+0xfce>
   16b58:	000d0b1b          	sext.w	s6,s10
   16b5c:	01aa5463          	ble	s10,s4,16b64 <_svfprintf_r+0x1060>
   16b60:	000a0b1b          	sext.w	s6,s4
   16b64:	03605a63          	blez	s6,16b98 <_svfprintf_r+0x1094>
   16b68:	975a                	add	a4,a4,s6
   16b6a:	ea3a                	sd	a4,272(sp)
   16b6c:	10812703          	lw	a4,264(sp)
   16b70:	009cb023          	sd	s1,0(s9)
   16b74:	016cb423          	sd	s6,8(s9)
   16b78:	0017069b          	addiw	a3,a4,1
   16b7c:	10d12423          	sw	a3,264(sp)
   16b80:	471d                	li	a4,7
   16b82:	0cc1                	addi	s9,s9,16
   16b84:	00d75a63          	ble	a3,a4,16b98 <_svfprintf_r+0x1094>
   16b88:	0210                	addi	a2,sp,256
   16b8a:	85ce                	mv	a1,s3
   16b8c:	854a                	mv	a0,s2
   16b8e:	200010ef          	jal	ra,17d8e <__ssprint_r>
   16b92:	48051963          	bnez	a0,17024 <_svfprintf_r+0x1520>
   16b96:	8cd6                	mv	s9,s5
   16b98:	875a                	mv	a4,s6
   16b9a:	000b5363          	bgez	s6,16ba0 <_svfprintf_r+0x109c>
   16b9e:	4701                	li	a4,0
   16ba0:	40ed0b3b          	subw	s6,s10,a4
   16ba4:	05605563          	blez	s6,16bee <_svfprintf_r+0x10ea>
   16ba8:	66e9                	lui	a3,0x1a
   16baa:	4841                	li	a6,16
   16bac:	7e868d93          	addi	s11,a3,2024 # 1a7e8 <zeroes.4426>
   16bb0:	489d                	li	a7,7
   16bb2:	10812603          	lw	a2,264(sp)
   16bb6:	01bcb023          	sd	s11,0(s9)
   16bba:	6752                	ld	a4,272(sp)
   16bbc:	0016059b          	addiw	a1,a2,1
   16bc0:	862e                	mv	a2,a1
   16bc2:	010c8513          	addi	a0,s9,16
   16bc6:	15684263          	blt	a6,s6,16d0a <_svfprintf_r+0x1206>
   16bca:	016cb423          	sd	s6,8(s9)
   16bce:	9b3a                	add	s6,s6,a4
   16bd0:	ea5a                	sd	s6,272(sp)
   16bd2:	10b12423          	sw	a1,264(sp)
   16bd6:	471d                	li	a4,7
   16bd8:	8caa                	mv	s9,a0
   16bda:	00b75a63          	ble	a1,a4,16bee <_svfprintf_r+0x10ea>
   16bde:	0210                	addi	a2,sp,256
   16be0:	85ce                	mv	a1,s3
   16be2:	854a                	mv	a0,s2
   16be4:	1aa010ef          	jal	ra,17d8e <__ssprint_r>
   16be8:	42051e63          	bnez	a0,17024 <_svfprintf_r+0x1520>
   16bec:	8cd6                	mv	s9,s5
   16bee:	40047793          	andi	a5,s0,1024
   16bf2:	01a48b33          	add	s6,s1,s10
   16bf6:	c39d                	beqz	a5,16c1c <_svfprintf_r+0x1118>
   16bf8:	014487b3          	add	a5,s1,s4
   16bfc:	f4be                	sd	a5,104(sp)
   16bfe:	67e9                	lui	a5,0x1a
   16c00:	7e878793          	addi	a5,a5,2024 # 1a7e8 <zeroes.4426>
   16c04:	4d9d                	li	s11,7
   16c06:	8d3e                	mv	s10,a5
   16c08:	67a2                	ld	a5,8(sp)
   16c0a:	120c1763          	bnez	s8,16d38 <_svfprintf_r+0x1234>
   16c0e:	12079663          	bnez	a5,16d3a <_svfprintf_r+0x1236>
   16c12:	014487b3          	add	a5,s1,s4
   16c16:	0167f363          	bleu	s6,a5,16c1c <_svfprintf_r+0x1118>
   16c1a:	8b3e                	mv	s6,a5
   16c1c:	47ee                	lw	a5,216(sp)
   16c1e:	0147c563          	blt	a5,s4,16c28 <_svfprintf_r+0x1124>
   16c22:	00147793          	andi	a5,s0,1
   16c26:	cf8d                	beqz	a5,16c60 <_svfprintf_r+0x115c>
   16c28:	67a6                	ld	a5,72(sp)
   16c2a:	6762                	ld	a4,24(sp)
   16c2c:	0cc1                	addi	s9,s9,16
   16c2e:	fefcb823          	sd	a5,-16(s9)
   16c32:	67e2                	ld	a5,24(sp)
   16c34:	fefcbc23          	sd	a5,-8(s9)
   16c38:	67d2                	ld	a5,272(sp)
   16c3a:	97ba                	add	a5,a5,a4
   16c3c:	ea3e                	sd	a5,272(sp)
   16c3e:	10812783          	lw	a5,264(sp)
   16c42:	0017871b          	addiw	a4,a5,1
   16c46:	10e12423          	sw	a4,264(sp)
   16c4a:	479d                	li	a5,7
   16c4c:	00e7da63          	ble	a4,a5,16c60 <_svfprintf_r+0x115c>
   16c50:	0210                	addi	a2,sp,256
   16c52:	85ce                	mv	a1,s3
   16c54:	854a                	mv	a0,s2
   16c56:	138010ef          	jal	ra,17d8e <__ssprint_r>
   16c5a:	3c051563          	bnez	a0,17024 <_svfprintf_r+0x1520>
   16c5e:	8cd6                	mv	s9,s5
   16c60:	4c6e                	lw	s8,216(sp)
   16c62:	94d2                	add	s1,s1,s4
   16c64:	416484bb          	subw	s1,s1,s6
   16c68:	418a07bb          	subw	a5,s4,s8
   16c6c:	8c3e                	mv	s8,a5
   16c6e:	00f4d463          	ble	a5,s1,16c76 <_svfprintf_r+0x1172>
   16c72:	00048c1b          	sext.w	s8,s1
   16c76:	03805b63          	blez	s8,16cac <_svfprintf_r+0x11a8>
   16c7a:	67d2                	ld	a5,272(sp)
   16c7c:	016cb023          	sd	s6,0(s9)
   16c80:	018cb423          	sd	s8,8(s9)
   16c84:	97e2                	add	a5,a5,s8
   16c86:	ea3e                	sd	a5,272(sp)
   16c88:	10812783          	lw	a5,264(sp)
   16c8c:	0cc1                	addi	s9,s9,16
   16c8e:	0017871b          	addiw	a4,a5,1
   16c92:	10e12423          	sw	a4,264(sp)
   16c96:	479d                	li	a5,7
   16c98:	00e7da63          	ble	a4,a5,16cac <_svfprintf_r+0x11a8>
   16c9c:	0210                	addi	a2,sp,256
   16c9e:	85ce                	mv	a1,s3
   16ca0:	854a                	mv	a0,s2
   16ca2:	0ec010ef          	jal	ra,17d8e <__ssprint_r>
   16ca6:	36051f63          	bnez	a0,17024 <_svfprintf_r+0x1520>
   16caa:	8cd6                	mv	s9,s5
   16cac:	87e2                	mv	a5,s8
   16cae:	000c5363          	bgez	s8,16cb4 <_svfprintf_r+0x11b0>
   16cb2:	4781                	li	a5,0
   16cb4:	44ee                	lw	s1,216(sp)
   16cb6:	409a04bb          	subw	s1,s4,s1
   16cba:	9c9d                	subw	s1,s1,a5
   16cbc:	d0905ee3          	blez	s1,169d8 <_svfprintf_r+0xed4>
   16cc0:	6b69                	lui	s6,0x1a
   16cc2:	4c41                	li	s8,16
   16cc4:	7e8b0b13          	addi	s6,s6,2024 # 1a7e8 <zeroes.4426>
   16cc8:	4d1d                	li	s10,7
   16cca:	10812703          	lw	a4,264(sp)
   16cce:	016cb023          	sd	s6,0(s9)
   16cd2:	67d2                	ld	a5,272(sp)
   16cd4:	0017069b          	addiw	a3,a4,1
   16cd8:	8736                	mv	a4,a3
   16cda:	010c8613          	addi	a2,s9,16
   16cde:	169c4f63          	blt	s8,s1,16e5c <_svfprintf_r+0x1358>
   16ce2:	009cb423          	sd	s1,8(s9)
   16ce6:	94be                	add	s1,s1,a5
   16ce8:	ea26                	sd	s1,272(sp)
   16cea:	10d12423          	sw	a3,264(sp)
   16cee:	479d                	li	a5,7
   16cf0:	8cb2                	mv	s9,a2
   16cf2:	ced7d3e3          	ble	a3,a5,169d8 <_svfprintf_r+0xed4>
   16cf6:	0210                	addi	a2,sp,256
   16cf8:	85ce                	mv	a1,s3
   16cfa:	854a                	mv	a0,s2
   16cfc:	092010ef          	jal	ra,17d8e <__ssprint_r>
   16d00:	32051263          	bnez	a0,17024 <_svfprintf_r+0x1520>
   16d04:	18010c93          	addi	s9,sp,384
   16d08:	b9c1                	j	169d8 <_svfprintf_r+0xed4>
   16d0a:	0741                	addi	a4,a4,16
   16d0c:	010cb423          	sd	a6,8(s9)
   16d10:	ea3a                	sd	a4,272(sp)
   16d12:	10c12423          	sw	a2,264(sp)
   16d16:	00b8de63          	ble	a1,a7,16d32 <_svfprintf_r+0x122e>
   16d1a:	0210                	addi	a2,sp,256
   16d1c:	85ce                	mv	a1,s3
   16d1e:	854a                	mv	a0,s2
   16d20:	f8c6                	sd	a7,112(sp)
   16d22:	f4c2                	sd	a6,104(sp)
   16d24:	06a010ef          	jal	ra,17d8e <__ssprint_r>
   16d28:	2e051e63          	bnez	a0,17024 <_svfprintf_r+0x1520>
   16d2c:	78c6                	ld	a7,112(sp)
   16d2e:	7826                	ld	a6,104(sp)
   16d30:	8556                	mv	a0,s5
   16d32:	3b41                	addiw	s6,s6,-16
   16d34:	8caa                	mv	s9,a0
   16d36:	bdb5                	j	16bb2 <_svfprintf_r+0x10ae>
   16d38:	c7d5                	beqz	a5,16de4 <_svfprintf_r+0x12e0>
   16d3a:	67a2                	ld	a5,8(sp)
   16d3c:	37fd                	addiw	a5,a5,-1
   16d3e:	e43e                	sd	a5,8(sp)
   16d40:	67c6                	ld	a5,80(sp)
   16d42:	6706                	ld	a4,64(sp)
   16d44:	0cc1                	addi	s9,s9,16
   16d46:	fefcb823          	sd	a5,-16(s9)
   16d4a:	6786                	ld	a5,64(sp)
   16d4c:	fefcbc23          	sd	a5,-8(s9)
   16d50:	67d2                	ld	a5,272(sp)
   16d52:	97ba                	add	a5,a5,a4
   16d54:	ea3e                	sd	a5,272(sp)
   16d56:	10812783          	lw	a5,264(sp)
   16d5a:	0017871b          	addiw	a4,a5,1
   16d5e:	10e12423          	sw	a4,264(sp)
   16d62:	00edda63          	ble	a4,s11,16d76 <_svfprintf_r+0x1272>
   16d66:	0210                	addi	a2,sp,256
   16d68:	85ce                	mv	a1,s3
   16d6a:	854a                	mv	a0,s2
   16d6c:	022010ef          	jal	ra,17d8e <__ssprint_r>
   16d70:	2a051a63          	bnez	a0,17024 <_svfprintf_r+0x1520>
   16d74:	8cd6                	mv	s9,s5
   16d76:	6702                	ld	a4,0(sp)
   16d78:	77a6                	ld	a5,104(sp)
   16d7a:	00074703          	lbu	a4,0(a4)
   16d7e:	416787bb          	subw	a5,a5,s6
   16d82:	00e7d463          	ble	a4,a5,16d8a <_svfprintf_r+0x1286>
   16d86:	0007871b          	sext.w	a4,a5
   16d8a:	02e05d63          	blez	a4,16dc4 <_svfprintf_r+0x12c0>
   16d8e:	67d2                	ld	a5,272(sp)
   16d90:	016cb023          	sd	s6,0(s9)
   16d94:	00ecb423          	sd	a4,8(s9)
   16d98:	97ba                	add	a5,a5,a4
   16d9a:	ea3e                	sd	a5,272(sp)
   16d9c:	10812783          	lw	a5,264(sp)
   16da0:	0cc1                	addi	s9,s9,16
   16da2:	0017869b          	addiw	a3,a5,1
   16da6:	10d12423          	sw	a3,264(sp)
   16daa:	00dddd63          	ble	a3,s11,16dc4 <_svfprintf_r+0x12c0>
   16dae:	0210                	addi	a2,sp,256
   16db0:	85ce                	mv	a1,s3
   16db2:	854a                	mv	a0,s2
   16db4:	f8ba                	sd	a4,112(sp)
   16db6:	7d9000ef          	jal	ra,17d8e <__ssprint_r>
   16dba:	26051563          	bnez	a0,17024 <_svfprintf_r+0x1520>
   16dbe:	7746                	ld	a4,112(sp)
   16dc0:	18010c93          	addi	s9,sp,384
   16dc4:	86ba                	mv	a3,a4
   16dc6:	00075363          	bgez	a4,16dcc <_svfprintf_r+0x12c8>
   16dca:	4681                	li	a3,0
   16dcc:	6782                	ld	a5,0(sp)
   16dce:	4841                	li	a6,16
   16dd0:	0007c783          	lbu	a5,0(a5)
   16dd4:	9f95                	subw	a5,a5,a3
   16dd6:	04f04463          	bgtz	a5,16e1e <_svfprintf_r+0x131a>
   16dda:	6782                	ld	a5,0(sp)
   16ddc:	0007c783          	lbu	a5,0(a5)
   16de0:	9b3e                	add	s6,s6,a5
   16de2:	b51d                	j	16c08 <_svfprintf_r+0x1104>
   16de4:	6782                	ld	a5,0(sp)
   16de6:	3c7d                	addiw	s8,s8,-1
   16de8:	17fd                	addi	a5,a5,-1
   16dea:	e03e                	sd	a5,0(sp)
   16dec:	bf91                	j	16d40 <_svfprintf_r+0x123c>
   16dee:	0741                	addi	a4,a4,16
   16df0:	01acb023          	sd	s10,0(s9)
   16df4:	010cb423          	sd	a6,8(s9)
   16df8:	ea3a                	sd	a4,272(sp)
   16dfa:	10d12423          	sw	a3,264(sp)
   16dfe:	00cdde63          	ble	a2,s11,16e1a <_svfprintf_r+0x1316>
   16e02:	0210                	addi	a2,sp,256
   16e04:	85ce                	mv	a1,s3
   16e06:	854a                	mv	a0,s2
   16e08:	fcc2                	sd	a6,120(sp)
   16e0a:	f8be                	sd	a5,112(sp)
   16e0c:	783000ef          	jal	ra,17d8e <__ssprint_r>
   16e10:	20051a63          	bnez	a0,17024 <_svfprintf_r+0x1520>
   16e14:	7866                	ld	a6,120(sp)
   16e16:	77c6                	ld	a5,112(sp)
   16e18:	030c                	addi	a1,sp,384
   16e1a:	37c1                	addiw	a5,a5,-16
   16e1c:	8cae                	mv	s9,a1
   16e1e:	10812683          	lw	a3,264(sp)
   16e22:	6752                	ld	a4,272(sp)
   16e24:	010c8593          	addi	a1,s9,16
   16e28:	0016861b          	addiw	a2,a3,1
   16e2c:	86b2                	mv	a3,a2
   16e2e:	fcf840e3          	blt	a6,a5,16dee <_svfprintf_r+0x12ea>
   16e32:	00fcb423          	sd	a5,8(s9)
   16e36:	97ba                	add	a5,a5,a4
   16e38:	01acb023          	sd	s10,0(s9)
   16e3c:	ea3e                	sd	a5,272(sp)
   16e3e:	10c12423          	sw	a2,264(sp)
   16e42:	8cae                	mv	s9,a1
   16e44:	f8cddbe3          	ble	a2,s11,16dda <_svfprintf_r+0x12d6>
   16e48:	0210                	addi	a2,sp,256
   16e4a:	85ce                	mv	a1,s3
   16e4c:	854a                	mv	a0,s2
   16e4e:	741000ef          	jal	ra,17d8e <__ssprint_r>
   16e52:	1c051963          	bnez	a0,17024 <_svfprintf_r+0x1520>
   16e56:	18010c93          	addi	s9,sp,384
   16e5a:	b741                	j	16dda <_svfprintf_r+0x12d6>
   16e5c:	07c1                	addi	a5,a5,16
   16e5e:	018cb423          	sd	s8,8(s9)
   16e62:	ea3e                	sd	a5,272(sp)
   16e64:	10e12423          	sw	a4,264(sp)
   16e68:	00dd5a63          	ble	a3,s10,16e7c <_svfprintf_r+0x1378>
   16e6c:	0210                	addi	a2,sp,256
   16e6e:	85ce                	mv	a1,s3
   16e70:	854a                	mv	a0,s2
   16e72:	71d000ef          	jal	ra,17d8e <__ssprint_r>
   16e76:	1a051763          	bnez	a0,17024 <_svfprintf_r+0x1520>
   16e7a:	0310                	addi	a2,sp,384
   16e7c:	34c1                	addiw	s1,s1,-16
   16e7e:	8cb2                	mv	s9,a2
   16e80:	b5a9                	j	16cca <_svfprintf_r+0x11c6>
   16e82:	10812783          	lw	a5,264(sp)
   16e86:	4605                	li	a2,1
   16e88:	009cb023          	sd	s1,0(s9)
   16e8c:	0017869b          	addiw	a3,a5,1
   16e90:	0705                	addi	a4,a4,1
   16e92:	87b6                	mv	a5,a3
   16e94:	010c8c13          	addi	s8,s9,16
   16e98:	01464663          	blt	a2,s4,16ea4 <_svfprintf_r+0x13a0>
   16e9c:	00147593          	andi	a1,s0,1
   16ea0:	12058663          	beqz	a1,16fcc <_svfprintf_r+0x14c8>
   16ea4:	4605                	li	a2,1
   16ea6:	10f12423          	sw	a5,264(sp)
   16eaa:	00ccb423          	sd	a2,8(s9)
   16eae:	ea3a                	sd	a4,272(sp)
   16eb0:	479d                	li	a5,7
   16eb2:	00d7da63          	ble	a3,a5,16ec6 <_svfprintf_r+0x13c2>
   16eb6:	0210                	addi	a2,sp,256
   16eb8:	85ce                	mv	a1,s3
   16eba:	854a                	mv	a0,s2
   16ebc:	6d3000ef          	jal	ra,17d8e <__ssprint_r>
   16ec0:	16051263          	bnez	a0,17024 <_svfprintf_r+0x1520>
   16ec4:	8c56                	mv	s8,s5
   16ec6:	67a6                	ld	a5,72(sp)
   16ec8:	6762                	ld	a4,24(sp)
   16eca:	0c41                	addi	s8,s8,16
   16ecc:	fefc3823          	sd	a5,-16(s8)
   16ed0:	67e2                	ld	a5,24(sp)
   16ed2:	fefc3c23          	sd	a5,-8(s8)
   16ed6:	67d2                	ld	a5,272(sp)
   16ed8:	97ba                	add	a5,a5,a4
   16eda:	ea3e                	sd	a5,272(sp)
   16edc:	10812783          	lw	a5,264(sp)
   16ee0:	0017871b          	addiw	a4,a5,1
   16ee4:	10e12423          	sw	a4,264(sp)
   16ee8:	479d                	li	a5,7
   16eea:	00e7da63          	ble	a4,a5,16efe <_svfprintf_r+0x13fa>
   16eee:	0210                	addi	a2,sp,256
   16ef0:	85ce                	mv	a1,s3
   16ef2:	854a                	mv	a0,s2
   16ef4:	69b000ef          	jal	ra,17d8e <__ssprint_r>
   16ef8:	12051663          	bnez	a0,17024 <_svfprintf_r+0x1520>
   16efc:	8c56                	mv	s8,s5
   16efe:	754e                	ld	a0,240(sp)
   16f00:	75ee                	ld	a1,248(sp)
   16f02:	4601                	li	a2,0
   16f04:	4681                	li	a3,0
   16f06:	fffa0b1b          	addiw	s6,s4,-1
   16f0a:	345010ef          	jal	ra,18a4e <__eqtf2>
   16f0e:	c12d                	beqz	a0,16f70 <_svfprintf_r+0x146c>
   16f10:	10812703          	lw	a4,264(sp)
   16f14:	67d2                	ld	a5,272(sp)
   16f16:	0485                	addi	s1,s1,1
   16f18:	0017069b          	addiw	a3,a4,1
   16f1c:	97da                	add	a5,a5,s6
   16f1e:	009c3023          	sd	s1,0(s8)
   16f22:	016c3423          	sd	s6,8(s8)
   16f26:	ea3e                	sd	a5,272(sp)
   16f28:	10d12423          	sw	a3,264(sp)
   16f2c:	479d                	li	a5,7
   16f2e:	0c41                	addi	s8,s8,16
   16f30:	00d7d963          	ble	a3,a5,16f42 <_svfprintf_r+0x143e>
   16f34:	0210                	addi	a2,sp,256
   16f36:	85ce                	mv	a1,s3
   16f38:	854a                	mv	a0,s2
   16f3a:	655000ef          	jal	ra,17d8e <__ssprint_r>
   16f3e:	e17d                	bnez	a0,17024 <_svfprintf_r+0x1520>
   16f40:	8c56                	mv	s8,s5
   16f42:	119c                	addi	a5,sp,224
   16f44:	00fc3023          	sd	a5,0(s8)
   16f48:	67e6                	ld	a5,88(sp)
   16f4a:	6766                	ld	a4,88(sp)
   16f4c:	010c0c93          	addi	s9,s8,16
   16f50:	00fc3423          	sd	a5,8(s8)
   16f54:	67d2                	ld	a5,272(sp)
   16f56:	97ba                	add	a5,a5,a4
   16f58:	ea3e                	sd	a5,272(sp)
   16f5a:	10812783          	lw	a5,264(sp)
   16f5e:	0017871b          	addiw	a4,a5,1
   16f62:	10e12423          	sw	a4,264(sp)
   16f66:	479d                	li	a5,7
   16f68:	a6e7d8e3          	ble	a4,a5,169d8 <_svfprintf_r+0xed4>
   16f6c:	876ff06f          	j	15fe2 <_svfprintf_r+0x4de>
   16f70:	fd6059e3          	blez	s6,16f42 <_svfprintf_r+0x143e>
   16f74:	64e9                	lui	s1,0x1a
   16f76:	4d41                	li	s10,16
   16f78:	7e848493          	addi	s1,s1,2024 # 1a7e8 <zeroes.4426>
   16f7c:	4c9d                	li	s9,7
   16f7e:	10812703          	lw	a4,264(sp)
   16f82:	009c3023          	sd	s1,0(s8)
   16f86:	67d2                	ld	a5,272(sp)
   16f88:	0017069b          	addiw	a3,a4,1
   16f8c:	8736                	mv	a4,a3
   16f8e:	010c0613          	addi	a2,s8,16
   16f92:	016d4b63          	blt	s10,s6,16fa8 <_svfprintf_r+0x14a4>
   16f96:	97da                	add	a5,a5,s6
   16f98:	016c3423          	sd	s6,8(s8)
   16f9c:	ea3e                	sd	a5,272(sp)
   16f9e:	10d12423          	sw	a3,264(sp)
   16fa2:	479d                	li	a5,7
   16fa4:	8c32                	mv	s8,a2
   16fa6:	b769                	j	16f30 <_svfprintf_r+0x142c>
   16fa8:	07c1                	addi	a5,a5,16
   16faa:	01ac3423          	sd	s10,8(s8)
   16fae:	ea3e                	sd	a5,272(sp)
   16fb0:	10e12423          	sw	a4,264(sp)
   16fb4:	00dcd963          	ble	a3,s9,16fc6 <_svfprintf_r+0x14c2>
   16fb8:	0210                	addi	a2,sp,256
   16fba:	85ce                	mv	a1,s3
   16fbc:	854a                	mv	a0,s2
   16fbe:	5d1000ef          	jal	ra,17d8e <__ssprint_r>
   16fc2:	e12d                	bnez	a0,17024 <_svfprintf_r+0x1520>
   16fc4:	8656                	mv	a2,s5
   16fc6:	3b41                	addiw	s6,s6,-16
   16fc8:	8c32                	mv	s8,a2
   16fca:	bf55                	j	16f7e <_svfprintf_r+0x147a>
   16fcc:	00ccb423          	sd	a2,8(s9)
   16fd0:	ea3a                	sd	a4,272(sp)
   16fd2:	10d12423          	sw	a3,264(sp)
   16fd6:	479d                	li	a5,7
   16fd8:	bfa1                	j	16f30 <_svfprintf_r+0x142c>
   16fda:	7782                	ld	a5,32(sp)
   16fdc:	7762                	ld	a4,56(sp)
   16fde:	40e7843b          	subw	s0,a5,a4
   16fe2:	9e805ee3          	blez	s0,169de <_svfprintf_r+0xeda>
   16fe6:	64e9                	lui	s1,0x1a
   16fe8:	4b41                	li	s6,16
   16fea:	7d848493          	addi	s1,s1,2008 # 1a7d8 <blanks.4425>
   16fee:	4c1d                	li	s8,7
   16ff0:	10812703          	lw	a4,264(sp)
   16ff4:	009cb023          	sd	s1,0(s9)
   16ff8:	67d2                	ld	a5,272(sp)
   16ffa:	0017069b          	addiw	a3,a4,1
   16ffe:	8736                	mv	a4,a3
   17000:	028b4a63          	blt	s6,s0,17034 <_svfprintf_r+0x1530>
   17004:	008cb423          	sd	s0,8(s9)
   17008:	943e                	add	s0,s0,a5
   1700a:	ea22                	sd	s0,272(sp)
   1700c:	10d12423          	sw	a3,264(sp)
   17010:	479d                	li	a5,7
   17012:	9cd7d6e3          	ble	a3,a5,169de <_svfprintf_r+0xeda>
   17016:	0210                	addi	a2,sp,256
   17018:	85ce                	mv	a1,s3
   1701a:	854a                	mv	a0,s2
   1701c:	573000ef          	jal	ra,17d8e <__ssprint_r>
   17020:	9a050fe3          	beqz	a0,169de <_svfprintf_r+0xeda>
   17024:	920b8d63          	beqz	s7,1615e <_svfprintf_r+0x65a>
   17028:	85de                	mv	a1,s7
   1702a:	854a                	mv	a0,s2
   1702c:	a53fb0ef          	jal	ra,12a7e <_free_r>
   17030:	92eff06f          	j	1615e <_svfprintf_r+0x65a>
   17034:	07c1                	addi	a5,a5,16
   17036:	016cb423          	sd	s6,8(s9)
   1703a:	ea3e                	sd	a5,272(sp)
   1703c:	10e12423          	sw	a4,264(sp)
   17040:	0cc1                	addi	s9,s9,16
   17042:	00dc5963          	ble	a3,s8,17054 <_svfprintf_r+0x1550>
   17046:	0210                	addi	a2,sp,256
   17048:	85ce                	mv	a1,s3
   1704a:	854a                	mv	a0,s2
   1704c:	543000ef          	jal	ra,17d8e <__ssprint_r>
   17050:	f971                	bnez	a0,17024 <_svfprintf_r+0x1520>
   17052:	8cd6                	mv	s9,s5
   17054:	3441                	addiw	s0,s0,-16
   17056:	bf69                	j	16ff0 <_svfprintf_r+0x14ec>
   17058:	85de                	mv	a1,s7
   1705a:	854a                	mv	a0,s2
   1705c:	a23fb0ef          	jal	ra,12a7e <_free_r>
   17060:	b26d                	j	16a0a <_svfprintf_r+0xf06>
   17062:	67d2                	ld	a5,272(sp)
   17064:	8e078d63          	beqz	a5,1615e <_svfprintf_r+0x65a>
   17068:	0210                	addi	a2,sp,256
   1706a:	85ce                	mv	a1,s3
   1706c:	854a                	mv	a0,s2
   1706e:	521000ef          	jal	ra,17d8e <__ssprint_r>
   17072:	8ecff06f          	j	1615e <_svfprintf_r+0x65a>

0000000000017076 <__sprint_r>:
   17076:	6a1c                	ld	a5,16(a2)
   17078:	715d                	addi	sp,sp,-80
   1707a:	e0a2                	sd	s0,64(sp)
   1707c:	e486                	sd	ra,72(sp)
   1707e:	fc26                	sd	s1,56(sp)
   17080:	f84a                	sd	s2,48(sp)
   17082:	f44e                	sd	s3,40(sp)
   17084:	f052                	sd	s4,32(sp)
   17086:	ec56                	sd	s5,24(sp)
   17088:	e85a                	sd	s6,16(sp)
   1708a:	e45e                	sd	s7,8(sp)
   1708c:	8432                	mv	s0,a2
   1708e:	ef99                	bnez	a5,170ac <__sprint_r+0x36>
   17090:	00062423          	sw	zero,8(a2)
   17094:	4501                	li	a0,0
   17096:	60a6                	ld	ra,72(sp)
   17098:	6406                	ld	s0,64(sp)
   1709a:	74e2                	ld	s1,56(sp)
   1709c:	7942                	ld	s2,48(sp)
   1709e:	79a2                	ld	s3,40(sp)
   170a0:	7a02                	ld	s4,32(sp)
   170a2:	6ae2                	ld	s5,24(sp)
   170a4:	6b42                	ld	s6,16(sp)
   170a6:	6ba2                	ld	s7,8(sp)
   170a8:	6161                	addi	sp,sp,80
   170aa:	8082                	ret
   170ac:	0ac5a783          	lw	a5,172(a1)
   170b0:	89ae                	mv	s3,a1
   170b2:	03279713          	slli	a4,a5,0x32
   170b6:	04075a63          	bgez	a4,1710a <__sprint_r+0x94>
   170ba:	00063903          	ld	s2,0(a2)
   170be:	8a2a                	mv	s4,a0
   170c0:	5bfd                	li	s7,-1
   170c2:	681c                	ld	a5,16(s0)
   170c4:	e799                	bnez	a5,170d2 <__sprint_r+0x5c>
   170c6:	4501                	li	a0,0
   170c8:	00043823          	sd	zero,16(s0)
   170cc:	00042423          	sw	zero,8(s0)
   170d0:	b7d9                	j	17096 <__sprint_r+0x20>
   170d2:	00893483          	ld	s1,8(s2)
   170d6:	00093b03          	ld	s6,0(s2)
   170da:	4a81                	li	s5,0
   170dc:	8089                	srli	s1,s1,0x2
   170de:	2481                	sext.w	s1,s1
   170e0:	009ac963          	blt	s5,s1,170f2 <__sprint_r+0x7c>
   170e4:	681c                	ld	a5,16(s0)
   170e6:	048a                	slli	s1,s1,0x2
   170e8:	0941                	addi	s2,s2,16
   170ea:	409784b3          	sub	s1,a5,s1
   170ee:	e804                	sd	s1,16(s0)
   170f0:	bfc9                	j	170c2 <__sprint_r+0x4c>
   170f2:	000b2583          	lw	a1,0(s6)
   170f6:	864e                	mv	a2,s3
   170f8:	8552                	mv	a0,s4
   170fa:	387000ef          	jal	ra,17c80 <_fputwc_r>
   170fe:	2501                	sext.w	a0,a0
   17100:	0b11                	addi	s6,s6,4
   17102:	01750763          	beq	a0,s7,17110 <__sprint_r+0x9a>
   17106:	2a85                	addiw	s5,s5,1
   17108:	bfe1                	j	170e0 <__sprint_r+0x6a>
   1710a:	b27fb0ef          	jal	ra,12c30 <__sfvwrite_r>
   1710e:	bf6d                	j	170c8 <__sprint_r+0x52>
   17110:	557d                	li	a0,-1
   17112:	bf5d                	j	170c8 <__sprint_r+0x52>

0000000000017114 <_vfiprintf_r>:
   17114:	7141                	addi	sp,sp,-496
   17116:	efa6                	sd	s1,472(sp)
   17118:	ebca                	sd	s2,464(sp)
   1711a:	e7ce                	sd	s3,456(sp)
   1711c:	e3d2                	sd	s4,448(sp)
   1711e:	f786                	sd	ra,488(sp)
   17120:	f3a2                	sd	s0,480(sp)
   17122:	ff56                	sd	s5,440(sp)
   17124:	fb5a                	sd	s6,432(sp)
   17126:	f75e                	sd	s7,424(sp)
   17128:	f362                	sd	s8,416(sp)
   1712a:	ef66                	sd	s9,408(sp)
   1712c:	eb6a                	sd	s10,400(sp)
   1712e:	e76e                	sd	s11,392(sp)
   17130:	892a                	mv	s2,a0
   17132:	84ae                	mv	s1,a1
   17134:	89b2                	mv	s3,a2
   17136:	8a36                	mv	s4,a3
   17138:	c509                	beqz	a0,17142 <_vfiprintf_r+0x2e>
   1713a:	493c                	lw	a5,80(a0)
   1713c:	e399                	bnez	a5,17142 <_vfiprintf_r+0x2e>
   1713e:	f70fb0ef          	jal	ra,128ae <__sinit>
   17142:	01049783          	lh	a5,16(s1)
   17146:	03279713          	slli	a4,a5,0x32
   1714a:	00074d63          	bltz	a4,17164 <_vfiprintf_r+0x50>
   1714e:	6689                	lui	a3,0x2
   17150:	0ac4a703          	lw	a4,172(s1)
   17154:	8fd5                	or	a5,a5,a3
   17156:	00f49823          	sh	a5,16(s1)
   1715a:	77f9                	lui	a5,0xffffe
   1715c:	17fd                	addi	a5,a5,-1
   1715e:	8ff9                	and	a5,a5,a4
   17160:	0af4a623          	sw	a5,172(s1)
   17164:	0104d783          	lhu	a5,16(s1)
   17168:	8ba1                	andi	a5,a5,8
   1716a:	c7a1                	beqz	a5,171b2 <_vfiprintf_r+0x9e>
   1716c:	6c9c                	ld	a5,24(s1)
   1716e:	c3b1                	beqz	a5,171b2 <_vfiprintf_r+0x9e>
   17170:	0104d783          	lhu	a5,16(s1)
   17174:	4729                	li	a4,10
   17176:	8be9                	andi	a5,a5,26
   17178:	04e79463          	bne	a5,a4,171c0 <_vfiprintf_r+0xac>
   1717c:	01249783          	lh	a5,18(s1)
   17180:	0407c063          	bltz	a5,171c0 <_vfiprintf_r+0xac>
   17184:	86d2                	mv	a3,s4
   17186:	864e                	mv	a2,s3
   17188:	85a6                	mv	a1,s1
   1718a:	854a                	mv	a0,s2
   1718c:	00b000ef          	jal	ra,17996 <__sbprintf>
   17190:	8baa                	mv	s7,a0
   17192:	70be                	ld	ra,488(sp)
   17194:	741e                	ld	s0,480(sp)
   17196:	855e                	mv	a0,s7
   17198:	64fe                	ld	s1,472(sp)
   1719a:	695e                	ld	s2,464(sp)
   1719c:	69be                	ld	s3,456(sp)
   1719e:	6a1e                	ld	s4,448(sp)
   171a0:	7afa                	ld	s5,440(sp)
   171a2:	7b5a                	ld	s6,432(sp)
   171a4:	7bba                	ld	s7,424(sp)
   171a6:	7c1a                	ld	s8,416(sp)
   171a8:	6cfa                	ld	s9,408(sp)
   171aa:	6d5a                	ld	s10,400(sp)
   171ac:	6dba                	ld	s11,392(sp)
   171ae:	617d                	addi	sp,sp,496
   171b0:	8082                	ret
   171b2:	85a6                	mv	a1,s1
   171b4:	854a                	mv	a0,s2
   171b6:	a92fb0ef          	jal	ra,12448 <__swsetup_r>
   171ba:	d95d                	beqz	a0,17170 <_vfiprintf_r+0x5c>
   171bc:	5bfd                	li	s7,-1
   171be:	bfd1                	j	17192 <_vfiprintf_r+0x7e>
   171c0:	67e9                	lui	a5,0x1a
   171c2:	7f878793          	addi	a5,a5,2040 # 1a7f8 <zeroes.4426+0x10>
   171c6:	e8be                	sd	a5,80(sp)
   171c8:	67ed                	lui	a5,0x1b
   171ca:	97878793          	addi	a5,a5,-1672 # 1a978 <zeroes.4417>
   171ce:	f43e                	sd	a5,40(sp)
   171d0:	67ed                	lui	a5,0x1b
   171d2:	10010b13          	addi	s6,sp,256
   171d6:	96878793          	addi	a5,a5,-1688 # 1a968 <blanks.4416>
   171da:	e15a                	sd	s6,128(sp)
   171dc:	e902                	sd	zero,144(sp)
   171de:	c502                	sw	zero,136(sp)
   171e0:	8dda                	mv	s11,s6
   171e2:	f002                	sd	zero,32(sp)
   171e4:	e802                	sd	zero,16(sp)
   171e6:	ec02                	sd	zero,24(sp)
   171e8:	fc02                	sd	zero,56(sp)
   171ea:	4b81                	li	s7,0
   171ec:	f83e                	sd	a5,48(sp)
   171ee:	844e                	mv	s0,s3
   171f0:	02500693          	li	a3,37
   171f4:	00044783          	lbu	a5,0(s0)
   171f8:	c399                	beqz	a5,171fe <_vfiprintf_r+0xea>
   171fa:	08d79063          	bne	a5,a3,1727a <_vfiprintf_r+0x166>
   171fe:	41340abb          	subw	s5,s0,s3
   17202:	020a8b63          	beqz	s5,17238 <_vfiprintf_r+0x124>
   17206:	67ca                	ld	a5,144(sp)
   17208:	013db023          	sd	s3,0(s11)
   1720c:	015db423          	sd	s5,8(s11)
   17210:	97d6                	add	a5,a5,s5
   17212:	e93e                	sd	a5,144(sp)
   17214:	47aa                	lw	a5,136(sp)
   17216:	0dc1                	addi	s11,s11,16
   17218:	0017869b          	addiw	a3,a5,1
   1721c:	c536                	sw	a3,136(sp)
   1721e:	479d                	li	a5,7
   17220:	00d7da63          	ble	a3,a5,17234 <_vfiprintf_r+0x120>
   17224:	0110                	addi	a2,sp,128
   17226:	85a6                	mv	a1,s1
   17228:	854a                	mv	a0,s2
   1722a:	e4dff0ef          	jal	ra,17076 <__sprint_r>
   1722e:	70051b63          	bnez	a0,17944 <_vfiprintf_r+0x830>
   17232:	8dda                	mv	s11,s6
   17234:	015b8bbb          	addw	s7,s7,s5
   17238:	00044783          	lbu	a5,0(s0)
   1723c:	72078e63          	beqz	a5,17978 <_vfiprintf_r+0x864>
   17240:	00140693          	addi	a3,s0,1
   17244:	06010ba3          	sb	zero,119(sp)
   17248:	547d                	li	s0,-1
   1724a:	4a81                	li	s5,0
   1724c:	4d01                	li	s10,0
   1724e:	05a00c93          	li	s9,90
   17252:	4c29                	li	s8,10
   17254:	00168993          	addi	s3,a3,1 # 2001 <_start-0xe0af>
   17258:	0006c683          	lbu	a3,0(a3)
   1725c:	4525                	li	a0,9
   1725e:	02a00813          	li	a6,42
   17262:	fe06861b          	addiw	a2,a3,-32
   17266:	0006059b          	sext.w	a1,a2
   1726a:	60bce563          	bltu	s9,a1,17874 <_vfiprintf_r+0x760>
   1726e:	67c6                	ld	a5,80(sp)
   17270:	1602                	slli	a2,a2,0x20
   17272:	8279                	srli	a2,a2,0x1e
   17274:	963e                	add	a2,a2,a5
   17276:	4210                	lw	a2,0(a2)
   17278:	8602                	jr	a2
   1727a:	0405                	addi	s0,s0,1
   1727c:	bfa5                	j	171f4 <_vfiprintf_r+0xe0>
   1727e:	0001a637          	lui	a2,0x1a
   17282:	26860793          	addi	a5,a2,616 # 1a268 <zeroes.4441+0x78>
   17286:	f03e                	sd	a5,32(sp)
   17288:	008a0793          	addi	a5,s4,8
   1728c:	e43e                	sd	a5,8(sp)
   1728e:	020d7613          	andi	a2,s10,32
   17292:	4e060963          	beqz	a2,17784 <_vfiprintf_r+0x670>
   17296:	000a3a03          	ld	s4,0(s4)
   1729a:	001d7613          	andi	a2,s10,1
   1729e:	ca19                	beqz	a2,172b4 <_vfiprintf_r+0x1a0>
   172a0:	000a0a63          	beqz	s4,172b4 <_vfiprintf_r+0x1a0>
   172a4:	03000613          	li	a2,48
   172a8:	06c10c23          	sb	a2,120(sp)
   172ac:	06d10ca3          	sb	a3,121(sp)
   172b0:	002d6d13          	ori	s10,s10,2
   172b4:	bffd7d13          	andi	s10,s10,-1025
   172b8:	ac85                	j	17528 <_vfiprintf_r+0x414>
   172ba:	854a                	mv	a0,s2
   172bc:	c52fd0ef          	jal	ra,1470e <_localeconv_r>
   172c0:	651c                	ld	a5,8(a0)
   172c2:	853e                	mv	a0,a5
   172c4:	fc3e                	sd	a5,56(sp)
   172c6:	b27f90ef          	jal	ra,10dec <strlen>
   172ca:	ec2a                	sd	a0,24(sp)
   172cc:	854a                	mv	a0,s2
   172ce:	c40fd0ef          	jal	ra,1470e <_localeconv_r>
   172d2:	691c                	ld	a5,16(a0)
   172d4:	e83e                	sd	a5,16(sp)
   172d6:	67e2                	ld	a5,24(sp)
   172d8:	cb81                	beqz	a5,172e8 <_vfiprintf_r+0x1d4>
   172da:	67c2                	ld	a5,16(sp)
   172dc:	c791                	beqz	a5,172e8 <_vfiprintf_r+0x1d4>
   172de:	0007c683          	lbu	a3,0(a5)
   172e2:	c299                	beqz	a3,172e8 <_vfiprintf_r+0x1d4>
   172e4:	400d6d13          	ori	s10,s10,1024
   172e8:	86ce                	mv	a3,s3
   172ea:	b7ad                	j	17254 <_vfiprintf_r+0x140>
   172ec:	07714683          	lbu	a3,119(sp)
   172f0:	fee5                	bnez	a3,172e8 <_vfiprintf_r+0x1d4>
   172f2:	02000693          	li	a3,32
   172f6:	06d10ba3          	sb	a3,119(sp)
   172fa:	b7fd                	j	172e8 <_vfiprintf_r+0x1d4>
   172fc:	001d6d13          	ori	s10,s10,1
   17300:	b7e5                	j	172e8 <_vfiprintf_r+0x1d4>
   17302:	000a2a83          	lw	s5,0(s4)
   17306:	0a21                	addi	s4,s4,8
   17308:	fe0ad0e3          	bgez	s5,172e8 <_vfiprintf_r+0x1d4>
   1730c:	41500abb          	negw	s5,s5
   17310:	004d6d13          	ori	s10,s10,4
   17314:	bfd1                	j	172e8 <_vfiprintf_r+0x1d4>
   17316:	02b00693          	li	a3,43
   1731a:	bff1                	j	172f6 <_vfiprintf_r+0x1e2>
   1731c:	0009c683          	lbu	a3,0(s3)
   17320:	00198613          	addi	a2,s3,1
   17324:	03069c63          	bne	a3,a6,1735c <_vfiprintf_r+0x248>
   17328:	000a2403          	lw	s0,0(s4)
   1732c:	008a0693          	addi	a3,s4,8
   17330:	02041793          	slli	a5,s0,0x20
   17334:	0007d363          	bgez	a5,1733a <_vfiprintf_r+0x226>
   17338:	547d                	li	s0,-1
   1733a:	2401                	sext.w	s0,s0
   1733c:	8a36                	mv	s4,a3
   1733e:	89b2                	mv	s3,a2
   17340:	b765                	j	172e8 <_vfiprintf_r+0x1d4>
   17342:	028c043b          	mulw	s0,s8,s0
   17346:	0605                	addi	a2,a2,1
   17348:	fff64683          	lbu	a3,-1(a2)
   1734c:	9c2d                	addw	s0,s0,a1
   1734e:	fd06889b          	addiw	a7,a3,-48
   17352:	85c6                	mv	a1,a7
   17354:	ff1577e3          	bleu	a7,a0,17342 <_vfiprintf_r+0x22e>
   17358:	89b2                	mv	s3,a2
   1735a:	b721                	j	17262 <_vfiprintf_r+0x14e>
   1735c:	4401                	li	s0,0
   1735e:	bfc5                	j	1734e <_vfiprintf_r+0x23a>
   17360:	080d6d13          	ori	s10,s10,128
   17364:	b751                	j	172e8 <_vfiprintf_r+0x1d4>
   17366:	864e                	mv	a2,s3
   17368:	4a81                	li	s5,0
   1736a:	035c0abb          	mulw	s5,s8,s5
   1736e:	fd06869b          	addiw	a3,a3,-48
   17372:	0605                	addi	a2,a2,1
   17374:	01568abb          	addw	s5,a3,s5
   17378:	fff64683          	lbu	a3,-1(a2)
   1737c:	fd06859b          	addiw	a1,a3,-48
   17380:	feb575e3          	bleu	a1,a0,1736a <_vfiprintf_r+0x256>
   17384:	bfd1                	j	17358 <_vfiprintf_r+0x244>
   17386:	0009c603          	lbu	a2,0(s3)
   1738a:	06800693          	li	a3,104
   1738e:	00d61663          	bne	a2,a3,1739a <_vfiprintf_r+0x286>
   17392:	0985                	addi	s3,s3,1
   17394:	200d6d13          	ori	s10,s10,512
   17398:	bf81                	j	172e8 <_vfiprintf_r+0x1d4>
   1739a:	040d6d13          	ori	s10,s10,64
   1739e:	b7a9                	j	172e8 <_vfiprintf_r+0x1d4>
   173a0:	0009c603          	lbu	a2,0(s3)
   173a4:	06c00693          	li	a3,108
   173a8:	00d61663          	bne	a2,a3,173b4 <_vfiprintf_r+0x2a0>
   173ac:	0985                	addi	s3,s3,1
   173ae:	020d6d13          	ori	s10,s10,32
   173b2:	bf1d                	j	172e8 <_vfiprintf_r+0x1d4>
   173b4:	010d6d13          	ori	s10,s10,16
   173b8:	bf05                	j	172e8 <_vfiprintf_r+0x1d4>
   173ba:	000a2683          	lw	a3,0(s4)
   173be:	008a0793          	addi	a5,s4,8
   173c2:	e43e                	sd	a5,8(sp)
   173c4:	08d10c23          	sb	a3,152(sp)
   173c8:	06010ba3          	sb	zero,119(sp)
   173cc:	4405                	li	s0,1
   173ce:	4a01                	li	s4,0
   173d0:	09810c13          	addi	s8,sp,152
   173d4:	aabd                	j	17552 <_vfiprintf_r+0x43e>
   173d6:	010d6d13          	ori	s10,s10,16
   173da:	008a0793          	addi	a5,s4,8
   173de:	e43e                	sd	a5,8(sp)
   173e0:	020d7693          	andi	a3,s10,32
   173e4:	ca85                	beqz	a3,17414 <_vfiprintf_r+0x300>
   173e6:	000a3a03          	ld	s4,0(s4)
   173ea:	000a5863          	bgez	s4,173fa <_vfiprintf_r+0x2e6>
   173ee:	02d00693          	li	a3,45
   173f2:	41400a33          	neg	s4,s4
   173f6:	06d10ba3          	sb	a3,119(sp)
   173fa:	56fd                	li	a3,-1
   173fc:	3ad41b63          	bne	s0,a3,177b2 <_vfiprintf_r+0x69e>
   17400:	46a5                	li	a3,9
   17402:	3d46e563          	bltu	a3,s4,177cc <_vfiprintf_r+0x6b8>
   17406:	030a0a1b          	addiw	s4,s4,48
   1740a:	0f410da3          	sb	s4,251(sp)
   1740e:	0fb10c13          	addi	s8,sp,251
   17412:	a87d                	j	174d0 <_vfiprintf_r+0x3bc>
   17414:	010d7693          	andi	a3,s10,16
   17418:	f6f9                	bnez	a3,173e6 <_vfiprintf_r+0x2d2>
   1741a:	040d7693          	andi	a3,s10,64
   1741e:	c681                	beqz	a3,17426 <_vfiprintf_r+0x312>
   17420:	000a1a03          	lh	s4,0(s4)
   17424:	b7d9                	j	173ea <_vfiprintf_r+0x2d6>
   17426:	200d7693          	andi	a3,s10,512
   1742a:	c681                	beqz	a3,17432 <_vfiprintf_r+0x31e>
   1742c:	000a0a03          	lb	s4,0(s4)
   17430:	bf6d                	j	173ea <_vfiprintf_r+0x2d6>
   17432:	000a2a03          	lw	s4,0(s4)
   17436:	bf55                	j	173ea <_vfiprintf_r+0x2d6>
   17438:	020d7613          	andi	a2,s10,32
   1743c:	000a3683          	ld	a3,0(s4)
   17440:	0a21                	addi	s4,s4,8
   17442:	c601                	beqz	a2,1744a <_vfiprintf_r+0x336>
   17444:	0176b023          	sd	s7,0(a3)
   17448:	b35d                	j	171ee <_vfiprintf_r+0xda>
   1744a:	010d7613          	andi	a2,s10,16
   1744e:	fa7d                	bnez	a2,17444 <_vfiprintf_r+0x330>
   17450:	040d7613          	andi	a2,s10,64
   17454:	c601                	beqz	a2,1745c <_vfiprintf_r+0x348>
   17456:	01769023          	sh	s7,0(a3)
   1745a:	bb51                	j	171ee <_vfiprintf_r+0xda>
   1745c:	200d7793          	andi	a5,s10,512
   17460:	c781                	beqz	a5,17468 <_vfiprintf_r+0x354>
   17462:	01768023          	sb	s7,0(a3)
   17466:	b361                	j	171ee <_vfiprintf_r+0xda>
   17468:	0176a023          	sw	s7,0(a3)
   1746c:	b349                	j	171ee <_vfiprintf_r+0xda>
   1746e:	010d6d13          	ori	s10,s10,16
   17472:	008a0793          	addi	a5,s4,8
   17476:	e43e                	sd	a5,8(sp)
   17478:	020d7693          	andi	a3,s10,32
   1747c:	ceb9                	beqz	a3,174da <_vfiprintf_r+0x3c6>
   1747e:	000a3a03          	ld	s4,0(s4)
   17482:	bffd7d13          	andi	s10,s10,-1025
   17486:	4601                	li	a2,0
   17488:	06010ba3          	sb	zero,119(sp)
   1748c:	56fd                	li	a3,-1
   1748e:	85ea                	mv	a1,s10
   17490:	32d41363          	bne	s0,a3,177b6 <_vfiprintf_r+0x6a2>
   17494:	4685                	li	a3,1
   17496:	f6d605e3          	beq	a2,a3,17400 <_vfiprintf_r+0x2ec>
   1749a:	4689                	li	a3,2
   1749c:	3ad60063          	beq	a2,a3,1783c <_vfiprintf_r+0x728>
   174a0:	19f0                	addi	a2,sp,252
   174a2:	007a7593          	andi	a1,s4,7
   174a6:	03058593          	addi	a1,a1,48
   174aa:	feb60fa3          	sb	a1,-1(a2)
   174ae:	003a5a13          	srli	s4,s4,0x3
   174b2:	fff60c13          	addi	s8,a2,-1
   174b6:	300a1963          	bnez	s4,177c8 <_vfiprintf_r+0x6b4>
   174ba:	001d7513          	andi	a0,s10,1
   174be:	c909                	beqz	a0,174d0 <_vfiprintf_r+0x3bc>
   174c0:	03000513          	li	a0,48
   174c4:	00a58663          	beq	a1,a0,174d0 <_vfiprintf_r+0x3bc>
   174c8:	feac0fa3          	sb	a0,-1(s8)
   174cc:	ffe60c13          	addi	s8,a2,-2
   174d0:	8a22                	mv	s4,s0
   174d2:	19e0                	addi	s0,sp,252
   174d4:	4184043b          	subw	s0,s0,s8
   174d8:	a8ad                	j	17552 <_vfiprintf_r+0x43e>
   174da:	010d7693          	andi	a3,s10,16
   174de:	f2c5                	bnez	a3,1747e <_vfiprintf_r+0x36a>
   174e0:	040d7693          	andi	a3,s10,64
   174e4:	000a2a03          	lw	s4,0(s4)
   174e8:	c689                	beqz	a3,174f2 <_vfiprintf_r+0x3de>
   174ea:	1a42                	slli	s4,s4,0x30
   174ec:	030a5a13          	srli	s4,s4,0x30
   174f0:	bf49                	j	17482 <_vfiprintf_r+0x36e>
   174f2:	200d7693          	andi	a3,s10,512
   174f6:	c681                	beqz	a3,174fe <_vfiprintf_r+0x3ea>
   174f8:	0ffa7a13          	andi	s4,s4,255
   174fc:	b759                	j	17482 <_vfiprintf_r+0x36e>
   174fe:	1a02                	slli	s4,s4,0x20
   17500:	020a5a13          	srli	s4,s4,0x20
   17504:	bfbd                	j	17482 <_vfiprintf_r+0x36e>
   17506:	76e1                	lui	a3,0xffff8
   17508:	8306c693          	xori	a3,a3,-2000
   1750c:	008a0793          	addi	a5,s4,8
   17510:	06d11c23          	sh	a3,120(sp)
   17514:	000a3a03          	ld	s4,0(s4)
   17518:	0001a6b7          	lui	a3,0x1a
   1751c:	e43e                	sd	a5,8(sp)
   1751e:	25068793          	addi	a5,a3,592 # 1a250 <zeroes.4441+0x60>
   17522:	002d6d13          	ori	s10,s10,2
   17526:	f03e                	sd	a5,32(sp)
   17528:	4609                	li	a2,2
   1752a:	bfb9                	j	17488 <_vfiprintf_r+0x374>
   1752c:	008a0793          	addi	a5,s4,8
   17530:	e43e                	sd	a5,8(sp)
   17532:	06010ba3          	sb	zero,119(sp)
   17536:	567d                	li	a2,-1
   17538:	000a3c03          	ld	s8,0(s4)
   1753c:	1ec40663          	beq	s0,a2,17728 <_vfiprintf_r+0x614>
   17540:	8622                	mv	a2,s0
   17542:	4581                	li	a1,0
   17544:	8562                	mv	a0,s8
   17546:	bcafd0ef          	jal	ra,14910 <memchr>
   1754a:	4a01                	li	s4,0
   1754c:	c119                	beqz	a0,17552 <_vfiprintf_r+0x43e>
   1754e:	4185043b          	subw	s0,a0,s8
   17552:	8652                	mv	a2,s4
   17554:	008a5363          	ble	s0,s4,1755a <_vfiprintf_r+0x446>
   17558:	8622                	mv	a2,s0
   1755a:	07714583          	lbu	a1,119(sp)
   1755e:	00060c9b          	sext.w	s9,a2
   17562:	c199                	beqz	a1,17568 <_vfiprintf_r+0x454>
   17564:	00160c9b          	addiw	s9,a2,1
   17568:	002d7613          	andi	a2,s10,2
   1756c:	0006079b          	sext.w	a5,a2
   17570:	e0be                	sd	a5,64(sp)
   17572:	c391                	beqz	a5,17576 <_vfiprintf_r+0x462>
   17574:	2c89                	addiw	s9,s9,2
   17576:	084d7793          	andi	a5,s10,132
   1757a:	e4be                	sd	a5,72(sp)
   1757c:	e7a1                	bnez	a5,175c4 <_vfiprintf_r+0x4b0>
   1757e:	419a883b          	subw	a6,s5,s9
   17582:	05005163          	blez	a6,175c4 <_vfiprintf_r+0x4b0>
   17586:	4341                	li	t1,16
   17588:	4e1d                	li	t3,7
   1758a:	45aa                	lw	a1,136(sp)
   1758c:	77c2                	ld	a5,48(sp)
   1758e:	664a                	ld	a2,144(sp)
   17590:	0015851b          	addiw	a0,a1,1
   17594:	00fdb023          	sd	a5,0(s11)
   17598:	85aa                	mv	a1,a0
   1759a:	010d8893          	addi	a7,s11,16
   1759e:	2f034363          	blt	t1,a6,17884 <_vfiprintf_r+0x770>
   175a2:	010db423          	sd	a6,8(s11)
   175a6:	9832                	add	a6,a6,a2
   175a8:	e942                	sd	a6,144(sp)
   175aa:	c52a                	sw	a0,136(sp)
   175ac:	461d                	li	a2,7
   175ae:	8dc6                	mv	s11,a7
   175b0:	00a65a63          	ble	a0,a2,175c4 <_vfiprintf_r+0x4b0>
   175b4:	0110                	addi	a2,sp,128
   175b6:	85a6                	mv	a1,s1
   175b8:	854a                	mv	a0,s2
   175ba:	abdff0ef          	jal	ra,17076 <__sprint_r>
   175be:	38051363          	bnez	a0,17944 <_vfiprintf_r+0x830>
   175c2:	8dda                	mv	s11,s6
   175c4:	07714603          	lbu	a2,119(sp)
   175c8:	ca1d                	beqz	a2,175fe <_vfiprintf_r+0x4ea>
   175ca:	07710593          	addi	a1,sp,119
   175ce:	00bdb023          	sd	a1,0(s11)
   175d2:	4585                	li	a1,1
   175d4:	462a                	lw	a2,136(sp)
   175d6:	00bdb423          	sd	a1,8(s11)
   175da:	65ca                	ld	a1,144(sp)
   175dc:	0016051b          	addiw	a0,a2,1
   175e0:	c52a                	sw	a0,136(sp)
   175e2:	0585                	addi	a1,a1,1
   175e4:	e92e                	sd	a1,144(sp)
   175e6:	461d                	li	a2,7
   175e8:	0dc1                	addi	s11,s11,16
   175ea:	00a65a63          	ble	a0,a2,175fe <_vfiprintf_r+0x4ea>
   175ee:	0110                	addi	a2,sp,128
   175f0:	85a6                	mv	a1,s1
   175f2:	854a                	mv	a0,s2
   175f4:	a83ff0ef          	jal	ra,17076 <__sprint_r>
   175f8:	34051663          	bnez	a0,17944 <_vfiprintf_r+0x830>
   175fc:	8dda                	mv	s11,s6
   175fe:	6786                	ld	a5,64(sp)
   17600:	cb95                	beqz	a5,17634 <_vfiprintf_r+0x520>
   17602:	18ac                	addi	a1,sp,120
   17604:	00bdb023          	sd	a1,0(s11)
   17608:	4589                	li	a1,2
   1760a:	462a                	lw	a2,136(sp)
   1760c:	00bdb423          	sd	a1,8(s11)
   17610:	65ca                	ld	a1,144(sp)
   17612:	0016051b          	addiw	a0,a2,1
   17616:	c52a                	sw	a0,136(sp)
   17618:	0589                	addi	a1,a1,2
   1761a:	e92e                	sd	a1,144(sp)
   1761c:	461d                	li	a2,7
   1761e:	0dc1                	addi	s11,s11,16
   17620:	00a65a63          	ble	a0,a2,17634 <_vfiprintf_r+0x520>
   17624:	0110                	addi	a2,sp,128
   17626:	85a6                	mv	a1,s1
   17628:	854a                	mv	a0,s2
   1762a:	a4dff0ef          	jal	ra,17076 <__sprint_r>
   1762e:	30051b63          	bnez	a0,17944 <_vfiprintf_r+0x830>
   17632:	8dda                	mv	s11,s6
   17634:	67a6                	ld	a5,72(sp)
   17636:	08000613          	li	a2,128
   1763a:	04c79563          	bne	a5,a2,17684 <_vfiprintf_r+0x570>
   1763e:	419a883b          	subw	a6,s5,s9
   17642:	05005163          	blez	a6,17684 <_vfiprintf_r+0x570>
   17646:	4341                	li	t1,16
   17648:	4e1d                	li	t3,7
   1764a:	45aa                	lw	a1,136(sp)
   1764c:	77a2                	ld	a5,40(sp)
   1764e:	664a                	ld	a2,144(sp)
   17650:	0015851b          	addiw	a0,a1,1
   17654:	00fdb023          	sd	a5,0(s11)
   17658:	85aa                	mv	a1,a0
   1765a:	010d8893          	addi	a7,s11,16
   1765e:	25034a63          	blt	t1,a6,178b2 <_vfiprintf_r+0x79e>
   17662:	010db423          	sd	a6,8(s11)
   17666:	9832                	add	a6,a6,a2
   17668:	e942                	sd	a6,144(sp)
   1766a:	c52a                	sw	a0,136(sp)
   1766c:	461d                	li	a2,7
   1766e:	8dc6                	mv	s11,a7
   17670:	00a65a63          	ble	a0,a2,17684 <_vfiprintf_r+0x570>
   17674:	0110                	addi	a2,sp,128
   17676:	85a6                	mv	a1,s1
   17678:	854a                	mv	a0,s2
   1767a:	9fdff0ef          	jal	ra,17076 <__sprint_r>
   1767e:	2c051363          	bnez	a0,17944 <_vfiprintf_r+0x830>
   17682:	8dda                	mv	s11,s6
   17684:	408a0a3b          	subw	s4,s4,s0
   17688:	05405163          	blez	s4,176ca <_vfiprintf_r+0x5b6>
   1768c:	48c1                	li	a7,16
   1768e:	431d                	li	t1,7
   17690:	45aa                	lw	a1,136(sp)
   17692:	77a2                	ld	a5,40(sp)
   17694:	664a                	ld	a2,144(sp)
   17696:	0015851b          	addiw	a0,a1,1
   1769a:	00fdb023          	sd	a5,0(s11)
   1769e:	85aa                	mv	a1,a0
   176a0:	010d8813          	addi	a6,s11,16
   176a4:	2348ce63          	blt	a7,s4,178e0 <_vfiprintf_r+0x7cc>
   176a8:	014db423          	sd	s4,8(s11)
   176ac:	9a32                	add	s4,s4,a2
   176ae:	e952                	sd	s4,144(sp)
   176b0:	c52a                	sw	a0,136(sp)
   176b2:	461d                	li	a2,7
   176b4:	8dc2                	mv	s11,a6
   176b6:	00a65a63          	ble	a0,a2,176ca <_vfiprintf_r+0x5b6>
   176ba:	0110                	addi	a2,sp,128
   176bc:	85a6                	mv	a1,s1
   176be:	854a                	mv	a0,s2
   176c0:	9b7ff0ef          	jal	ra,17076 <__sprint_r>
   176c4:	28051063          	bnez	a0,17944 <_vfiprintf_r+0x830>
   176c8:	8dda                	mv	s11,s6
   176ca:	66ca                	ld	a3,144(sp)
   176cc:	008db423          	sd	s0,8(s11)
   176d0:	018db023          	sd	s8,0(s11)
   176d4:	9436                	add	s0,s0,a3
   176d6:	46aa                	lw	a3,136(sp)
   176d8:	e922                	sd	s0,144(sp)
   176da:	010d8713          	addi	a4,s11,16
   176de:	0016861b          	addiw	a2,a3,1
   176e2:	c532                	sw	a2,136(sp)
   176e4:	469d                	li	a3,7
   176e6:	00c6da63          	ble	a2,a3,176fa <_vfiprintf_r+0x5e6>
   176ea:	0110                	addi	a2,sp,128
   176ec:	85a6                	mv	a1,s1
   176ee:	854a                	mv	a0,s2
   176f0:	987ff0ef          	jal	ra,17076 <__sprint_r>
   176f4:	24051863          	bnez	a0,17944 <_vfiprintf_r+0x830>
   176f8:	875a                	mv	a4,s6
   176fa:	004d7793          	andi	a5,s10,4
   176fe:	20079663          	bnez	a5,1790a <_vfiprintf_r+0x7f6>
   17702:	87d6                	mv	a5,s5
   17704:	019ad363          	ble	s9,s5,1770a <_vfiprintf_r+0x5f6>
   17708:	87e6                	mv	a5,s9
   1770a:	01778bbb          	addw	s7,a5,s7
   1770e:	67ca                	ld	a5,144(sp)
   17710:	cb81                	beqz	a5,17720 <_vfiprintf_r+0x60c>
   17712:	0110                	addi	a2,sp,128
   17714:	85a6                	mv	a1,s1
   17716:	854a                	mv	a0,s2
   17718:	95fff0ef          	jal	ra,17076 <__sprint_r>
   1771c:	22051463          	bnez	a0,17944 <_vfiprintf_r+0x830>
   17720:	c502                	sw	zero,136(sp)
   17722:	6a22                	ld	s4,8(sp)
   17724:	8dda                	mv	s11,s6
   17726:	b4e1                	j	171ee <_vfiprintf_r+0xda>
   17728:	8562                	mv	a0,s8
   1772a:	ec2f90ef          	jal	ra,10dec <strlen>
   1772e:	0005041b          	sext.w	s0,a0
   17732:	4a01                	li	s4,0
   17734:	bd39                	j	17552 <_vfiprintf_r+0x43e>
   17736:	010d6d13          	ori	s10,s10,16
   1773a:	008a0793          	addi	a5,s4,8
   1773e:	e43e                	sd	a5,8(sp)
   17740:	020d7693          	andi	a3,s10,32
   17744:	c689                	beqz	a3,1774e <_vfiprintf_r+0x63a>
   17746:	000a3a03          	ld	s4,0(s4)
   1774a:	4605                	li	a2,1
   1774c:	bb35                	j	17488 <_vfiprintf_r+0x374>
   1774e:	010d7693          	andi	a3,s10,16
   17752:	faf5                	bnez	a3,17746 <_vfiprintf_r+0x632>
   17754:	040d7693          	andi	a3,s10,64
   17758:	000a2a03          	lw	s4,0(s4)
   1775c:	c689                	beqz	a3,17766 <_vfiprintf_r+0x652>
   1775e:	1a42                	slli	s4,s4,0x30
   17760:	030a5a13          	srli	s4,s4,0x30
   17764:	b7dd                	j	1774a <_vfiprintf_r+0x636>
   17766:	200d7693          	andi	a3,s10,512
   1776a:	c681                	beqz	a3,17772 <_vfiprintf_r+0x65e>
   1776c:	0ffa7a13          	andi	s4,s4,255
   17770:	bfe9                	j	1774a <_vfiprintf_r+0x636>
   17772:	1a02                	slli	s4,s4,0x20
   17774:	020a5a13          	srli	s4,s4,0x20
   17778:	bfc9                	j	1774a <_vfiprintf_r+0x636>
   1777a:	0001a637          	lui	a2,0x1a
   1777e:	25060793          	addi	a5,a2,592 # 1a250 <zeroes.4441+0x60>
   17782:	b611                	j	17286 <_vfiprintf_r+0x172>
   17784:	010d7613          	andi	a2,s10,16
   17788:	b00617e3          	bnez	a2,17296 <_vfiprintf_r+0x182>
   1778c:	040d7613          	andi	a2,s10,64
   17790:	000a2a03          	lw	s4,0(s4)
   17794:	c609                	beqz	a2,1779e <_vfiprintf_r+0x68a>
   17796:	1a42                	slli	s4,s4,0x30
   17798:	030a5a13          	srli	s4,s4,0x30
   1779c:	bcfd                	j	1729a <_vfiprintf_r+0x186>
   1779e:	200d7613          	andi	a2,s10,512
   177a2:	c601                	beqz	a2,177aa <_vfiprintf_r+0x696>
   177a4:	0ffa7a13          	andi	s4,s4,255
   177a8:	bccd                	j	1729a <_vfiprintf_r+0x186>
   177aa:	1a02                	slli	s4,s4,0x20
   177ac:	020a5a13          	srli	s4,s4,0x20
   177b0:	b4ed                	j	1729a <_vfiprintf_r+0x186>
   177b2:	85ea                	mv	a1,s10
   177b4:	4605                	li	a2,1
   177b6:	f7fd7d13          	andi	s10,s10,-129
   177ba:	cc0a1de3          	bnez	s4,17494 <_vfiprintf_r+0x380>
   177be:	cc59                	beqz	s0,1785c <_vfiprintf_r+0x748>
   177c0:	4685                	li	a3,1
   177c2:	ccd61ce3          	bne	a2,a3,1749a <_vfiprintf_r+0x386>
   177c6:	b181                	j	17406 <_vfiprintf_r+0x2f2>
   177c8:	8662                	mv	a2,s8
   177ca:	b9e1                	j	174a2 <_vfiprintf_r+0x38e>
   177cc:	400d7c93          	andi	s9,s10,1024
   177d0:	4601                	li	a2,0
   177d2:	19ec                	addi	a1,sp,252
   177d4:	4829                	li	a6,10
   177d6:	2c81                	sext.w	s9,s9
   177d8:	0ff00893          	li	a7,255
   177dc:	4325                	li	t1,9
   177de:	030a7533          	remu	a0,s4,a6
   177e2:	fff58c13          	addi	s8,a1,-1
   177e6:	2605                	addiw	a2,a2,1
   177e8:	0305051b          	addiw	a0,a0,48
   177ec:	fea58fa3          	sb	a0,-1(a1)
   177f0:	040c8063          	beqz	s9,17830 <_vfiprintf_r+0x71c>
   177f4:	67c2                	ld	a5,16(sp)
   177f6:	0007c583          	lbu	a1,0(a5)
   177fa:	02c59b63          	bne	a1,a2,17830 <_vfiprintf_r+0x71c>
   177fe:	03158963          	beq	a1,a7,17830 <_vfiprintf_r+0x71c>
   17802:	03437763          	bleu	s4,t1,17830 <_vfiprintf_r+0x71c>
   17806:	67e2                	ld	a5,24(sp)
   17808:	75e2                	ld	a1,56(sp)
   1780a:	ec9a                	sd	t1,88(sp)
   1780c:	40fc0c33          	sub	s8,s8,a5
   17810:	863e                	mv	a2,a5
   17812:	8562                	mv	a0,s8
   17814:	e4c6                	sd	a7,72(sp)
   17816:	e0c2                	sd	a6,64(sp)
   17818:	abcfe0ef          	jal	ra,15ad4 <strncpy>
   1781c:	67c2                	ld	a5,16(sp)
   1781e:	4601                	li	a2,0
   17820:	6806                	ld	a6,64(sp)
   17822:	0017c583          	lbu	a1,1(a5)
   17826:	68a6                	ld	a7,72(sp)
   17828:	6366                	ld	t1,88(sp)
   1782a:	c199                	beqz	a1,17830 <_vfiprintf_r+0x71c>
   1782c:	0785                	addi	a5,a5,1
   1782e:	e83e                	sd	a5,16(sp)
   17830:	030a5a33          	divu	s4,s4,a6
   17834:	c80a0ee3          	beqz	s4,174d0 <_vfiprintf_r+0x3bc>
   17838:	85e2                	mv	a1,s8
   1783a:	b755                	j	177de <_vfiprintf_r+0x6ca>
   1783c:	0fc10c13          	addi	s8,sp,252
   17840:	7782                	ld	a5,32(sp)
   17842:	00fa7613          	andi	a2,s4,15
   17846:	1c7d                	addi	s8,s8,-1
   17848:	963e                	add	a2,a2,a5
   1784a:	00064603          	lbu	a2,0(a2)
   1784e:	004a5a13          	srli	s4,s4,0x4
   17852:	00cc0023          	sb	a2,0(s8)
   17856:	fe0a15e3          	bnez	s4,17840 <_vfiprintf_r+0x72c>
   1785a:	b99d                	j	174d0 <_vfiprintf_r+0x3bc>
   1785c:	0fc10c13          	addi	s8,sp,252
   17860:	c60618e3          	bnez	a2,174d0 <_vfiprintf_r+0x3bc>
   17864:	8985                	andi	a1,a1,1
   17866:	c60585e3          	beqz	a1,174d0 <_vfiprintf_r+0x3bc>
   1786a:	03000693          	li	a3,48
   1786e:	0ed10da3          	sb	a3,251(sp)
   17872:	be71                	j	1740e <_vfiprintf_r+0x2fa>
   17874:	10068263          	beqz	a3,17978 <_vfiprintf_r+0x864>
   17878:	08d10c23          	sb	a3,152(sp)
   1787c:	06010ba3          	sb	zero,119(sp)
   17880:	e452                	sd	s4,8(sp)
   17882:	b6a9                	j	173cc <_vfiprintf_r+0x2b8>
   17884:	0641                	addi	a2,a2,16
   17886:	006db423          	sd	t1,8(s11)
   1788a:	e932                	sd	a2,144(sp)
   1788c:	c52e                	sw	a1,136(sp)
   1788e:	00ae5f63          	ble	a0,t3,178ac <_vfiprintf_r+0x798>
   17892:	0110                	addi	a2,sp,128
   17894:	85a6                	mv	a1,s1
   17896:	854a                	mv	a0,s2
   17898:	f4f2                	sd	t3,104(sp)
   1789a:	f09a                	sd	t1,96(sp)
   1789c:	ecc2                	sd	a6,88(sp)
   1789e:	fd8ff0ef          	jal	ra,17076 <__sprint_r>
   178a2:	e14d                	bnez	a0,17944 <_vfiprintf_r+0x830>
   178a4:	7e26                	ld	t3,104(sp)
   178a6:	7306                	ld	t1,96(sp)
   178a8:	6866                	ld	a6,88(sp)
   178aa:	88da                	mv	a7,s6
   178ac:	3841                	addiw	a6,a6,-16
   178ae:	8dc6                	mv	s11,a7
   178b0:	b9e9                	j	1758a <_vfiprintf_r+0x476>
   178b2:	0641                	addi	a2,a2,16
   178b4:	006db423          	sd	t1,8(s11)
   178b8:	e932                	sd	a2,144(sp)
   178ba:	c52e                	sw	a1,136(sp)
   178bc:	00ae5f63          	ble	a0,t3,178da <_vfiprintf_r+0x7c6>
   178c0:	0110                	addi	a2,sp,128
   178c2:	85a6                	mv	a1,s1
   178c4:	854a                	mv	a0,s2
   178c6:	ecf2                	sd	t3,88(sp)
   178c8:	e49a                	sd	t1,72(sp)
   178ca:	e0c2                	sd	a6,64(sp)
   178cc:	faaff0ef          	jal	ra,17076 <__sprint_r>
   178d0:	e935                	bnez	a0,17944 <_vfiprintf_r+0x830>
   178d2:	6e66                	ld	t3,88(sp)
   178d4:	6326                	ld	t1,72(sp)
   178d6:	6806                	ld	a6,64(sp)
   178d8:	88da                	mv	a7,s6
   178da:	3841                	addiw	a6,a6,-16
   178dc:	8dc6                	mv	s11,a7
   178de:	b3b5                	j	1764a <_vfiprintf_r+0x536>
   178e0:	0641                	addi	a2,a2,16
   178e2:	011db423          	sd	a7,8(s11)
   178e6:	e932                	sd	a2,144(sp)
   178e8:	c52e                	sw	a1,136(sp)
   178ea:	00a35d63          	ble	a0,t1,17904 <_vfiprintf_r+0x7f0>
   178ee:	0110                	addi	a2,sp,128
   178f0:	85a6                	mv	a1,s1
   178f2:	854a                	mv	a0,s2
   178f4:	e49a                	sd	t1,72(sp)
   178f6:	e0c6                	sd	a7,64(sp)
   178f8:	f7eff0ef          	jal	ra,17076 <__sprint_r>
   178fc:	e521                	bnez	a0,17944 <_vfiprintf_r+0x830>
   178fe:	6326                	ld	t1,72(sp)
   17900:	6886                	ld	a7,64(sp)
   17902:	885a                	mv	a6,s6
   17904:	3a41                	addiw	s4,s4,-16
   17906:	8dc2                	mv	s11,a6
   17908:	b361                	j	17690 <_vfiprintf_r+0x57c>
   1790a:	419a843b          	subw	s0,s5,s9
   1790e:	de805ae3          	blez	s0,17702 <_vfiprintf_r+0x5ee>
   17912:	4a41                	li	s4,16
   17914:	4d1d                	li	s10,7
   17916:	46aa                	lw	a3,136(sp)
   17918:	67ca                	ld	a5,144(sp)
   1791a:	0016861b          	addiw	a2,a3,1
   1791e:	86b2                	mv	a3,a2
   17920:	028a4963          	blt	s4,s0,17952 <_vfiprintf_r+0x83e>
   17924:	76c2                	ld	a3,48(sp)
   17926:	e700                	sd	s0,8(a4)
   17928:	943e                	add	s0,s0,a5
   1792a:	e314                	sd	a3,0(a4)
   1792c:	e922                	sd	s0,144(sp)
   1792e:	c532                	sw	a2,136(sp)
   17930:	479d                	li	a5,7
   17932:	dcc7d8e3          	ble	a2,a5,17702 <_vfiprintf_r+0x5ee>
   17936:	0110                	addi	a2,sp,128
   17938:	85a6                	mv	a1,s1
   1793a:	854a                	mv	a0,s2
   1793c:	f3aff0ef          	jal	ra,17076 <__sprint_r>
   17940:	dc0501e3          	beqz	a0,17702 <_vfiprintf_r+0x5ee>
   17944:	0104d783          	lhu	a5,16(s1)
   17948:	0407f793          	andi	a5,a5,64
   1794c:	840783e3          	beqz	a5,17192 <_vfiprintf_r+0x7e>
   17950:	b0b5                	j	171bc <_vfiprintf_r+0xa8>
   17952:	75c2                	ld	a1,48(sp)
   17954:	07c1                	addi	a5,a5,16
   17956:	01473423          	sd	s4,8(a4)
   1795a:	e30c                	sd	a1,0(a4)
   1795c:	e93e                	sd	a5,144(sp)
   1795e:	c536                	sw	a3,136(sp)
   17960:	0741                	addi	a4,a4,16
   17962:	00cd5963          	ble	a2,s10,17974 <_vfiprintf_r+0x860>
   17966:	0110                	addi	a2,sp,128
   17968:	85a6                	mv	a1,s1
   1796a:	854a                	mv	a0,s2
   1796c:	f0aff0ef          	jal	ra,17076 <__sprint_r>
   17970:	f971                	bnez	a0,17944 <_vfiprintf_r+0x830>
   17972:	875a                	mv	a4,s6
   17974:	3441                	addiw	s0,s0,-16
   17976:	b745                	j	17916 <_vfiprintf_r+0x802>
   17978:	67ca                	ld	a5,144(sp)
   1797a:	d7e9                	beqz	a5,17944 <_vfiprintf_r+0x830>
   1797c:	0110                	addi	a2,sp,128
   1797e:	85a6                	mv	a1,s1
   17980:	854a                	mv	a0,s2
   17982:	ef4ff0ef          	jal	ra,17076 <__sprint_r>
   17986:	bf7d                	j	17944 <_vfiprintf_r+0x830>

0000000000017988 <vfiprintf>:
   17988:	86b2                	mv	a3,a2
   1798a:	862e                	mv	a2,a1
   1798c:	85aa                	mv	a1,a0
   1798e:	8381b503          	ld	a0,-1992(gp) # 1ceb0 <_impure_ptr>
   17992:	f82ff06f          	j	17114 <_vfiprintf_r>

0000000000017996 <__sbprintf>:
   17996:	0105d783          	lhu	a5,16(a1)
   1799a:	b3010113          	addi	sp,sp,-1232
   1799e:	4c813023          	sd	s0,1216(sp)
   179a2:	9bf5                	andi	a5,a5,-3
   179a4:	00f11823          	sh	a5,16(sp)
   179a8:	0ac5a783          	lw	a5,172(a1)
   179ac:	842e                	mv	s0,a1
   179ae:	4a913c23          	sd	s1,1208(sp)
   179b2:	d73e                	sw	a5,172(sp)
   179b4:	0125d783          	lhu	a5,18(a1)
   179b8:	4b213823          	sd	s2,1200(sp)
   179bc:	4c113423          	sd	ra,1224(sp)
   179c0:	00f11923          	sh	a5,18(sp)
   179c4:	799c                	ld	a5,48(a1)
   179c6:	892a                	mv	s2,a0
   179c8:	d402                	sw	zero,40(sp)
   179ca:	f83e                	sd	a5,48(sp)
   179cc:	61bc                	ld	a5,64(a1)
   179ce:	858a                	mv	a1,sp
   179d0:	e0be                	sd	a5,64(sp)
   179d2:	191c                	addi	a5,sp,176
   179d4:	e03e                	sd	a5,0(sp)
   179d6:	ec3e                	sd	a5,24(sp)
   179d8:	40000793          	li	a5,1024
   179dc:	c63e                	sw	a5,12(sp)
   179de:	d03e                	sw	a5,32(sp)
   179e0:	f34ff0ef          	jal	ra,17114 <_vfiprintf_r>
   179e4:	84aa                	mv	s1,a0
   179e6:	00054863          	bltz	a0,179f6 <__sbprintf+0x60>
   179ea:	858a                	mv	a1,sp
   179ec:	854a                	mv	a0,s2
   179ee:	da9fa0ef          	jal	ra,12796 <_fflush_r>
   179f2:	c111                	beqz	a0,179f6 <__sbprintf+0x60>
   179f4:	54fd                	li	s1,-1
   179f6:	01015783          	lhu	a5,16(sp)
   179fa:	0407f793          	andi	a5,a5,64
   179fe:	c799                	beqz	a5,17a0c <__sbprintf+0x76>
   17a00:	01045783          	lhu	a5,16(s0)
   17a04:	0407e793          	ori	a5,a5,64
   17a08:	00f41823          	sh	a5,16(s0)
   17a0c:	4c813083          	ld	ra,1224(sp)
   17a10:	4c013403          	ld	s0,1216(sp)
   17a14:	8526                	mv	a0,s1
   17a16:	4b013903          	ld	s2,1200(sp)
   17a1a:	4b813483          	ld	s1,1208(sp)
   17a1e:	4d010113          	addi	sp,sp,1232
   17a22:	8082                	ret

0000000000017a24 <_wctomb_r>:
   17a24:	8381b783          	ld	a5,-1992(gp) # 1ceb0 <_impure_ptr>
   17a28:	67bc                	ld	a5,72(a5)
   17a2a:	e781                	bnez	a5,17a32 <_wctomb_r+0xe>
   17a2c:	67f5                	lui	a5,0x1d
   17a2e:	cd078793          	addi	a5,a5,-816 # 1ccd0 <__global_locale>
   17a32:	0e07b303          	ld	t1,224(a5)
   17a36:	8302                	jr	t1

0000000000017a38 <__ascii_wctomb>:
   17a38:	cd91                	beqz	a1,17a54 <__ascii_wctomb+0x1c>
   17a3a:	0ff00793          	li	a5,255
   17a3e:	00c7f763          	bleu	a2,a5,17a4c <__ascii_wctomb+0x14>
   17a42:	08a00793          	li	a5,138
   17a46:	c11c                	sw	a5,0(a0)
   17a48:	557d                	li	a0,-1
   17a4a:	8082                	ret
   17a4c:	00c58023          	sb	a2,0(a1)
   17a50:	4505                	li	a0,1
   17a52:	8082                	ret
   17a54:	4501                	li	a0,0
   17a56:	8082                	ret

0000000000017a58 <_write_r>:
   17a58:	1101                	addi	sp,sp,-32
   17a5a:	e822                	sd	s0,16(sp)
   17a5c:	e426                	sd	s1,8(sp)
   17a5e:	84aa                	mv	s1,a0
   17a60:	852e                	mv	a0,a1
   17a62:	85b2                	mv	a1,a2
   17a64:	8636                	mv	a2,a3
   17a66:	ec06                	sd	ra,24(sp)
   17a68:	8e01a423          	sw	zero,-1816(gp) # 1cf60 <errno>
   17a6c:	76b000ef          	jal	ra,189d6 <_write>
   17a70:	57fd                	li	a5,-1
   17a72:	00f51663          	bne	a0,a5,17a7e <_write_r+0x26>
   17a76:	8e81a783          	lw	a5,-1816(gp) # 1cf60 <errno>
   17a7a:	c391                	beqz	a5,17a7e <_write_r+0x26>
   17a7c:	c09c                	sw	a5,0(s1)
   17a7e:	60e2                	ld	ra,24(sp)
   17a80:	6442                	ld	s0,16(sp)
   17a82:	64a2                	ld	s1,8(sp)
   17a84:	6105                	addi	sp,sp,32
   17a86:	8082                	ret

0000000000017a88 <_calloc_r>:
   17a88:	02c585b3          	mul	a1,a1,a2
   17a8c:	1141                	addi	sp,sp,-16
   17a8e:	e022                	sd	s0,0(sp)
   17a90:	e406                	sd	ra,8(sp)
   17a92:	c13f80ef          	jal	ra,106a4 <_malloc_r>
   17a96:	842a                	mv	s0,a0
   17a98:	cd15                	beqz	a0,17ad4 <_calloc_r+0x4c>
   17a9a:	ff853603          	ld	a2,-8(a0)
   17a9e:	04800713          	li	a4,72
   17aa2:	9a71                	andi	a2,a2,-4
   17aa4:	1661                	addi	a2,a2,-8
   17aa6:	04c76b63          	bltu	a4,a2,17afc <_calloc_r+0x74>
   17aaa:	02700693          	li	a3,39
   17aae:	87aa                	mv	a5,a0
   17ab0:	00c6fc63          	bleu	a2,a3,17ac8 <_calloc_r+0x40>
   17ab4:	00053023          	sd	zero,0(a0)
   17ab8:	00053423          	sd	zero,8(a0)
   17abc:	03700793          	li	a5,55
   17ac0:	00c7ef63          	bltu	a5,a2,17ade <_calloc_r+0x56>
   17ac4:	01050793          	addi	a5,a0,16
   17ac8:	0007b023          	sd	zero,0(a5)
   17acc:	0007b423          	sd	zero,8(a5)
   17ad0:	0007b823          	sd	zero,16(a5)
   17ad4:	8522                	mv	a0,s0
   17ad6:	60a2                	ld	ra,8(sp)
   17ad8:	6402                	ld	s0,0(sp)
   17ada:	0141                	addi	sp,sp,16
   17adc:	8082                	ret
   17ade:	00053823          	sd	zero,16(a0)
   17ae2:	00053c23          	sd	zero,24(a0)
   17ae6:	02050793          	addi	a5,a0,32
   17aea:	fce61fe3          	bne	a2,a4,17ac8 <_calloc_r+0x40>
   17aee:	02053023          	sd	zero,32(a0)
   17af2:	03050793          	addi	a5,a0,48
   17af6:	02053423          	sd	zero,40(a0)
   17afa:	b7f9                	j	17ac8 <_calloc_r+0x40>
   17afc:	4581                	li	a1,0
   17afe:	944f90ef          	jal	ra,10c42 <memset>
   17b02:	bfc9                	j	17ad4 <_calloc_r+0x4c>

0000000000017b04 <_close_r>:
   17b04:	1101                	addi	sp,sp,-32
   17b06:	e822                	sd	s0,16(sp)
   17b08:	e426                	sd	s1,8(sp)
   17b0a:	84aa                	mv	s1,a0
   17b0c:	852e                	mv	a0,a1
   17b0e:	ec06                	sd	ra,24(sp)
   17b10:	8e01a423          	sw	zero,-1816(gp) # 1cf60 <errno>
   17b14:	51b000ef          	jal	ra,1882e <_close>
   17b18:	57fd                	li	a5,-1
   17b1a:	00f51663          	bne	a0,a5,17b26 <_close_r+0x22>
   17b1e:	8e81a783          	lw	a5,-1816(gp) # 1cf60 <errno>
   17b22:	c391                	beqz	a5,17b26 <_close_r+0x22>
   17b24:	c09c                	sw	a5,0(s1)
   17b26:	60e2                	ld	ra,24(sp)
   17b28:	6442                	ld	s0,16(sp)
   17b2a:	64a2                	ld	s1,8(sp)
   17b2c:	6105                	addi	sp,sp,32
   17b2e:	8082                	ret

0000000000017b30 <_fclose_r>:
   17b30:	1101                	addi	sp,sp,-32
   17b32:	ec06                	sd	ra,24(sp)
   17b34:	e822                	sd	s0,16(sp)
   17b36:	e426                	sd	s1,8(sp)
   17b38:	e04a                	sd	s2,0(sp)
   17b3a:	e989                	bnez	a1,17b4c <_fclose_r+0x1c>
   17b3c:	4901                	li	s2,0
   17b3e:	60e2                	ld	ra,24(sp)
   17b40:	6442                	ld	s0,16(sp)
   17b42:	854a                	mv	a0,s2
   17b44:	64a2                	ld	s1,8(sp)
   17b46:	6902                	ld	s2,0(sp)
   17b48:	6105                	addi	sp,sp,32
   17b4a:	8082                	ret
   17b4c:	84aa                	mv	s1,a0
   17b4e:	842e                	mv	s0,a1
   17b50:	c509                	beqz	a0,17b5a <_fclose_r+0x2a>
   17b52:	493c                	lw	a5,80(a0)
   17b54:	e399                	bnez	a5,17b5a <_fclose_r+0x2a>
   17b56:	d59fa0ef          	jal	ra,128ae <__sinit>
   17b5a:	01041783          	lh	a5,16(s0)
   17b5e:	dff9                	beqz	a5,17b3c <_fclose_r+0xc>
   17b60:	85a2                	mv	a1,s0
   17b62:	8526                	mv	a0,s1
   17b64:	ad1fa0ef          	jal	ra,12634 <__sflush_r>
   17b68:	683c                	ld	a5,80(s0)
   17b6a:	892a                	mv	s2,a0
   17b6c:	c799                	beqz	a5,17b7a <_fclose_r+0x4a>
   17b6e:	780c                	ld	a1,48(s0)
   17b70:	8526                	mv	a0,s1
   17b72:	9782                	jalr	a5
   17b74:	00055363          	bgez	a0,17b7a <_fclose_r+0x4a>
   17b78:	597d                	li	s2,-1
   17b7a:	01045783          	lhu	a5,16(s0)
   17b7e:	0807f793          	andi	a5,a5,128
   17b82:	c789                	beqz	a5,17b8c <_fclose_r+0x5c>
   17b84:	6c0c                	ld	a1,24(s0)
   17b86:	8526                	mv	a0,s1
   17b88:	ef7fa0ef          	jal	ra,12a7e <_free_r>
   17b8c:	6c2c                	ld	a1,88(s0)
   17b8e:	c991                	beqz	a1,17ba2 <_fclose_r+0x72>
   17b90:	07440793          	addi	a5,s0,116
   17b94:	00f58563          	beq	a1,a5,17b9e <_fclose_r+0x6e>
   17b98:	8526                	mv	a0,s1
   17b9a:	ee5fa0ef          	jal	ra,12a7e <_free_r>
   17b9e:	04043c23          	sd	zero,88(s0)
   17ba2:	7c2c                	ld	a1,120(s0)
   17ba4:	c591                	beqz	a1,17bb0 <_fclose_r+0x80>
   17ba6:	8526                	mv	a0,s1
   17ba8:	ed7fa0ef          	jal	ra,12a7e <_free_r>
   17bac:	06043c23          	sd	zero,120(s0)
   17bb0:	dedfa0ef          	jal	ra,1299c <__sfp_lock_acquire>
   17bb4:	00041823          	sh	zero,16(s0)
   17bb8:	de7fa0ef          	jal	ra,1299e <__sfp_lock_release>
   17bbc:	b749                	j	17b3e <_fclose_r+0xe>

0000000000017bbe <fclose>:
   17bbe:	85aa                	mv	a1,a0
   17bc0:	8381b503          	ld	a0,-1992(gp) # 1ceb0 <_impure_ptr>
   17bc4:	f6dff06f          	j	17b30 <_fclose_r>

0000000000017bc8 <__fputwc>:
   17bc8:	715d                	addi	sp,sp,-80
   17bca:	e0a2                	sd	s0,64(sp)
   17bcc:	fc26                	sd	s1,56(sp)
   17bce:	f052                	sd	s4,32(sp)
   17bd0:	e486                	sd	ra,72(sp)
   17bd2:	f84a                	sd	s2,48(sp)
   17bd4:	f44e                	sd	s3,40(sp)
   17bd6:	ec56                	sd	s5,24(sp)
   17bd8:	e85a                	sd	s6,16(sp)
   17bda:	8a2a                	mv	s4,a0
   17bdc:	84ae                	mv	s1,a1
   17bde:	8432                	mv	s0,a2
   17be0:	ba5fc0ef          	jal	ra,14784 <__locale_mb_cur_max>
   17be4:	4785                	li	a5,1
   17be6:	02f51c63          	bne	a0,a5,17c1e <__fputwc+0x56>
   17bea:	fff4879b          	addiw	a5,s1,-1
   17bee:	0fe00713          	li	a4,254
   17bf2:	02f76663          	bltu	a4,a5,17c1e <__fputwc+0x56>
   17bf6:	00910423          	sb	s1,8(sp)
   17bfa:	4985                	li	s3,1
   17bfc:	4901                	li	s2,0
   17bfe:	5afd                	li	s5,-1
   17c00:	4b29                	li	s6,10
   17c02:	05391163          	bne	s2,s3,17c44 <__fputwc+0x7c>
   17c06:	0004851b          	sext.w	a0,s1
   17c0a:	60a6                	ld	ra,72(sp)
   17c0c:	6406                	ld	s0,64(sp)
   17c0e:	74e2                	ld	s1,56(sp)
   17c10:	7942                	ld	s2,48(sp)
   17c12:	79a2                	ld	s3,40(sp)
   17c14:	7a02                	ld	s4,32(sp)
   17c16:	6ae2                	ld	s5,24(sp)
   17c18:	6b42                	ld	s6,16(sp)
   17c1a:	6161                	addi	sp,sp,80
   17c1c:	8082                	ret
   17c1e:	0a440693          	addi	a3,s0,164
   17c22:	8626                	mv	a2,s1
   17c24:	002c                	addi	a1,sp,8
   17c26:	8552                	mv	a0,s4
   17c28:	3a9000ef          	jal	ra,187d0 <_wcrtomb_r>
   17c2c:	57fd                	li	a5,-1
   17c2e:	89aa                	mv	s3,a0
   17c30:	fcf516e3          	bne	a0,a5,17bfc <__fputwc+0x34>
   17c34:	01045783          	lhu	a5,16(s0)
   17c38:	0407e793          	ori	a5,a5,64
   17c3c:	00f41823          	sh	a5,16(s0)
   17c40:	557d                	li	a0,-1
   17c42:	b7e1                	j	17c0a <__fputwc+0x42>
   17c44:	003c                	addi	a5,sp,8
   17c46:	97ca                	add	a5,a5,s2
   17c48:	0007c583          	lbu	a1,0(a5)
   17c4c:	445c                	lw	a5,12(s0)
   17c4e:	fff7871b          	addiw	a4,a5,-1
   17c52:	c458                	sw	a4,12(s0)
   17c54:	00075763          	bgez	a4,17c62 <__fputwc+0x9a>
   17c58:	541c                	lw	a5,40(s0)
   17c5a:	00f74c63          	blt	a4,a5,17c72 <__fputwc+0xaa>
   17c5e:	01658a63          	beq	a1,s6,17c72 <__fputwc+0xaa>
   17c62:	601c                	ld	a5,0(s0)
   17c64:	00178713          	addi	a4,a5,1
   17c68:	e018                	sd	a4,0(s0)
   17c6a:	00b78023          	sb	a1,0(a5)
   17c6e:	0905                	addi	s2,s2,1
   17c70:	bf49                	j	17c02 <__fputwc+0x3a>
   17c72:	8622                	mv	a2,s0
   17c74:	8552                	mv	a0,s4
   17c76:	293000ef          	jal	ra,18708 <__swbuf_r>
   17c7a:	ff551ae3          	bne	a0,s5,17c6e <__fputwc+0xa6>
   17c7e:	b7c9                	j	17c40 <__fputwc+0x78>

0000000000017c80 <_fputwc_r>:
   17c80:	01061783          	lh	a5,16(a2)
   17c84:	03279713          	slli	a4,a5,0x32
   17c88:	00074c63          	bltz	a4,17ca0 <_fputwc_r+0x20>
   17c8c:	0ac62703          	lw	a4,172(a2)
   17c90:	6689                	lui	a3,0x2
   17c92:	8fd5                	or	a5,a5,a3
   17c94:	00f61823          	sh	a5,16(a2)
   17c98:	6789                	lui	a5,0x2
   17c9a:	8fd9                	or	a5,a5,a4
   17c9c:	0af62623          	sw	a5,172(a2)
   17ca0:	f29ff06f          	j	17bc8 <__fputwc>

0000000000017ca4 <fputwc>:
   17ca4:	7179                	addi	sp,sp,-48
   17ca6:	f022                	sd	s0,32(sp)
   17ca8:	8381b403          	ld	s0,-1992(gp) # 1ceb0 <_impure_ptr>
   17cac:	ec26                	sd	s1,24(sp)
   17cae:	f406                	sd	ra,40(sp)
   17cb0:	84aa                	mv	s1,a0
   17cb2:	862e                	mv	a2,a1
   17cb4:	c801                	beqz	s0,17cc4 <fputwc+0x20>
   17cb6:	483c                	lw	a5,80(s0)
   17cb8:	e791                	bnez	a5,17cc4 <fputwc+0x20>
   17cba:	8522                	mv	a0,s0
   17cbc:	e42e                	sd	a1,8(sp)
   17cbe:	bf1fa0ef          	jal	ra,128ae <__sinit>
   17cc2:	6622                	ld	a2,8(sp)
   17cc4:	8522                	mv	a0,s0
   17cc6:	7402                	ld	s0,32(sp)
   17cc8:	70a2                	ld	ra,40(sp)
   17cca:	85a6                	mv	a1,s1
   17ccc:	64e2                	ld	s1,24(sp)
   17cce:	6145                	addi	sp,sp,48
   17cd0:	fb1ff06f          	j	17c80 <_fputwc_r>

0000000000017cd4 <_fstat_r>:
   17cd4:	1101                	addi	sp,sp,-32
   17cd6:	e822                	sd	s0,16(sp)
   17cd8:	e426                	sd	s1,8(sp)
   17cda:	84aa                	mv	s1,a0
   17cdc:	852e                	mv	a0,a1
   17cde:	85b2                	mv	a1,a2
   17ce0:	ec06                	sd	ra,24(sp)
   17ce2:	8e01a423          	sw	zero,-1816(gp) # 1cf60 <errno>
   17ce6:	3ab000ef          	jal	ra,18890 <_fstat>
   17cea:	57fd                	li	a5,-1
   17cec:	00f51663          	bne	a0,a5,17cf8 <_fstat_r+0x24>
   17cf0:	8e81a783          	lw	a5,-1816(gp) # 1cf60 <errno>
   17cf4:	c391                	beqz	a5,17cf8 <_fstat_r+0x24>
   17cf6:	c09c                	sw	a5,0(s1)
   17cf8:	60e2                	ld	ra,24(sp)
   17cfa:	6442                	ld	s0,16(sp)
   17cfc:	64a2                	ld	s1,8(sp)
   17cfe:	6105                	addi	sp,sp,32
   17d00:	8082                	ret

0000000000017d02 <_isatty_r>:
   17d02:	1101                	addi	sp,sp,-32
   17d04:	e822                	sd	s0,16(sp)
   17d06:	e426                	sd	s1,8(sp)
   17d08:	84aa                	mv	s1,a0
   17d0a:	852e                	mv	a0,a1
   17d0c:	ec06                	sd	ra,24(sp)
   17d0e:	8e01a423          	sw	zero,-1816(gp) # 1cf60 <errno>
   17d12:	3c3000ef          	jal	ra,188d4 <_isatty>
   17d16:	57fd                	li	a5,-1
   17d18:	00f51663          	bne	a0,a5,17d24 <_isatty_r+0x22>
   17d1c:	8e81a783          	lw	a5,-1816(gp) # 1cf60 <errno>
   17d20:	c391                	beqz	a5,17d24 <_isatty_r+0x22>
   17d22:	c09c                	sw	a5,0(s1)
   17d24:	60e2                	ld	ra,24(sp)
   17d26:	6442                	ld	s0,16(sp)
   17d28:	64a2                	ld	s1,8(sp)
   17d2a:	6105                	addi	sp,sp,32
   17d2c:	8082                	ret

0000000000017d2e <_lseek_r>:
   17d2e:	1101                	addi	sp,sp,-32
   17d30:	e822                	sd	s0,16(sp)
   17d32:	e426                	sd	s1,8(sp)
   17d34:	84aa                	mv	s1,a0
   17d36:	852e                	mv	a0,a1
   17d38:	85b2                	mv	a1,a2
   17d3a:	8636                	mv	a2,a3
   17d3c:	ec06                	sd	ra,24(sp)
   17d3e:	8e01a423          	sw	zero,-1816(gp) # 1cf60 <errno>
   17d42:	3b1000ef          	jal	ra,188f2 <_lseek>
   17d46:	57fd                	li	a5,-1
   17d48:	00f51663          	bne	a0,a5,17d54 <_lseek_r+0x26>
   17d4c:	8e81a783          	lw	a5,-1816(gp) # 1cf60 <errno>
   17d50:	c391                	beqz	a5,17d54 <_lseek_r+0x26>
   17d52:	c09c                	sw	a5,0(s1)
   17d54:	60e2                	ld	ra,24(sp)
   17d56:	6442                	ld	s0,16(sp)
   17d58:	64a2                	ld	s1,8(sp)
   17d5a:	6105                	addi	sp,sp,32
   17d5c:	8082                	ret

0000000000017d5e <_read_r>:
   17d5e:	1101                	addi	sp,sp,-32
   17d60:	e822                	sd	s0,16(sp)
   17d62:	e426                	sd	s1,8(sp)
   17d64:	84aa                	mv	s1,a0
   17d66:	852e                	mv	a0,a1
   17d68:	85b2                	mv	a1,a2
   17d6a:	8636                	mv	a2,a3
   17d6c:	ec06                	sd	ra,24(sp)
   17d6e:	8e01a423          	sw	zero,-1816(gp) # 1cf60 <errno>
   17d72:	3b1000ef          	jal	ra,18922 <_read>
   17d76:	57fd                	li	a5,-1
   17d78:	00f51663          	bne	a0,a5,17d84 <_read_r+0x26>
   17d7c:	8e81a783          	lw	a5,-1816(gp) # 1cf60 <errno>
   17d80:	c391                	beqz	a5,17d84 <_read_r+0x26>
   17d82:	c09c                	sw	a5,0(s1)
   17d84:	60e2                	ld	ra,24(sp)
   17d86:	6442                	ld	s0,16(sp)
   17d88:	64a2                	ld	s1,8(sp)
   17d8a:	6105                	addi	sp,sp,32
   17d8c:	8082                	ret

0000000000017d8e <__ssprint_r>:
   17d8e:	6a1c                	ld	a5,16(a2)
   17d90:	711d                	addi	sp,sp,-96
   17d92:	fc4e                	sd	s3,56(sp)
   17d94:	ec86                	sd	ra,88(sp)
   17d96:	e8a2                	sd	s0,80(sp)
   17d98:	e4a6                	sd	s1,72(sp)
   17d9a:	e0ca                	sd	s2,64(sp)
   17d9c:	f852                	sd	s4,48(sp)
   17d9e:	f456                	sd	s5,40(sp)
   17da0:	f05a                	sd	s6,32(sp)
   17da2:	ec5e                	sd	s7,24(sp)
   17da4:	e862                	sd	s8,16(sp)
   17da6:	e466                	sd	s9,8(sp)
   17da8:	e06a                	sd	s10,0(sp)
   17daa:	89b2                	mv	s3,a2
   17dac:	c7fd                	beqz	a5,17e9a <__ssprint_r+0x10c>
   17dae:	00063b03          	ld	s6,0(a2)
   17db2:	8a2a                	mv	s4,a0
   17db4:	842e                	mv	s0,a1
   17db6:	4a81                	li	s5,0
   17db8:	4901                	li	s2,0
   17dba:	4b8d                	li	s7,3
   17dbc:	4c09                	li	s8,2
   17dbe:	06090663          	beqz	s2,17e2a <__ssprint_r+0x9c>
   17dc2:	00c42d03          	lw	s10,12(s0)
   17dc6:	09a96f63          	bltu	s2,s10,17e64 <__ssprint_r+0xd6>
   17dca:	01045703          	lhu	a4,16(s0)
   17dce:	48077793          	andi	a5,a4,1152
   17dd2:	cbc9                	beqz	a5,17e64 <__ssprint_r+0xd6>
   17dd4:	5004                	lw	s1,32(s0)
   17dd6:	6c0c                	ld	a1,24(s0)
   17dd8:	601c                	ld	a5,0(s0)
   17dda:	029b84bb          	mulw	s1,s7,s1
   17dde:	8f8d                	sub	a5,a5,a1
   17de0:	00078c9b          	sext.w	s9,a5
   17de4:	001c8693          	addi	a3,s9,1
   17de8:	96ca                	add	a3,a3,s2
   17dea:	0384c4bb          	divw	s1,s1,s8
   17dee:	00d4f663          	bleu	a3,s1,17dfa <__ssprint_r+0x6c>
   17df2:	0017849b          	addiw	s1,a5,1
   17df6:	012484bb          	addw	s1,s1,s2
   17dfa:	40077713          	andi	a4,a4,1024
   17dfe:	cf5d                	beqz	a4,17ebc <__ssprint_r+0x12e>
   17e00:	85a6                	mv	a1,s1
   17e02:	8552                	mv	a0,s4
   17e04:	8a1f80ef          	jal	ra,106a4 <_malloc_r>
   17e08:	8d2a                	mv	s10,a0
   17e0a:	e515                	bnez	a0,17e36 <__ssprint_r+0xa8>
   17e0c:	47b1                	li	a5,12
   17e0e:	00fa2023          	sw	a5,0(s4)
   17e12:	01045783          	lhu	a5,16(s0)
   17e16:	557d                	li	a0,-1
   17e18:	0407e793          	ori	a5,a5,64
   17e1c:	00f41823          	sh	a5,16(s0)
   17e20:	0009b823          	sd	zero,16(s3)
   17e24:	0009a423          	sw	zero,8(s3)
   17e28:	a8a5                	j	17ea0 <__ssprint_r+0x112>
   17e2a:	000b3a83          	ld	s5,0(s6)
   17e2e:	008b3903          	ld	s2,8(s6)
   17e32:	0b41                	addi	s6,s6,16
   17e34:	b769                	j	17dbe <__ssprint_r+0x30>
   17e36:	6c0c                	ld	a1,24(s0)
   17e38:	8666                	mv	a2,s9
   17e3a:	d4bf80ef          	jal	ra,10b84 <memcpy>
   17e3e:	01045783          	lhu	a5,16(s0)
   17e42:	b7f7f793          	andi	a5,a5,-1153
   17e46:	0807e793          	ori	a5,a5,128
   17e4a:	00f41823          	sh	a5,16(s0)
   17e4e:	01a43c23          	sd	s10,24(s0)
   17e52:	d004                	sw	s1,32(s0)
   17e54:	9d66                	add	s10,s10,s9
   17e56:	419484bb          	subw	s1,s1,s9
   17e5a:	01a43023          	sd	s10,0(s0)
   17e5e:	c444                	sw	s1,12(s0)
   17e60:	00090d1b          	sext.w	s10,s2
   17e64:	0009049b          	sext.w	s1,s2
   17e68:	01a97363          	bleu	s10,s2,17e6e <__ssprint_r+0xe0>
   17e6c:	8d26                	mv	s10,s1
   17e6e:	6008                	ld	a0,0(s0)
   17e70:	866a                	mv	a2,s10
   17e72:	85d6                	mv	a1,s5
   17e74:	ab7fc0ef          	jal	ra,1492a <memmove>
   17e78:	445c                	lw	a5,12(s0)
   17e7a:	9aa6                	add	s5,s5,s1
   17e7c:	40990933          	sub	s2,s2,s1
   17e80:	41a787bb          	subw	a5,a5,s10
   17e84:	c45c                	sw	a5,12(s0)
   17e86:	601c                	ld	a5,0(s0)
   17e88:	9d3e                	add	s10,s10,a5
   17e8a:	0109b783          	ld	a5,16(s3)
   17e8e:	01a43023          	sd	s10,0(s0)
   17e92:	8f85                	sub	a5,a5,s1
   17e94:	00f9b823          	sd	a5,16(s3)
   17e98:	f39d                	bnez	a5,17dbe <__ssprint_r+0x30>
   17e9a:	0009a423          	sw	zero,8(s3)
   17e9e:	4501                	li	a0,0
   17ea0:	60e6                	ld	ra,88(sp)
   17ea2:	6446                	ld	s0,80(sp)
   17ea4:	64a6                	ld	s1,72(sp)
   17ea6:	6906                	ld	s2,64(sp)
   17ea8:	79e2                	ld	s3,56(sp)
   17eaa:	7a42                	ld	s4,48(sp)
   17eac:	7aa2                	ld	s5,40(sp)
   17eae:	7b02                	ld	s6,32(sp)
   17eb0:	6be2                	ld	s7,24(sp)
   17eb2:	6c42                	ld	s8,16(sp)
   17eb4:	6ca2                	ld	s9,8(sp)
   17eb6:	6d02                	ld	s10,0(sp)
   17eb8:	6125                	addi	sp,sp,96
   17eba:	8082                	ret
   17ebc:	8626                	mv	a2,s1
   17ebe:	8552                	mv	a0,s4
   17ec0:	cc2fd0ef          	jal	ra,15382 <_realloc_r>
   17ec4:	8d2a                	mv	s10,a0
   17ec6:	f541                	bnez	a0,17e4e <__ssprint_r+0xc0>
   17ec8:	6c0c                	ld	a1,24(s0)
   17eca:	8552                	mv	a0,s4
   17ecc:	bb3fa0ef          	jal	ra,12a7e <_free_r>
   17ed0:	bf35                	j	17e0c <__ssprint_r+0x7e>

0000000000017ed2 <_svfiprintf_r>:
   17ed2:	0105d783          	lhu	a5,16(a1)
   17ed6:	7141                	addi	sp,sp,-496
   17ed8:	efa6                	sd	s1,472(sp)
   17eda:	ebca                	sd	s2,464(sp)
   17edc:	e7ce                	sd	s3,456(sp)
   17ede:	ff56                	sd	s5,440(sp)
   17ee0:	f786                	sd	ra,488(sp)
   17ee2:	f3a2                	sd	s0,480(sp)
   17ee4:	e3d2                	sd	s4,448(sp)
   17ee6:	fb5a                	sd	s6,432(sp)
   17ee8:	f75e                	sd	s7,424(sp)
   17eea:	f362                	sd	s8,416(sp)
   17eec:	ef66                	sd	s9,408(sp)
   17eee:	eb6a                	sd	s10,400(sp)
   17ef0:	e76e                	sd	s11,392(sp)
   17ef2:	0807f793          	andi	a5,a5,128
   17ef6:	892a                	mv	s2,a0
   17ef8:	84ae                	mv	s1,a1
   17efa:	8ab2                	mv	s5,a2
   17efc:	89b6                	mv	s3,a3
   17efe:	c395                	beqz	a5,17f22 <_svfiprintf_r+0x50>
   17f00:	6d9c                	ld	a5,24(a1)
   17f02:	e385                	bnez	a5,17f22 <_svfiprintf_r+0x50>
   17f04:	04000593          	li	a1,64
   17f08:	f9cf80ef          	jal	ra,106a4 <_malloc_r>
   17f0c:	e088                	sd	a0,0(s1)
   17f0e:	ec88                	sd	a0,24(s1)
   17f10:	e511                	bnez	a0,17f1c <_svfiprintf_r+0x4a>
   17f12:	47b1                	li	a5,12
   17f14:	00f92023          	sw	a5,0(s2)
   17f18:	5bfd                	li	s7,-1
   17f1a:	af61                	j	186b2 <_svfiprintf_r+0x7e0>
   17f1c:	04000793          	li	a5,64
   17f20:	d09c                	sw	a5,32(s1)
   17f22:	67ed                	lui	a5,0x1b
   17f24:	a9078793          	addi	a5,a5,-1392 # 1aa90 <_ctype_+0x108>
   17f28:	e8be                	sd	a5,80(sp)
   17f2a:	67ed                	lui	a5,0x1b
   17f2c:	c1078793          	addi	a5,a5,-1008 # 1ac10 <zeroes.4403>
   17f30:	f43e                	sd	a5,40(sp)
   17f32:	67ed                	lui	a5,0x1b
   17f34:	10010b13          	addi	s6,sp,256
   17f38:	c0078793          	addi	a5,a5,-1024 # 1ac00 <blanks.4402>
   17f3c:	e15a                	sd	s6,128(sp)
   17f3e:	e902                	sd	zero,144(sp)
   17f40:	c502                	sw	zero,136(sp)
   17f42:	8dda                	mv	s11,s6
   17f44:	f002                	sd	zero,32(sp)
   17f46:	e802                	sd	zero,16(sp)
   17f48:	ec02                	sd	zero,24(sp)
   17f4a:	fc02                	sd	zero,56(sp)
   17f4c:	4b81                	li	s7,0
   17f4e:	f83e                	sd	a5,48(sp)
   17f50:	8456                	mv	s0,s5
   17f52:	02500693          	li	a3,37
   17f56:	00044783          	lbu	a5,0(s0)
   17f5a:	c399                	beqz	a5,17f60 <_svfiprintf_r+0x8e>
   17f5c:	08d79063          	bne	a5,a3,17fdc <_svfiprintf_r+0x10a>
   17f60:	41540a3b          	subw	s4,s0,s5
   17f64:	020a0b63          	beqz	s4,17f9a <_svfiprintf_r+0xc8>
   17f68:	67ca                	ld	a5,144(sp)
   17f6a:	015db023          	sd	s5,0(s11)
   17f6e:	014db423          	sd	s4,8(s11)
   17f72:	97d2                	add	a5,a5,s4
   17f74:	e93e                	sd	a5,144(sp)
   17f76:	47aa                	lw	a5,136(sp)
   17f78:	0dc1                	addi	s11,s11,16
   17f7a:	0017869b          	addiw	a3,a5,1
   17f7e:	c536                	sw	a3,136(sp)
   17f80:	479d                	li	a5,7
   17f82:	00d7da63          	ble	a3,a5,17f96 <_svfiprintf_r+0xc4>
   17f86:	0110                	addi	a2,sp,128
   17f88:	85a6                	mv	a1,s1
   17f8a:	854a                	mv	a0,s2
   17f8c:	e03ff0ef          	jal	ra,17d8e <__ssprint_r>
   17f90:	70051b63          	bnez	a0,186a6 <_svfiprintf_r+0x7d4>
   17f94:	8dda                	mv	s11,s6
   17f96:	014b8bbb          	addw	s7,s7,s4
   17f9a:	00044783          	lbu	a5,0(s0)
   17f9e:	74078d63          	beqz	a5,186f8 <_svfiprintf_r+0x826>
   17fa2:	00140693          	addi	a3,s0,1
   17fa6:	06010ba3          	sb	zero,119(sp)
   17faa:	547d                	li	s0,-1
   17fac:	4a01                	li	s4,0
   17fae:	4d01                	li	s10,0
   17fb0:	05a00c93          	li	s9,90
   17fb4:	4c29                	li	s8,10
   17fb6:	00168a93          	addi	s5,a3,1 # 2001 <_start-0xe0af>
   17fba:	0006c683          	lbu	a3,0(a3)
   17fbe:	4525                	li	a0,9
   17fc0:	02a00813          	li	a6,42
   17fc4:	fe06861b          	addiw	a2,a3,-32
   17fc8:	0006059b          	sext.w	a1,a2
   17fcc:	60bce563          	bltu	s9,a1,185d6 <_svfiprintf_r+0x704>
   17fd0:	67c6                	ld	a5,80(sp)
   17fd2:	1602                	slli	a2,a2,0x20
   17fd4:	8279                	srli	a2,a2,0x1e
   17fd6:	963e                	add	a2,a2,a5
   17fd8:	4210                	lw	a2,0(a2)
   17fda:	8602                	jr	a2
   17fdc:	0405                	addi	s0,s0,1
   17fde:	bfa5                	j	17f56 <_svfiprintf_r+0x84>
   17fe0:	0001a637          	lui	a2,0x1a
   17fe4:	26860793          	addi	a5,a2,616 # 1a268 <zeroes.4441+0x78>
   17fe8:	f03e                	sd	a5,32(sp)
   17fea:	00898793          	addi	a5,s3,8
   17fee:	e43e                	sd	a5,8(sp)
   17ff0:	020d7613          	andi	a2,s10,32
   17ff4:	4e060963          	beqz	a2,184e6 <_svfiprintf_r+0x614>
   17ff8:	0009b983          	ld	s3,0(s3)
   17ffc:	001d7613          	andi	a2,s10,1
   18000:	ca19                	beqz	a2,18016 <_svfiprintf_r+0x144>
   18002:	00098a63          	beqz	s3,18016 <_svfiprintf_r+0x144>
   18006:	03000613          	li	a2,48
   1800a:	06c10c23          	sb	a2,120(sp)
   1800e:	06d10ca3          	sb	a3,121(sp)
   18012:	002d6d13          	ori	s10,s10,2
   18016:	bffd7d13          	andi	s10,s10,-1025
   1801a:	ac85                	j	1828a <_svfiprintf_r+0x3b8>
   1801c:	854a                	mv	a0,s2
   1801e:	ef0fc0ef          	jal	ra,1470e <_localeconv_r>
   18022:	651c                	ld	a5,8(a0)
   18024:	853e                	mv	a0,a5
   18026:	fc3e                	sd	a5,56(sp)
   18028:	dc5f80ef          	jal	ra,10dec <strlen>
   1802c:	ec2a                	sd	a0,24(sp)
   1802e:	854a                	mv	a0,s2
   18030:	edefc0ef          	jal	ra,1470e <_localeconv_r>
   18034:	691c                	ld	a5,16(a0)
   18036:	e83e                	sd	a5,16(sp)
   18038:	67e2                	ld	a5,24(sp)
   1803a:	cb81                	beqz	a5,1804a <_svfiprintf_r+0x178>
   1803c:	67c2                	ld	a5,16(sp)
   1803e:	c791                	beqz	a5,1804a <_svfiprintf_r+0x178>
   18040:	0007c683          	lbu	a3,0(a5)
   18044:	c299                	beqz	a3,1804a <_svfiprintf_r+0x178>
   18046:	400d6d13          	ori	s10,s10,1024
   1804a:	86d6                	mv	a3,s5
   1804c:	b7ad                	j	17fb6 <_svfiprintf_r+0xe4>
   1804e:	07714683          	lbu	a3,119(sp)
   18052:	fee5                	bnez	a3,1804a <_svfiprintf_r+0x178>
   18054:	02000693          	li	a3,32
   18058:	06d10ba3          	sb	a3,119(sp)
   1805c:	b7fd                	j	1804a <_svfiprintf_r+0x178>
   1805e:	001d6d13          	ori	s10,s10,1
   18062:	b7e5                	j	1804a <_svfiprintf_r+0x178>
   18064:	0009aa03          	lw	s4,0(s3)
   18068:	09a1                	addi	s3,s3,8
   1806a:	fe0a50e3          	bgez	s4,1804a <_svfiprintf_r+0x178>
   1806e:	41400a3b          	negw	s4,s4
   18072:	004d6d13          	ori	s10,s10,4
   18076:	bfd1                	j	1804a <_svfiprintf_r+0x178>
   18078:	02b00693          	li	a3,43
   1807c:	bff1                	j	18058 <_svfiprintf_r+0x186>
   1807e:	000ac683          	lbu	a3,0(s5)
   18082:	001a8613          	addi	a2,s5,1
   18086:	03069c63          	bne	a3,a6,180be <_svfiprintf_r+0x1ec>
   1808a:	0009a403          	lw	s0,0(s3)
   1808e:	00898693          	addi	a3,s3,8
   18092:	02041793          	slli	a5,s0,0x20
   18096:	0007d363          	bgez	a5,1809c <_svfiprintf_r+0x1ca>
   1809a:	547d                	li	s0,-1
   1809c:	2401                	sext.w	s0,s0
   1809e:	89b6                	mv	s3,a3
   180a0:	8ab2                	mv	s5,a2
   180a2:	b765                	j	1804a <_svfiprintf_r+0x178>
   180a4:	028c043b          	mulw	s0,s8,s0
   180a8:	0605                	addi	a2,a2,1
   180aa:	fff64683          	lbu	a3,-1(a2)
   180ae:	9c2d                	addw	s0,s0,a1
   180b0:	fd06889b          	addiw	a7,a3,-48
   180b4:	85c6                	mv	a1,a7
   180b6:	ff1577e3          	bleu	a7,a0,180a4 <_svfiprintf_r+0x1d2>
   180ba:	8ab2                	mv	s5,a2
   180bc:	b721                	j	17fc4 <_svfiprintf_r+0xf2>
   180be:	4401                	li	s0,0
   180c0:	bfc5                	j	180b0 <_svfiprintf_r+0x1de>
   180c2:	080d6d13          	ori	s10,s10,128
   180c6:	b751                	j	1804a <_svfiprintf_r+0x178>
   180c8:	8656                	mv	a2,s5
   180ca:	4a01                	li	s4,0
   180cc:	034c0a3b          	mulw	s4,s8,s4
   180d0:	fd06869b          	addiw	a3,a3,-48
   180d4:	0605                	addi	a2,a2,1
   180d6:	01468a3b          	addw	s4,a3,s4
   180da:	fff64683          	lbu	a3,-1(a2)
   180de:	fd06859b          	addiw	a1,a3,-48
   180e2:	feb575e3          	bleu	a1,a0,180cc <_svfiprintf_r+0x1fa>
   180e6:	bfd1                	j	180ba <_svfiprintf_r+0x1e8>
   180e8:	000ac603          	lbu	a2,0(s5)
   180ec:	06800693          	li	a3,104
   180f0:	00d61663          	bne	a2,a3,180fc <_svfiprintf_r+0x22a>
   180f4:	0a85                	addi	s5,s5,1
   180f6:	200d6d13          	ori	s10,s10,512
   180fa:	bf81                	j	1804a <_svfiprintf_r+0x178>
   180fc:	040d6d13          	ori	s10,s10,64
   18100:	b7a9                	j	1804a <_svfiprintf_r+0x178>
   18102:	000ac603          	lbu	a2,0(s5)
   18106:	06c00693          	li	a3,108
   1810a:	00d61663          	bne	a2,a3,18116 <_svfiprintf_r+0x244>
   1810e:	0a85                	addi	s5,s5,1
   18110:	020d6d13          	ori	s10,s10,32
   18114:	bf1d                	j	1804a <_svfiprintf_r+0x178>
   18116:	010d6d13          	ori	s10,s10,16
   1811a:	bf05                	j	1804a <_svfiprintf_r+0x178>
   1811c:	0009a683          	lw	a3,0(s3)
   18120:	00898793          	addi	a5,s3,8
   18124:	e43e                	sd	a5,8(sp)
   18126:	08d10c23          	sb	a3,152(sp)
   1812a:	06010ba3          	sb	zero,119(sp)
   1812e:	4405                	li	s0,1
   18130:	4981                	li	s3,0
   18132:	09810c13          	addi	s8,sp,152
   18136:	aabd                	j	182b4 <_svfiprintf_r+0x3e2>
   18138:	010d6d13          	ori	s10,s10,16
   1813c:	00898793          	addi	a5,s3,8
   18140:	e43e                	sd	a5,8(sp)
   18142:	020d7693          	andi	a3,s10,32
   18146:	ca85                	beqz	a3,18176 <_svfiprintf_r+0x2a4>
   18148:	0009b983          	ld	s3,0(s3)
   1814c:	0009d863          	bgez	s3,1815c <_svfiprintf_r+0x28a>
   18150:	02d00693          	li	a3,45
   18154:	413009b3          	neg	s3,s3
   18158:	06d10ba3          	sb	a3,119(sp)
   1815c:	56fd                	li	a3,-1
   1815e:	3ad41b63          	bne	s0,a3,18514 <_svfiprintf_r+0x642>
   18162:	46a5                	li	a3,9
   18164:	3d36e563          	bltu	a3,s3,1852e <_svfiprintf_r+0x65c>
   18168:	0309899b          	addiw	s3,s3,48
   1816c:	0f310da3          	sb	s3,251(sp)
   18170:	0fb10c13          	addi	s8,sp,251
   18174:	a87d                	j	18232 <_svfiprintf_r+0x360>
   18176:	010d7693          	andi	a3,s10,16
   1817a:	f6f9                	bnez	a3,18148 <_svfiprintf_r+0x276>
   1817c:	040d7693          	andi	a3,s10,64
   18180:	c681                	beqz	a3,18188 <_svfiprintf_r+0x2b6>
   18182:	00099983          	lh	s3,0(s3)
   18186:	b7d9                	j	1814c <_svfiprintf_r+0x27a>
   18188:	200d7693          	andi	a3,s10,512
   1818c:	c681                	beqz	a3,18194 <_svfiprintf_r+0x2c2>
   1818e:	00098983          	lb	s3,0(s3)
   18192:	bf6d                	j	1814c <_svfiprintf_r+0x27a>
   18194:	0009a983          	lw	s3,0(s3)
   18198:	bf55                	j	1814c <_svfiprintf_r+0x27a>
   1819a:	020d7613          	andi	a2,s10,32
   1819e:	0009b683          	ld	a3,0(s3)
   181a2:	09a1                	addi	s3,s3,8
   181a4:	c601                	beqz	a2,181ac <_svfiprintf_r+0x2da>
   181a6:	0176b023          	sd	s7,0(a3)
   181aa:	b35d                	j	17f50 <_svfiprintf_r+0x7e>
   181ac:	010d7613          	andi	a2,s10,16
   181b0:	fa7d                	bnez	a2,181a6 <_svfiprintf_r+0x2d4>
   181b2:	040d7613          	andi	a2,s10,64
   181b6:	c601                	beqz	a2,181be <_svfiprintf_r+0x2ec>
   181b8:	01769023          	sh	s7,0(a3)
   181bc:	bb51                	j	17f50 <_svfiprintf_r+0x7e>
   181be:	200d7793          	andi	a5,s10,512
   181c2:	c781                	beqz	a5,181ca <_svfiprintf_r+0x2f8>
   181c4:	01768023          	sb	s7,0(a3)
   181c8:	b361                	j	17f50 <_svfiprintf_r+0x7e>
   181ca:	0176a023          	sw	s7,0(a3)
   181ce:	b349                	j	17f50 <_svfiprintf_r+0x7e>
   181d0:	010d6d13          	ori	s10,s10,16
   181d4:	00898793          	addi	a5,s3,8
   181d8:	e43e                	sd	a5,8(sp)
   181da:	020d7693          	andi	a3,s10,32
   181de:	ceb9                	beqz	a3,1823c <_svfiprintf_r+0x36a>
   181e0:	0009b983          	ld	s3,0(s3)
   181e4:	bffd7d13          	andi	s10,s10,-1025
   181e8:	4601                	li	a2,0
   181ea:	06010ba3          	sb	zero,119(sp)
   181ee:	56fd                	li	a3,-1
   181f0:	85ea                	mv	a1,s10
   181f2:	32d41363          	bne	s0,a3,18518 <_svfiprintf_r+0x646>
   181f6:	4685                	li	a3,1
   181f8:	f6d605e3          	beq	a2,a3,18162 <_svfiprintf_r+0x290>
   181fc:	4689                	li	a3,2
   181fe:	3ad60063          	beq	a2,a3,1859e <_svfiprintf_r+0x6cc>
   18202:	19f0                	addi	a2,sp,252
   18204:	0079f593          	andi	a1,s3,7
   18208:	03058593          	addi	a1,a1,48
   1820c:	feb60fa3          	sb	a1,-1(a2)
   18210:	0039d993          	srli	s3,s3,0x3
   18214:	fff60c13          	addi	s8,a2,-1
   18218:	30099963          	bnez	s3,1852a <_svfiprintf_r+0x658>
   1821c:	001d7513          	andi	a0,s10,1
   18220:	c909                	beqz	a0,18232 <_svfiprintf_r+0x360>
   18222:	03000513          	li	a0,48
   18226:	00a58663          	beq	a1,a0,18232 <_svfiprintf_r+0x360>
   1822a:	feac0fa3          	sb	a0,-1(s8)
   1822e:	ffe60c13          	addi	s8,a2,-2
   18232:	89a2                	mv	s3,s0
   18234:	19e0                	addi	s0,sp,252
   18236:	4184043b          	subw	s0,s0,s8
   1823a:	a8ad                	j	182b4 <_svfiprintf_r+0x3e2>
   1823c:	010d7693          	andi	a3,s10,16
   18240:	f2c5                	bnez	a3,181e0 <_svfiprintf_r+0x30e>
   18242:	040d7693          	andi	a3,s10,64
   18246:	0009a983          	lw	s3,0(s3)
   1824a:	c689                	beqz	a3,18254 <_svfiprintf_r+0x382>
   1824c:	19c2                	slli	s3,s3,0x30
   1824e:	0309d993          	srli	s3,s3,0x30
   18252:	bf49                	j	181e4 <_svfiprintf_r+0x312>
   18254:	200d7693          	andi	a3,s10,512
   18258:	c681                	beqz	a3,18260 <_svfiprintf_r+0x38e>
   1825a:	0ff9f993          	andi	s3,s3,255
   1825e:	b759                	j	181e4 <_svfiprintf_r+0x312>
   18260:	1982                	slli	s3,s3,0x20
   18262:	0209d993          	srli	s3,s3,0x20
   18266:	bfbd                	j	181e4 <_svfiprintf_r+0x312>
   18268:	76e1                	lui	a3,0xffff8
   1826a:	8306c693          	xori	a3,a3,-2000
   1826e:	00898793          	addi	a5,s3,8
   18272:	06d11c23          	sh	a3,120(sp)
   18276:	0009b983          	ld	s3,0(s3)
   1827a:	0001a6b7          	lui	a3,0x1a
   1827e:	e43e                	sd	a5,8(sp)
   18280:	25068793          	addi	a5,a3,592 # 1a250 <zeroes.4441+0x60>
   18284:	002d6d13          	ori	s10,s10,2
   18288:	f03e                	sd	a5,32(sp)
   1828a:	4609                	li	a2,2
   1828c:	bfb9                	j	181ea <_svfiprintf_r+0x318>
   1828e:	00898793          	addi	a5,s3,8
   18292:	e43e                	sd	a5,8(sp)
   18294:	06010ba3          	sb	zero,119(sp)
   18298:	567d                	li	a2,-1
   1829a:	0009bc03          	ld	s8,0(s3)
   1829e:	1ec40663          	beq	s0,a2,1848a <_svfiprintf_r+0x5b8>
   182a2:	8622                	mv	a2,s0
   182a4:	4581                	li	a1,0
   182a6:	8562                	mv	a0,s8
   182a8:	e68fc0ef          	jal	ra,14910 <memchr>
   182ac:	4981                	li	s3,0
   182ae:	c119                	beqz	a0,182b4 <_svfiprintf_r+0x3e2>
   182b0:	4185043b          	subw	s0,a0,s8
   182b4:	864e                	mv	a2,s3
   182b6:	0089d363          	ble	s0,s3,182bc <_svfiprintf_r+0x3ea>
   182ba:	8622                	mv	a2,s0
   182bc:	07714583          	lbu	a1,119(sp)
   182c0:	00060c9b          	sext.w	s9,a2
   182c4:	c199                	beqz	a1,182ca <_svfiprintf_r+0x3f8>
   182c6:	00160c9b          	addiw	s9,a2,1
   182ca:	002d7613          	andi	a2,s10,2
   182ce:	0006079b          	sext.w	a5,a2
   182d2:	e0be                	sd	a5,64(sp)
   182d4:	c391                	beqz	a5,182d8 <_svfiprintf_r+0x406>
   182d6:	2c89                	addiw	s9,s9,2
   182d8:	084d7793          	andi	a5,s10,132
   182dc:	e4be                	sd	a5,72(sp)
   182de:	e7a1                	bnez	a5,18326 <_svfiprintf_r+0x454>
   182e0:	419a083b          	subw	a6,s4,s9
   182e4:	05005163          	blez	a6,18326 <_svfiprintf_r+0x454>
   182e8:	4341                	li	t1,16
   182ea:	4e1d                	li	t3,7
   182ec:	45aa                	lw	a1,136(sp)
   182ee:	77c2                	ld	a5,48(sp)
   182f0:	664a                	ld	a2,144(sp)
   182f2:	0015851b          	addiw	a0,a1,1
   182f6:	00fdb023          	sd	a5,0(s11)
   182fa:	85aa                	mv	a1,a0
   182fc:	010d8893          	addi	a7,s11,16
   18300:	2f034363          	blt	t1,a6,185e6 <_svfiprintf_r+0x714>
   18304:	010db423          	sd	a6,8(s11)
   18308:	9832                	add	a6,a6,a2
   1830a:	e942                	sd	a6,144(sp)
   1830c:	c52a                	sw	a0,136(sp)
   1830e:	461d                	li	a2,7
   18310:	8dc6                	mv	s11,a7
   18312:	00a65a63          	ble	a0,a2,18326 <_svfiprintf_r+0x454>
   18316:	0110                	addi	a2,sp,128
   18318:	85a6                	mv	a1,s1
   1831a:	854a                	mv	a0,s2
   1831c:	a73ff0ef          	jal	ra,17d8e <__ssprint_r>
   18320:	38051363          	bnez	a0,186a6 <_svfiprintf_r+0x7d4>
   18324:	8dda                	mv	s11,s6
   18326:	07714603          	lbu	a2,119(sp)
   1832a:	ca1d                	beqz	a2,18360 <_svfiprintf_r+0x48e>
   1832c:	07710593          	addi	a1,sp,119
   18330:	00bdb023          	sd	a1,0(s11)
   18334:	4585                	li	a1,1
   18336:	462a                	lw	a2,136(sp)
   18338:	00bdb423          	sd	a1,8(s11)
   1833c:	65ca                	ld	a1,144(sp)
   1833e:	0016051b          	addiw	a0,a2,1
   18342:	c52a                	sw	a0,136(sp)
   18344:	0585                	addi	a1,a1,1
   18346:	e92e                	sd	a1,144(sp)
   18348:	461d                	li	a2,7
   1834a:	0dc1                	addi	s11,s11,16
   1834c:	00a65a63          	ble	a0,a2,18360 <_svfiprintf_r+0x48e>
   18350:	0110                	addi	a2,sp,128
   18352:	85a6                	mv	a1,s1
   18354:	854a                	mv	a0,s2
   18356:	a39ff0ef          	jal	ra,17d8e <__ssprint_r>
   1835a:	34051663          	bnez	a0,186a6 <_svfiprintf_r+0x7d4>
   1835e:	8dda                	mv	s11,s6
   18360:	6786                	ld	a5,64(sp)
   18362:	cb95                	beqz	a5,18396 <_svfiprintf_r+0x4c4>
   18364:	18ac                	addi	a1,sp,120
   18366:	00bdb023          	sd	a1,0(s11)
   1836a:	4589                	li	a1,2
   1836c:	462a                	lw	a2,136(sp)
   1836e:	00bdb423          	sd	a1,8(s11)
   18372:	65ca                	ld	a1,144(sp)
   18374:	0016051b          	addiw	a0,a2,1
   18378:	c52a                	sw	a0,136(sp)
   1837a:	0589                	addi	a1,a1,2
   1837c:	e92e                	sd	a1,144(sp)
   1837e:	461d                	li	a2,7
   18380:	0dc1                	addi	s11,s11,16
   18382:	00a65a63          	ble	a0,a2,18396 <_svfiprintf_r+0x4c4>
   18386:	0110                	addi	a2,sp,128
   18388:	85a6                	mv	a1,s1
   1838a:	854a                	mv	a0,s2
   1838c:	a03ff0ef          	jal	ra,17d8e <__ssprint_r>
   18390:	30051b63          	bnez	a0,186a6 <_svfiprintf_r+0x7d4>
   18394:	8dda                	mv	s11,s6
   18396:	67a6                	ld	a5,72(sp)
   18398:	08000613          	li	a2,128
   1839c:	04c79563          	bne	a5,a2,183e6 <_svfiprintf_r+0x514>
   183a0:	419a083b          	subw	a6,s4,s9
   183a4:	05005163          	blez	a6,183e6 <_svfiprintf_r+0x514>
   183a8:	4341                	li	t1,16
   183aa:	4e1d                	li	t3,7
   183ac:	45aa                	lw	a1,136(sp)
   183ae:	77a2                	ld	a5,40(sp)
   183b0:	664a                	ld	a2,144(sp)
   183b2:	0015851b          	addiw	a0,a1,1
   183b6:	00fdb023          	sd	a5,0(s11)
   183ba:	85aa                	mv	a1,a0
   183bc:	010d8893          	addi	a7,s11,16
   183c0:	25034a63          	blt	t1,a6,18614 <_svfiprintf_r+0x742>
   183c4:	010db423          	sd	a6,8(s11)
   183c8:	9832                	add	a6,a6,a2
   183ca:	e942                	sd	a6,144(sp)
   183cc:	c52a                	sw	a0,136(sp)
   183ce:	461d                	li	a2,7
   183d0:	8dc6                	mv	s11,a7
   183d2:	00a65a63          	ble	a0,a2,183e6 <_svfiprintf_r+0x514>
   183d6:	0110                	addi	a2,sp,128
   183d8:	85a6                	mv	a1,s1
   183da:	854a                	mv	a0,s2
   183dc:	9b3ff0ef          	jal	ra,17d8e <__ssprint_r>
   183e0:	2c051363          	bnez	a0,186a6 <_svfiprintf_r+0x7d4>
   183e4:	8dda                	mv	s11,s6
   183e6:	408989bb          	subw	s3,s3,s0
   183ea:	05305163          	blez	s3,1842c <_svfiprintf_r+0x55a>
   183ee:	48c1                	li	a7,16
   183f0:	431d                	li	t1,7
   183f2:	45aa                	lw	a1,136(sp)
   183f4:	77a2                	ld	a5,40(sp)
   183f6:	664a                	ld	a2,144(sp)
   183f8:	0015851b          	addiw	a0,a1,1
   183fc:	00fdb023          	sd	a5,0(s11)
   18400:	85aa                	mv	a1,a0
   18402:	010d8813          	addi	a6,s11,16
   18406:	2338ce63          	blt	a7,s3,18642 <_svfiprintf_r+0x770>
   1840a:	013db423          	sd	s3,8(s11)
   1840e:	99b2                	add	s3,s3,a2
   18410:	e94e                	sd	s3,144(sp)
   18412:	c52a                	sw	a0,136(sp)
   18414:	461d                	li	a2,7
   18416:	8dc2                	mv	s11,a6
   18418:	00a65a63          	ble	a0,a2,1842c <_svfiprintf_r+0x55a>
   1841c:	0110                	addi	a2,sp,128
   1841e:	85a6                	mv	a1,s1
   18420:	854a                	mv	a0,s2
   18422:	96dff0ef          	jal	ra,17d8e <__ssprint_r>
   18426:	28051063          	bnez	a0,186a6 <_svfiprintf_r+0x7d4>
   1842a:	8dda                	mv	s11,s6
   1842c:	66ca                	ld	a3,144(sp)
   1842e:	008db423          	sd	s0,8(s11)
   18432:	018db023          	sd	s8,0(s11)
   18436:	9436                	add	s0,s0,a3
   18438:	46aa                	lw	a3,136(sp)
   1843a:	e922                	sd	s0,144(sp)
   1843c:	010d8713          	addi	a4,s11,16
   18440:	0016861b          	addiw	a2,a3,1
   18444:	c532                	sw	a2,136(sp)
   18446:	469d                	li	a3,7
   18448:	00c6da63          	ble	a2,a3,1845c <_svfiprintf_r+0x58a>
   1844c:	0110                	addi	a2,sp,128
   1844e:	85a6                	mv	a1,s1
   18450:	854a                	mv	a0,s2
   18452:	93dff0ef          	jal	ra,17d8e <__ssprint_r>
   18456:	24051863          	bnez	a0,186a6 <_svfiprintf_r+0x7d4>
   1845a:	875a                	mv	a4,s6
   1845c:	004d7793          	andi	a5,s10,4
   18460:	20079663          	bnez	a5,1866c <_svfiprintf_r+0x79a>
   18464:	87d2                	mv	a5,s4
   18466:	019a5363          	ble	s9,s4,1846c <_svfiprintf_r+0x59a>
   1846a:	87e6                	mv	a5,s9
   1846c:	01778bbb          	addw	s7,a5,s7
   18470:	67ca                	ld	a5,144(sp)
   18472:	cb81                	beqz	a5,18482 <_svfiprintf_r+0x5b0>
   18474:	0110                	addi	a2,sp,128
   18476:	85a6                	mv	a1,s1
   18478:	854a                	mv	a0,s2
   1847a:	915ff0ef          	jal	ra,17d8e <__ssprint_r>
   1847e:	22051463          	bnez	a0,186a6 <_svfiprintf_r+0x7d4>
   18482:	c502                	sw	zero,136(sp)
   18484:	69a2                	ld	s3,8(sp)
   18486:	8dda                	mv	s11,s6
   18488:	b4e1                	j	17f50 <_svfiprintf_r+0x7e>
   1848a:	8562                	mv	a0,s8
   1848c:	961f80ef          	jal	ra,10dec <strlen>
   18490:	0005041b          	sext.w	s0,a0
   18494:	4981                	li	s3,0
   18496:	bd39                	j	182b4 <_svfiprintf_r+0x3e2>
   18498:	010d6d13          	ori	s10,s10,16
   1849c:	00898793          	addi	a5,s3,8
   184a0:	e43e                	sd	a5,8(sp)
   184a2:	020d7693          	andi	a3,s10,32
   184a6:	c689                	beqz	a3,184b0 <_svfiprintf_r+0x5de>
   184a8:	0009b983          	ld	s3,0(s3)
   184ac:	4605                	li	a2,1
   184ae:	bb35                	j	181ea <_svfiprintf_r+0x318>
   184b0:	010d7693          	andi	a3,s10,16
   184b4:	faf5                	bnez	a3,184a8 <_svfiprintf_r+0x5d6>
   184b6:	040d7693          	andi	a3,s10,64
   184ba:	0009a983          	lw	s3,0(s3)
   184be:	c689                	beqz	a3,184c8 <_svfiprintf_r+0x5f6>
   184c0:	19c2                	slli	s3,s3,0x30
   184c2:	0309d993          	srli	s3,s3,0x30
   184c6:	b7dd                	j	184ac <_svfiprintf_r+0x5da>
   184c8:	200d7693          	andi	a3,s10,512
   184cc:	c681                	beqz	a3,184d4 <_svfiprintf_r+0x602>
   184ce:	0ff9f993          	andi	s3,s3,255
   184d2:	bfe9                	j	184ac <_svfiprintf_r+0x5da>
   184d4:	1982                	slli	s3,s3,0x20
   184d6:	0209d993          	srli	s3,s3,0x20
   184da:	bfc9                	j	184ac <_svfiprintf_r+0x5da>
   184dc:	0001a637          	lui	a2,0x1a
   184e0:	25060793          	addi	a5,a2,592 # 1a250 <zeroes.4441+0x60>
   184e4:	b611                	j	17fe8 <_svfiprintf_r+0x116>
   184e6:	010d7613          	andi	a2,s10,16
   184ea:	b00617e3          	bnez	a2,17ff8 <_svfiprintf_r+0x126>
   184ee:	040d7613          	andi	a2,s10,64
   184f2:	0009a983          	lw	s3,0(s3)
   184f6:	c609                	beqz	a2,18500 <_svfiprintf_r+0x62e>
   184f8:	19c2                	slli	s3,s3,0x30
   184fa:	0309d993          	srli	s3,s3,0x30
   184fe:	bcfd                	j	17ffc <_svfiprintf_r+0x12a>
   18500:	200d7613          	andi	a2,s10,512
   18504:	c601                	beqz	a2,1850c <_svfiprintf_r+0x63a>
   18506:	0ff9f993          	andi	s3,s3,255
   1850a:	bccd                	j	17ffc <_svfiprintf_r+0x12a>
   1850c:	1982                	slli	s3,s3,0x20
   1850e:	0209d993          	srli	s3,s3,0x20
   18512:	b4ed                	j	17ffc <_svfiprintf_r+0x12a>
   18514:	85ea                	mv	a1,s10
   18516:	4605                	li	a2,1
   18518:	f7fd7d13          	andi	s10,s10,-129
   1851c:	cc099de3          	bnez	s3,181f6 <_svfiprintf_r+0x324>
   18520:	cc59                	beqz	s0,185be <_svfiprintf_r+0x6ec>
   18522:	4685                	li	a3,1
   18524:	ccd61ce3          	bne	a2,a3,181fc <_svfiprintf_r+0x32a>
   18528:	b181                	j	18168 <_svfiprintf_r+0x296>
   1852a:	8662                	mv	a2,s8
   1852c:	b9e1                	j	18204 <_svfiprintf_r+0x332>
   1852e:	400d7c93          	andi	s9,s10,1024
   18532:	4601                	li	a2,0
   18534:	19ec                	addi	a1,sp,252
   18536:	4829                	li	a6,10
   18538:	2c81                	sext.w	s9,s9
   1853a:	0ff00893          	li	a7,255
   1853e:	4325                	li	t1,9
   18540:	0309f533          	remu	a0,s3,a6
   18544:	fff58c13          	addi	s8,a1,-1
   18548:	2605                	addiw	a2,a2,1
   1854a:	0305051b          	addiw	a0,a0,48
   1854e:	fea58fa3          	sb	a0,-1(a1)
   18552:	040c8063          	beqz	s9,18592 <_svfiprintf_r+0x6c0>
   18556:	67c2                	ld	a5,16(sp)
   18558:	0007c583          	lbu	a1,0(a5)
   1855c:	02c59b63          	bne	a1,a2,18592 <_svfiprintf_r+0x6c0>
   18560:	03158963          	beq	a1,a7,18592 <_svfiprintf_r+0x6c0>
   18564:	03337763          	bleu	s3,t1,18592 <_svfiprintf_r+0x6c0>
   18568:	67e2                	ld	a5,24(sp)
   1856a:	75e2                	ld	a1,56(sp)
   1856c:	ec9a                	sd	t1,88(sp)
   1856e:	40fc0c33          	sub	s8,s8,a5
   18572:	863e                	mv	a2,a5
   18574:	8562                	mv	a0,s8
   18576:	e4c6                	sd	a7,72(sp)
   18578:	e0c2                	sd	a6,64(sp)
   1857a:	d5afd0ef          	jal	ra,15ad4 <strncpy>
   1857e:	67c2                	ld	a5,16(sp)
   18580:	4601                	li	a2,0
   18582:	6806                	ld	a6,64(sp)
   18584:	0017c583          	lbu	a1,1(a5)
   18588:	68a6                	ld	a7,72(sp)
   1858a:	6366                	ld	t1,88(sp)
   1858c:	c199                	beqz	a1,18592 <_svfiprintf_r+0x6c0>
   1858e:	0785                	addi	a5,a5,1
   18590:	e83e                	sd	a5,16(sp)
   18592:	0309d9b3          	divu	s3,s3,a6
   18596:	c8098ee3          	beqz	s3,18232 <_svfiprintf_r+0x360>
   1859a:	85e2                	mv	a1,s8
   1859c:	b755                	j	18540 <_svfiprintf_r+0x66e>
   1859e:	0fc10c13          	addi	s8,sp,252
   185a2:	7782                	ld	a5,32(sp)
   185a4:	00f9f613          	andi	a2,s3,15
   185a8:	1c7d                	addi	s8,s8,-1
   185aa:	963e                	add	a2,a2,a5
   185ac:	00064603          	lbu	a2,0(a2)
   185b0:	0049d993          	srli	s3,s3,0x4
   185b4:	00cc0023          	sb	a2,0(s8)
   185b8:	fe0995e3          	bnez	s3,185a2 <_svfiprintf_r+0x6d0>
   185bc:	b99d                	j	18232 <_svfiprintf_r+0x360>
   185be:	0fc10c13          	addi	s8,sp,252
   185c2:	c60618e3          	bnez	a2,18232 <_svfiprintf_r+0x360>
   185c6:	8985                	andi	a1,a1,1
   185c8:	c60585e3          	beqz	a1,18232 <_svfiprintf_r+0x360>
   185cc:	03000693          	li	a3,48
   185d0:	0ed10da3          	sb	a3,251(sp)
   185d4:	be71                	j	18170 <_svfiprintf_r+0x29e>
   185d6:	12068163          	beqz	a3,186f8 <_svfiprintf_r+0x826>
   185da:	08d10c23          	sb	a3,152(sp)
   185de:	06010ba3          	sb	zero,119(sp)
   185e2:	e44e                	sd	s3,8(sp)
   185e4:	b6a9                	j	1812e <_svfiprintf_r+0x25c>
   185e6:	0641                	addi	a2,a2,16
   185e8:	006db423          	sd	t1,8(s11)
   185ec:	e932                	sd	a2,144(sp)
   185ee:	c52e                	sw	a1,136(sp)
   185f0:	00ae5f63          	ble	a0,t3,1860e <_svfiprintf_r+0x73c>
   185f4:	0110                	addi	a2,sp,128
   185f6:	85a6                	mv	a1,s1
   185f8:	854a                	mv	a0,s2
   185fa:	f4f2                	sd	t3,104(sp)
   185fc:	f09a                	sd	t1,96(sp)
   185fe:	ecc2                	sd	a6,88(sp)
   18600:	f8eff0ef          	jal	ra,17d8e <__ssprint_r>
   18604:	e14d                	bnez	a0,186a6 <_svfiprintf_r+0x7d4>
   18606:	7e26                	ld	t3,104(sp)
   18608:	7306                	ld	t1,96(sp)
   1860a:	6866                	ld	a6,88(sp)
   1860c:	88da                	mv	a7,s6
   1860e:	3841                	addiw	a6,a6,-16
   18610:	8dc6                	mv	s11,a7
   18612:	b9e9                	j	182ec <_svfiprintf_r+0x41a>
   18614:	0641                	addi	a2,a2,16
   18616:	006db423          	sd	t1,8(s11)
   1861a:	e932                	sd	a2,144(sp)
   1861c:	c52e                	sw	a1,136(sp)
   1861e:	00ae5f63          	ble	a0,t3,1863c <_svfiprintf_r+0x76a>
   18622:	0110                	addi	a2,sp,128
   18624:	85a6                	mv	a1,s1
   18626:	854a                	mv	a0,s2
   18628:	ecf2                	sd	t3,88(sp)
   1862a:	e49a                	sd	t1,72(sp)
   1862c:	e0c2                	sd	a6,64(sp)
   1862e:	f60ff0ef          	jal	ra,17d8e <__ssprint_r>
   18632:	e935                	bnez	a0,186a6 <_svfiprintf_r+0x7d4>
   18634:	6e66                	ld	t3,88(sp)
   18636:	6326                	ld	t1,72(sp)
   18638:	6806                	ld	a6,64(sp)
   1863a:	88da                	mv	a7,s6
   1863c:	3841                	addiw	a6,a6,-16
   1863e:	8dc6                	mv	s11,a7
   18640:	b3b5                	j	183ac <_svfiprintf_r+0x4da>
   18642:	0641                	addi	a2,a2,16
   18644:	011db423          	sd	a7,8(s11)
   18648:	e932                	sd	a2,144(sp)
   1864a:	c52e                	sw	a1,136(sp)
   1864c:	00a35d63          	ble	a0,t1,18666 <_svfiprintf_r+0x794>
   18650:	0110                	addi	a2,sp,128
   18652:	85a6                	mv	a1,s1
   18654:	854a                	mv	a0,s2
   18656:	e49a                	sd	t1,72(sp)
   18658:	e0c6                	sd	a7,64(sp)
   1865a:	f34ff0ef          	jal	ra,17d8e <__ssprint_r>
   1865e:	e521                	bnez	a0,186a6 <_svfiprintf_r+0x7d4>
   18660:	6326                	ld	t1,72(sp)
   18662:	6886                	ld	a7,64(sp)
   18664:	885a                	mv	a6,s6
   18666:	39c1                	addiw	s3,s3,-16
   18668:	8dc2                	mv	s11,a6
   1866a:	b361                	j	183f2 <_svfiprintf_r+0x520>
   1866c:	419a043b          	subw	s0,s4,s9
   18670:	de805ae3          	blez	s0,18464 <_svfiprintf_r+0x592>
   18674:	49c1                	li	s3,16
   18676:	4d1d                	li	s10,7
   18678:	46aa                	lw	a3,136(sp)
   1867a:	67ca                	ld	a5,144(sp)
   1867c:	0016861b          	addiw	a2,a3,1
   18680:	86b2                	mv	a3,a2
   18682:	0489c863          	blt	s3,s0,186d2 <_svfiprintf_r+0x800>
   18686:	76c2                	ld	a3,48(sp)
   18688:	e700                	sd	s0,8(a4)
   1868a:	943e                	add	s0,s0,a5
   1868c:	e314                	sd	a3,0(a4)
   1868e:	e922                	sd	s0,144(sp)
   18690:	c532                	sw	a2,136(sp)
   18692:	479d                	li	a5,7
   18694:	dcc7d8e3          	ble	a2,a5,18464 <_svfiprintf_r+0x592>
   18698:	0110                	addi	a2,sp,128
   1869a:	85a6                	mv	a1,s1
   1869c:	854a                	mv	a0,s2
   1869e:	ef0ff0ef          	jal	ra,17d8e <__ssprint_r>
   186a2:	dc0501e3          	beqz	a0,18464 <_svfiprintf_r+0x592>
   186a6:	0104d783          	lhu	a5,16(s1)
   186aa:	0407f793          	andi	a5,a5,64
   186ae:	860795e3          	bnez	a5,17f18 <_svfiprintf_r+0x46>
   186b2:	70be                	ld	ra,488(sp)
   186b4:	741e                	ld	s0,480(sp)
   186b6:	855e                	mv	a0,s7
   186b8:	64fe                	ld	s1,472(sp)
   186ba:	695e                	ld	s2,464(sp)
   186bc:	69be                	ld	s3,456(sp)
   186be:	6a1e                	ld	s4,448(sp)
   186c0:	7afa                	ld	s5,440(sp)
   186c2:	7b5a                	ld	s6,432(sp)
   186c4:	7bba                	ld	s7,424(sp)
   186c6:	7c1a                	ld	s8,416(sp)
   186c8:	6cfa                	ld	s9,408(sp)
   186ca:	6d5a                	ld	s10,400(sp)
   186cc:	6dba                	ld	s11,392(sp)
   186ce:	617d                	addi	sp,sp,496
   186d0:	8082                	ret
   186d2:	75c2                	ld	a1,48(sp)
   186d4:	07c1                	addi	a5,a5,16
   186d6:	01373423          	sd	s3,8(a4)
   186da:	e30c                	sd	a1,0(a4)
   186dc:	e93e                	sd	a5,144(sp)
   186de:	c536                	sw	a3,136(sp)
   186e0:	0741                	addi	a4,a4,16
   186e2:	00cd5963          	ble	a2,s10,186f4 <_svfiprintf_r+0x822>
   186e6:	0110                	addi	a2,sp,128
   186e8:	85a6                	mv	a1,s1
   186ea:	854a                	mv	a0,s2
   186ec:	ea2ff0ef          	jal	ra,17d8e <__ssprint_r>
   186f0:	f95d                	bnez	a0,186a6 <_svfiprintf_r+0x7d4>
   186f2:	875a                	mv	a4,s6
   186f4:	3441                	addiw	s0,s0,-16
   186f6:	b749                	j	18678 <_svfiprintf_r+0x7a6>
   186f8:	67ca                	ld	a5,144(sp)
   186fa:	d7d5                	beqz	a5,186a6 <_svfiprintf_r+0x7d4>
   186fc:	0110                	addi	a2,sp,128
   186fe:	85a6                	mv	a1,s1
   18700:	854a                	mv	a0,s2
   18702:	e8cff0ef          	jal	ra,17d8e <__ssprint_r>
   18706:	b745                	j	186a6 <_svfiprintf_r+0x7d4>

0000000000018708 <__swbuf_r>:
   18708:	7179                	addi	sp,sp,-48
   1870a:	f022                	sd	s0,32(sp)
   1870c:	ec26                	sd	s1,24(sp)
   1870e:	e84a                	sd	s2,16(sp)
   18710:	f406                	sd	ra,40(sp)
   18712:	e44e                	sd	s3,8(sp)
   18714:	892a                	mv	s2,a0
   18716:	84ae                	mv	s1,a1
   18718:	8432                	mv	s0,a2
   1871a:	c509                	beqz	a0,18724 <__swbuf_r+0x1c>
   1871c:	493c                	lw	a5,80(a0)
   1871e:	e399                	bnez	a5,18724 <__swbuf_r+0x1c>
   18720:	98efa0ef          	jal	ra,128ae <__sinit>
   18724:	541c                	lw	a5,40(s0)
   18726:	c45c                	sw	a5,12(s0)
   18728:	01045783          	lhu	a5,16(s0)
   1872c:	8ba1                	andi	a5,a5,8
   1872e:	c3ad                	beqz	a5,18790 <__swbuf_r+0x88>
   18730:	6c1c                	ld	a5,24(s0)
   18732:	cfb9                	beqz	a5,18790 <__swbuf_r+0x88>
   18734:	01041783          	lh	a5,16(s0)
   18738:	0ff4f993          	andi	s3,s1,255
   1873c:	84ce                	mv	s1,s3
   1873e:	03279713          	slli	a4,a5,0x32
   18742:	06075563          	bgez	a4,187ac <__swbuf_r+0xa4>
   18746:	6c1c                	ld	a5,24(s0)
   18748:	6008                	ld	a0,0(s0)
   1874a:	9d1d                	subw	a0,a0,a5
   1874c:	501c                	lw	a5,32(s0)
   1874e:	00f54763          	blt	a0,a5,1875c <__swbuf_r+0x54>
   18752:	85a2                	mv	a1,s0
   18754:	854a                	mv	a0,s2
   18756:	840fa0ef          	jal	ra,12796 <_fflush_r>
   1875a:	e121                	bnez	a0,1879a <__swbuf_r+0x92>
   1875c:	445c                	lw	a5,12(s0)
   1875e:	2505                	addiw	a0,a0,1
   18760:	37fd                	addiw	a5,a5,-1
   18762:	c45c                	sw	a5,12(s0)
   18764:	601c                	ld	a5,0(s0)
   18766:	00178713          	addi	a4,a5,1
   1876a:	e018                	sd	a4,0(s0)
   1876c:	01378023          	sb	s3,0(a5)
   18770:	501c                	lw	a5,32(s0)
   18772:	00a78963          	beq	a5,a0,18784 <__swbuf_r+0x7c>
   18776:	01045783          	lhu	a5,16(s0)
   1877a:	8b85                	andi	a5,a5,1
   1877c:	c385                	beqz	a5,1879c <__swbuf_r+0x94>
   1877e:	47a9                	li	a5,10
   18780:	00f49e63          	bne	s1,a5,1879c <__swbuf_r+0x94>
   18784:	85a2                	mv	a1,s0
   18786:	854a                	mv	a0,s2
   18788:	80efa0ef          	jal	ra,12796 <_fflush_r>
   1878c:	c901                	beqz	a0,1879c <__swbuf_r+0x94>
   1878e:	a031                	j	1879a <__swbuf_r+0x92>
   18790:	85a2                	mv	a1,s0
   18792:	854a                	mv	a0,s2
   18794:	cb5f90ef          	jal	ra,12448 <__swsetup_r>
   18798:	dd51                	beqz	a0,18734 <__swbuf_r+0x2c>
   1879a:	54fd                	li	s1,-1
   1879c:	70a2                	ld	ra,40(sp)
   1879e:	7402                	ld	s0,32(sp)
   187a0:	8526                	mv	a0,s1
   187a2:	6942                	ld	s2,16(sp)
   187a4:	64e2                	ld	s1,24(sp)
   187a6:	69a2                	ld	s3,8(sp)
   187a8:	6145                	addi	sp,sp,48
   187aa:	8082                	ret
   187ac:	6709                	lui	a4,0x2
   187ae:	8fd9                	or	a5,a5,a4
   187b0:	00f41823          	sh	a5,16(s0)
   187b4:	0ac42783          	lw	a5,172(s0)
   187b8:	7779                	lui	a4,0xffffe
   187ba:	177d                	addi	a4,a4,-1
   187bc:	8ff9                	and	a5,a5,a4
   187be:	0af42623          	sw	a5,172(s0)
   187c2:	b751                	j	18746 <__swbuf_r+0x3e>

00000000000187c4 <__swbuf>:
   187c4:	862e                	mv	a2,a1
   187c6:	85aa                	mv	a1,a0
   187c8:	8381b503          	ld	a0,-1992(gp) # 1ceb0 <_impure_ptr>
   187cc:	f3dff06f          	j	18708 <__swbuf_r>

00000000000187d0 <_wcrtomb_r>:
   187d0:	8381b783          	ld	a5,-1992(gp) # 1ceb0 <_impure_ptr>
   187d4:	7179                	addi	sp,sp,-48
   187d6:	f022                	sd	s0,32(sp)
   187d8:	ec26                	sd	s1,24(sp)
   187da:	f406                	sd	ra,40(sp)
   187dc:	842a                	mv	s0,a0
   187de:	84b6                	mv	s1,a3
   187e0:	67bc                	ld	a5,72(a5)
   187e2:	e985                	bnez	a1,18812 <_wcrtomb_r+0x42>
   187e4:	e781                	bnez	a5,187ec <_wcrtomb_r+0x1c>
   187e6:	67f5                	lui	a5,0x1d
   187e8:	cd078793          	addi	a5,a5,-816 # 1ccd0 <__global_locale>
   187ec:	73fc                	ld	a5,224(a5)
   187ee:	86a6                	mv	a3,s1
   187f0:	4601                	li	a2,0
   187f2:	858a                	mv	a1,sp
   187f4:	8522                	mv	a0,s0
   187f6:	9782                	jalr	a5
   187f8:	57fd                	li	a5,-1
   187fa:	00f51763          	bne	a0,a5,18808 <_wcrtomb_r+0x38>
   187fe:	0004a023          	sw	zero,0(s1)
   18802:	08a00793          	li	a5,138
   18806:	c01c                	sw	a5,0(s0)
   18808:	70a2                	ld	ra,40(sp)
   1880a:	7402                	ld	s0,32(sp)
   1880c:	64e2                	ld	s1,24(sp)
   1880e:	6145                	addi	sp,sp,48
   18810:	8082                	ret
   18812:	e781                	bnez	a5,1881a <_wcrtomb_r+0x4a>
   18814:	67f5                	lui	a5,0x1d
   18816:	cd078793          	addi	a5,a5,-816 # 1ccd0 <__global_locale>
   1881a:	73fc                	ld	a5,224(a5)
   1881c:	86a6                	mv	a3,s1
   1881e:	bfd9                	j	187f4 <_wcrtomb_r+0x24>

0000000000018820 <wcrtomb>:
   18820:	86b2                	mv	a3,a2
   18822:	862e                	mv	a2,a1
   18824:	85aa                	mv	a1,a0
   18826:	8381b503          	ld	a0,-1992(gp) # 1ceb0 <_impure_ptr>
   1882a:	fa7ff06f          	j	187d0 <_wcrtomb_r>

000000000001882e <_close>:
   1882e:	1141                	addi	sp,sp,-16
   18830:	e406                	sd	ra,8(sp)
   18832:	e022                	sd	s0,0(sp)
   18834:	4581                	li	a1,0
   18836:	4601                	li	a2,0
   18838:	4681                	li	a3,0
   1883a:	4701                	li	a4,0
   1883c:	4781                	li	a5,0
   1883e:	03900893          	li	a7,57
   18842:	00000073          	ecall
   18846:	842a                	mv	s0,a0
   18848:	00055863          	bgez	a0,18858 <_close+0x2a>
   1884c:	4080043b          	negw	s0,s0
   18850:	1f8000ef          	jal	ra,18a48 <__errno>
   18854:	c100                	sw	s0,0(a0)
   18856:	547d                	li	s0,-1
   18858:	0004051b          	sext.w	a0,s0
   1885c:	60a2                	ld	ra,8(sp)
   1885e:	6402                	ld	s0,0(sp)
   18860:	0141                	addi	sp,sp,16
   18862:	8082                	ret

0000000000018864 <_exit>:
   18864:	4581                	li	a1,0
   18866:	4601                	li	a2,0
   18868:	4681                	li	a3,0
   1886a:	4701                	li	a4,0
   1886c:	4781                	li	a5,0
   1886e:	05d00893          	li	a7,93
   18872:	00000073          	ecall
   18876:	00055c63          	bgez	a0,1888e <_exit+0x2a>
   1887a:	1141                	addi	sp,sp,-16
   1887c:	e022                	sd	s0,0(sp)
   1887e:	842a                	mv	s0,a0
   18880:	e406                	sd	ra,8(sp)
   18882:	4080043b          	negw	s0,s0
   18886:	1c2000ef          	jal	ra,18a48 <__errno>
   1888a:	c100                	sw	s0,0(a0)
   1888c:	a001                	j	1888c <_exit+0x28>
   1888e:	a001                	j	1888e <_exit+0x2a>

0000000000018890 <_fstat>:
   18890:	7135                	addi	sp,sp,-160
   18892:	e526                	sd	s1,136(sp)
   18894:	ed06                	sd	ra,152(sp)
   18896:	84ae                	mv	s1,a1
   18898:	e922                	sd	s0,144(sp)
   1889a:	858a                	mv	a1,sp
   1889c:	4601                	li	a2,0
   1889e:	4681                	li	a3,0
   188a0:	4701                	li	a4,0
   188a2:	4781                	li	a5,0
   188a4:	05000893          	li	a7,80
   188a8:	00000073          	ecall
   188ac:	842a                	mv	s0,a0
   188ae:	00055863          	bgez	a0,188be <_fstat+0x2e>
   188b2:	4080043b          	negw	s0,s0
   188b6:	192000ef          	jal	ra,18a48 <__errno>
   188ba:	c100                	sw	s0,0(a0)
   188bc:	547d                	li	s0,-1
   188be:	8526                	mv	a0,s1
   188c0:	858a                	mv	a1,sp
   188c2:	144000ef          	jal	ra,18a06 <_conv_stat>
   188c6:	0004051b          	sext.w	a0,s0
   188ca:	60ea                	ld	ra,152(sp)
   188cc:	644a                	ld	s0,144(sp)
   188ce:	64aa                	ld	s1,136(sp)
   188d0:	610d                	addi	sp,sp,160
   188d2:	8082                	ret

00000000000188d4 <_isatty>:
   188d4:	7119                	addi	sp,sp,-128
   188d6:	002c                	addi	a1,sp,8
   188d8:	fc86                	sd	ra,120(sp)
   188da:	fb7ff0ef          	jal	ra,18890 <_fstat>
   188de:	57fd                	li	a5,-1
   188e0:	00f50663          	beq	a0,a5,188ec <_isatty+0x18>
   188e4:	4532                	lw	a0,12(sp)
   188e6:	40d5551b          	sraiw	a0,a0,0xd
   188ea:	8905                	andi	a0,a0,1
   188ec:	70e6                	ld	ra,120(sp)
   188ee:	6109                	addi	sp,sp,128
   188f0:	8082                	ret

00000000000188f2 <_lseek>:
   188f2:	1141                	addi	sp,sp,-16
   188f4:	e406                	sd	ra,8(sp)
   188f6:	e022                	sd	s0,0(sp)
   188f8:	4681                	li	a3,0
   188fa:	4701                	li	a4,0
   188fc:	4781                	li	a5,0
   188fe:	03e00893          	li	a7,62
   18902:	00000073          	ecall
   18906:	842a                	mv	s0,a0
   18908:	00055863          	bgez	a0,18918 <_lseek+0x26>
   1890c:	4080043b          	negw	s0,s0
   18910:	138000ef          	jal	ra,18a48 <__errno>
   18914:	c100                	sw	s0,0(a0)
   18916:	547d                	li	s0,-1
   18918:	8522                	mv	a0,s0
   1891a:	60a2                	ld	ra,8(sp)
   1891c:	6402                	ld	s0,0(sp)
   1891e:	0141                	addi	sp,sp,16
   18920:	8082                	ret

0000000000018922 <_read>:
   18922:	1141                	addi	sp,sp,-16
   18924:	e406                	sd	ra,8(sp)
   18926:	e022                	sd	s0,0(sp)
   18928:	4681                	li	a3,0
   1892a:	4701                	li	a4,0
   1892c:	4781                	li	a5,0
   1892e:	03f00893          	li	a7,63
   18932:	00000073          	ecall
   18936:	842a                	mv	s0,a0
   18938:	00055863          	bgez	a0,18948 <_read+0x26>
   1893c:	4080043b          	negw	s0,s0
   18940:	108000ef          	jal	ra,18a48 <__errno>
   18944:	c100                	sw	s0,0(a0)
   18946:	547d                	li	s0,-1
   18948:	8522                	mv	a0,s0
   1894a:	60a2                	ld	ra,8(sp)
   1894c:	6402                	ld	s0,0(sp)
   1894e:	0141                	addi	sp,sp,16
   18950:	8082                	ret

0000000000018952 <_sbrk>:
   18952:	1101                	addi	sp,sp,-32
   18954:	e822                	sd	s0,16(sp)
   18956:	8701b783          	ld	a5,-1936(gp) # 1cee8 <heap_end.2510>
   1895a:	e04a                	sd	s2,0(sp)
   1895c:	ec06                	sd	ra,24(sp)
   1895e:	e426                	sd	s1,8(sp)
   18960:	892a                	mv	s2,a0
   18962:	eb9d                	bnez	a5,18998 <_sbrk+0x46>
   18964:	4501                	li	a0,0
   18966:	4581                	li	a1,0
   18968:	4601                	li	a2,0
   1896a:	4681                	li	a3,0
   1896c:	4701                	li	a4,0
   1896e:	0d600893          	li	a7,214
   18972:	00000073          	ecall
   18976:	84aa                	mv	s1,a0
   18978:	00055e63          	bgez	a0,18994 <_sbrk+0x42>
   1897c:	0cc000ef          	jal	ra,18a48 <__errno>
   18980:	409004bb          	negw	s1,s1
   18984:	c104                	sw	s1,0(a0)
   18986:	557d                	li	a0,-1
   18988:	60e2                	ld	ra,24(sp)
   1898a:	6442                	ld	s0,16(sp)
   1898c:	64a2                	ld	s1,8(sp)
   1898e:	6902                	ld	s2,0(sp)
   18990:	6105                	addi	sp,sp,32
   18992:	8082                	ret
   18994:	86a1b823          	sd	a0,-1936(gp) # 1cee8 <heap_end.2510>
   18998:	8701b503          	ld	a0,-1936(gp) # 1cee8 <heap_end.2510>
   1899c:	4581                	li	a1,0
   1899e:	4601                	li	a2,0
   189a0:	954a                	add	a0,a0,s2
   189a2:	4681                	li	a3,0
   189a4:	4701                	li	a4,0
   189a6:	4781                	li	a5,0
   189a8:	0d600893          	li	a7,214
   189ac:	00000073          	ecall
   189b0:	84aa                	mv	s1,a0
   189b2:	00055863          	bgez	a0,189c2 <_sbrk+0x70>
   189b6:	409004bb          	negw	s1,s1
   189ba:	08e000ef          	jal	ra,18a48 <__errno>
   189be:	c104                	sw	s1,0(a0)
   189c0:	54fd                	li	s1,-1
   189c2:	8701b783          	ld	a5,-1936(gp) # 1cee8 <heap_end.2510>
   189c6:	557d                	li	a0,-1
   189c8:	993e                	add	s2,s2,a5
   189ca:	fb249fe3          	bne	s1,s2,18988 <_sbrk+0x36>
   189ce:	8691b823          	sd	s1,-1936(gp) # 1cee8 <heap_end.2510>
   189d2:	853e                	mv	a0,a5
   189d4:	bf55                	j	18988 <_sbrk+0x36>

00000000000189d6 <_write>:
   189d6:	1141                	addi	sp,sp,-16
   189d8:	e406                	sd	ra,8(sp)
   189da:	e022                	sd	s0,0(sp)
   189dc:	4681                	li	a3,0
   189de:	4701                	li	a4,0
   189e0:	4781                	li	a5,0
   189e2:	04000893          	li	a7,64
   189e6:	00000073          	ecall
   189ea:	842a                	mv	s0,a0
   189ec:	00055863          	bgez	a0,189fc <_write+0x26>
   189f0:	4080043b          	negw	s0,s0
   189f4:	054000ef          	jal	ra,18a48 <__errno>
   189f8:	c100                	sw	s0,0(a0)
   189fa:	547d                	li	s0,-1
   189fc:	8522                	mv	a0,s0
   189fe:	60a2                	ld	ra,8(sp)
   18a00:	6402                	ld	s0,0(sp)
   18a02:	0141                	addi	sp,sp,16
   18a04:	8082                	ret

0000000000018a06 <_conv_stat>:
   18a06:	619c                	ld	a5,0(a1)
   18a08:	00f51023          	sh	a5,0(a0)
   18a0c:	659c                	ld	a5,8(a1)
   18a0e:	00f51123          	sh	a5,2(a0)
   18a12:	499c                	lw	a5,16(a1)
   18a14:	c15c                	sw	a5,4(a0)
   18a16:	49dc                	lw	a5,20(a1)
   18a18:	00f51423          	sh	a5,8(a0)
   18a1c:	4d9c                	lw	a5,24(a1)
   18a1e:	00f51523          	sh	a5,10(a0)
   18a22:	4ddc                	lw	a5,28(a1)
   18a24:	00f51623          	sh	a5,12(a0)
   18a28:	719c                	ld	a5,32(a1)
   18a2a:	00f51723          	sh	a5,14(a0)
   18a2e:	799c                	ld	a5,48(a1)
   18a30:	e91c                	sd	a5,16(a0)
   18a32:	61bc                	ld	a5,64(a1)
   18a34:	e93c                	sd	a5,80(a0)
   18a36:	5d9c                	lw	a5,56(a1)
   18a38:	e53c                	sd	a5,72(a0)
   18a3a:	65bc                	ld	a5,72(a1)
   18a3c:	ed1c                	sd	a5,24(a0)
   18a3e:	6dbc                	ld	a5,88(a1)
   18a40:	f51c                	sd	a5,40(a0)
   18a42:	75bc                	ld	a5,104(a1)
   18a44:	fd1c                	sd	a5,56(a0)
   18a46:	8082                	ret

0000000000018a48 <__errno>:
   18a48:	8381b503          	ld	a0,-1992(gp) # 1ceb0 <_impure_ptr>
   18a4c:	8082                	ret

0000000000018a4e <__eqtf2>:
   18a4e:	1141                	addi	sp,sp,-16
   18a50:	002027f3          	frrm	a5
   18a54:	6721                	lui	a4,0x8
   18a56:	0305d813          	srli	a6,a1,0x30
   18a5a:	177d                	addi	a4,a4,-1
   18a5c:	57fd                	li	a5,-1
   18a5e:	83c1                	srli	a5,a5,0x10
   18a60:	0306d313          	srli	t1,a3,0x30
   18a64:	01077833          	and	a6,a4,a6
   18a68:	00f5f8b3          	and	a7,a1,a5
   18a6c:	00677333          	and	t1,a4,t1
   18a70:	8ff5                	and	a5,a5,a3
   18a72:	91fd                	srli	a1,a1,0x3f
   18a74:	92fd                	srli	a3,a3,0x3f
   18a76:	00e81963          	bne	a6,a4,18a88 <__eqtf2+0x3a>
   18a7a:	00a8e733          	or	a4,a7,a0
   18a7e:	ef11                	bnez	a4,18a9a <__eqtf2+0x4c>
   18a80:	4705                	li	a4,1
   18a82:	07031063          	bne	t1,a6,18ae2 <__eqtf2+0x94>
   18a86:	a019                	j	18a8c <__eqtf2+0x3e>
   18a88:	02e31e63          	bne	t1,a4,18ac4 <__eqtf2+0x76>
   18a8c:	00c7e733          	or	a4,a5,a2
   18a90:	cb15                	beqz	a4,18ac4 <__eqtf2+0x76>
   18a92:	6721                	lui	a4,0x8
   18a94:	177d                	addi	a4,a4,-1
   18a96:	00e81e63          	bne	a6,a4,18ab2 <__eqtf2+0x64>
   18a9a:	00a8e533          	or	a0,a7,a0
   18a9e:	c509                	beqz	a0,18aa8 <__eqtf2+0x5a>
   18aa0:	01089713          	slli	a4,a7,0x10
   18aa4:	04075363          	bgez	a4,18aea <__eqtf2+0x9c>
   18aa8:	6721                	lui	a4,0x8
   18aaa:	177d                	addi	a4,a4,-1
   18aac:	4505                	li	a0,1
   18aae:	00e31963          	bne	t1,a4,18ac0 <__eqtf2+0x72>
   18ab2:	8e5d                	or	a2,a2,a5
   18ab4:	4505                	li	a0,1
   18ab6:	c609                	beqz	a2,18ac0 <__eqtf2+0x72>
   18ab8:	02f51713          	slli	a4,a0,0x2f
   18abc:	8ff9                	and	a5,a5,a4
   18abe:	c795                	beqz	a5,18aea <__eqtf2+0x9c>
   18ac0:	0141                	addi	sp,sp,16
   18ac2:	8082                	ret
   18ac4:	4705                	li	a4,1
   18ac6:	00681e63          	bne	a6,t1,18ae2 <__eqtf2+0x94>
   18aca:	00f89c63          	bne	a7,a5,18ae2 <__eqtf2+0x94>
   18ace:	00c51a63          	bne	a0,a2,18ae2 <__eqtf2+0x94>
   18ad2:	00d58a63          	beq	a1,a3,18ae6 <__eqtf2+0x98>
   18ad6:	00081663          	bnez	a6,18ae2 <__eqtf2+0x94>
   18ada:	00a8e533          	or	a0,a7,a0
   18ade:	00a03733          	snez	a4,a0
   18ae2:	853a                	mv	a0,a4
   18ae4:	bff1                	j	18ac0 <__eqtf2+0x72>
   18ae6:	4701                	li	a4,0
   18ae8:	bfed                	j	18ae2 <__eqtf2+0x94>
   18aea:	00186073          	csrsi	fflags,16
   18aee:	4505                	li	a0,1
   18af0:	bfc1                	j	18ac0 <__eqtf2+0x72>

0000000000018af2 <__getf2>:
   18af2:	1141                	addi	sp,sp,-16
   18af4:	002027f3          	frrm	a5
   18af8:	68a1                	lui	a7,0x8
   18afa:	0305d713          	srli	a4,a1,0x30
   18afe:	18fd                	addi	a7,a7,-1
   18b00:	57fd                	li	a5,-1
   18b02:	83c1                	srli	a5,a5,0x10
   18b04:	0306d813          	srli	a6,a3,0x30
   18b08:	00e8f733          	and	a4,a7,a4
   18b0c:	00f5f333          	and	t1,a1,a5
   18b10:	0108f833          	and	a6,a7,a6
   18b14:	8ff5                	and	a5,a5,a3
   18b16:	91fd                	srli	a1,a1,0x3f
   18b18:	92fd                	srli	a3,a3,0x3f
   18b1a:	01171a63          	bne	a4,a7,18b2e <__getf2+0x3c>
   18b1e:	00a368b3          	or	a7,t1,a0
   18b22:	08088463          	beqz	a7,18baa <__getf2+0xb8>
   18b26:	00186073          	csrsi	fflags,16
   18b2a:	57f9                	li	a5,-2
   18b2c:	a089                	j	18b6e <__getf2+0x7c>
   18b2e:	01181c63          	bne	a6,a7,18b46 <__getf2+0x54>
   18b32:	00c7e8b3          	or	a7,a5,a2
   18b36:	fe0898e3          	bnez	a7,18b26 <__getf2+0x34>
   18b3a:	e31d                	bnez	a4,18b60 <__getf2+0x6e>
   18b3c:	00a368b3          	or	a7,t1,a0
   18b40:	0018b893          	seqz	a7,a7
   18b44:	a821                	j	18b5c <__getf2+0x6a>
   18b46:	e725                	bnez	a4,18bae <__getf2+0xbc>
   18b48:	00a368b3          	or	a7,t1,a0
   18b4c:	0018b893          	seqz	a7,a7
   18b50:	00081663          	bnez	a6,18b5c <__getf2+0x6a>
   18b54:	00c7ee33          	or	t3,a5,a2
   18b58:	040e0563          	beqz	t3,18ba2 <__getf2+0xb0>
   18b5c:	00089c63          	bnez	a7,18b74 <__getf2+0x82>
   18b60:	00d59463          	bne	a1,a3,18b68 <__getf2+0x76>
   18b64:	00e85c63          	ble	a4,a6,18b7c <__getf2+0x8a>
   18b68:	4785                	li	a5,1
   18b6a:	c191                	beqz	a1,18b6e <__getf2+0x7c>
   18b6c:	57fd                	li	a5,-1
   18b6e:	853e                	mv	a0,a5
   18b70:	0141                	addi	sp,sp,16
   18b72:	8082                	ret
   18b74:	57fd                	li	a5,-1
   18b76:	dee5                	beqz	a3,18b6e <__getf2+0x7c>
   18b78:	4785                	li	a5,1
   18b7a:	bfd5                	j	18b6e <__getf2+0x7c>
   18b7c:	01075563          	ble	a6,a4,18b86 <__getf2+0x94>
   18b80:	57fd                	li	a5,-1
   18b82:	f9fd                	bnez	a1,18b78 <__getf2+0x86>
   18b84:	b7ed                	j	18b6e <__getf2+0x7c>
   18b86:	fe67e1e3          	bltu	a5,t1,18b68 <__getf2+0x76>
   18b8a:	00f31863          	bne	t1,a5,18b9a <__getf2+0xa8>
   18b8e:	fca66de3          	bltu	a2,a0,18b68 <__getf2+0x76>
   18b92:	4781                	li	a5,0
   18b94:	fcc57de3          	bleu	a2,a0,18b6e <__getf2+0x7c>
   18b98:	b7e5                	j	18b80 <__getf2+0x8e>
   18b9a:	fef363e3          	bltu	t1,a5,18b80 <__getf2+0x8e>
   18b9e:	4781                	li	a5,0
   18ba0:	b7f9                	j	18b6e <__getf2+0x7c>
   18ba2:	4781                	li	a5,0
   18ba4:	fc0895e3          	bnez	a7,18b6e <__getf2+0x7c>
   18ba8:	b7c1                	j	18b68 <__getf2+0x76>
   18baa:	f8e804e3          	beq	a6,a4,18b32 <__getf2+0x40>
   18bae:	4881                	li	a7,0
   18bb0:	fa0802e3          	beqz	a6,18b54 <__getf2+0x62>
   18bb4:	b775                	j	18b60 <__getf2+0x6e>

0000000000018bb6 <__letf2>:
   18bb6:	1141                	addi	sp,sp,-16
   18bb8:	002027f3          	frrm	a5
   18bbc:	68a1                	lui	a7,0x8
   18bbe:	0305d713          	srli	a4,a1,0x30
   18bc2:	18fd                	addi	a7,a7,-1
   18bc4:	57fd                	li	a5,-1
   18bc6:	83c1                	srli	a5,a5,0x10
   18bc8:	0306d813          	srli	a6,a3,0x30
   18bcc:	00e8f733          	and	a4,a7,a4
   18bd0:	00f5f333          	and	t1,a1,a5
   18bd4:	0108f833          	and	a6,a7,a6
   18bd8:	8ff5                	and	a5,a5,a3
   18bda:	91fd                	srli	a1,a1,0x3f
   18bdc:	92fd                	srli	a3,a3,0x3f
   18bde:	01171a63          	bne	a4,a7,18bf2 <__letf2+0x3c>
   18be2:	00a368b3          	or	a7,t1,a0
   18be6:	08088463          	beqz	a7,18c6e <__letf2+0xb8>
   18bea:	00186073          	csrsi	fflags,16
   18bee:	4789                	li	a5,2
   18bf0:	a089                	j	18c32 <__letf2+0x7c>
   18bf2:	01181c63          	bne	a6,a7,18c0a <__letf2+0x54>
   18bf6:	00c7e8b3          	or	a7,a5,a2
   18bfa:	fe0898e3          	bnez	a7,18bea <__letf2+0x34>
   18bfe:	e31d                	bnez	a4,18c24 <__letf2+0x6e>
   18c00:	00a368b3          	or	a7,t1,a0
   18c04:	0018b893          	seqz	a7,a7
   18c08:	a821                	j	18c20 <__letf2+0x6a>
   18c0a:	e725                	bnez	a4,18c72 <__letf2+0xbc>
   18c0c:	00a368b3          	or	a7,t1,a0
   18c10:	0018b893          	seqz	a7,a7
   18c14:	00081663          	bnez	a6,18c20 <__letf2+0x6a>
   18c18:	00c7ee33          	or	t3,a5,a2
   18c1c:	040e0563          	beqz	t3,18c66 <__letf2+0xb0>
   18c20:	00089c63          	bnez	a7,18c38 <__letf2+0x82>
   18c24:	00d59463          	bne	a1,a3,18c2c <__letf2+0x76>
   18c28:	00e85c63          	ble	a4,a6,18c40 <__letf2+0x8a>
   18c2c:	4785                	li	a5,1
   18c2e:	c191                	beqz	a1,18c32 <__letf2+0x7c>
   18c30:	57fd                	li	a5,-1
   18c32:	853e                	mv	a0,a5
   18c34:	0141                	addi	sp,sp,16
   18c36:	8082                	ret
   18c38:	57fd                	li	a5,-1
   18c3a:	dee5                	beqz	a3,18c32 <__letf2+0x7c>
   18c3c:	4785                	li	a5,1
   18c3e:	bfd5                	j	18c32 <__letf2+0x7c>
   18c40:	01075563          	ble	a6,a4,18c4a <__letf2+0x94>
   18c44:	57fd                	li	a5,-1
   18c46:	f9fd                	bnez	a1,18c3c <__letf2+0x86>
   18c48:	b7ed                	j	18c32 <__letf2+0x7c>
   18c4a:	fe67e1e3          	bltu	a5,t1,18c2c <__letf2+0x76>
   18c4e:	00f31863          	bne	t1,a5,18c5e <__letf2+0xa8>
   18c52:	fca66de3          	bltu	a2,a0,18c2c <__letf2+0x76>
   18c56:	4781                	li	a5,0
   18c58:	fcc57de3          	bleu	a2,a0,18c32 <__letf2+0x7c>
   18c5c:	b7e5                	j	18c44 <__letf2+0x8e>
   18c5e:	fef363e3          	bltu	t1,a5,18c44 <__letf2+0x8e>
   18c62:	4781                	li	a5,0
   18c64:	b7f9                	j	18c32 <__letf2+0x7c>
   18c66:	4781                	li	a5,0
   18c68:	fc0895e3          	bnez	a7,18c32 <__letf2+0x7c>
   18c6c:	b7c1                	j	18c2c <__letf2+0x76>
   18c6e:	f8e804e3          	beq	a6,a4,18bf6 <__letf2+0x40>
   18c72:	4881                	li	a7,0
   18c74:	fa0802e3          	beqz	a6,18c18 <__letf2+0x62>
   18c78:	b775                	j	18c24 <__letf2+0x6e>

0000000000018c7a <__multf3>:
   18c7a:	7159                	addi	sp,sp,-112
   18c7c:	fc56                	sd	s5,56(sp)
   18c7e:	ec66                	sd	s9,24(sp)
   18c80:	f486                	sd	ra,104(sp)
   18c82:	f0a2                	sd	s0,96(sp)
   18c84:	eca6                	sd	s1,88(sp)
   18c86:	e8ca                	sd	s2,80(sp)
   18c88:	e4ce                	sd	s3,72(sp)
   18c8a:	e0d2                	sd	s4,64(sp)
   18c8c:	f85a                	sd	s6,48(sp)
   18c8e:	f45e                	sd	s7,40(sp)
   18c90:	f062                	sd	s8,32(sp)
   18c92:	8cb2                	mv	s9,a2
   18c94:	8ab6                	mv	s5,a3
   18c96:	00202a73          	frrm	s4
   18c9a:	57fd                	li	a5,-1
   18c9c:	83c1                	srli	a5,a5,0x10
   18c9e:	00f5f4b3          	and	s1,a1,a5
   18ca2:	67a1                	lui	a5,0x8
   18ca4:	0305db93          	srli	s7,a1,0x30
   18ca8:	17fd                	addi	a5,a5,-1
   18caa:	0177f6b3          	and	a3,a5,s7
   18cae:	00068b9b          	sext.w	s7,a3
   18cb2:	2a01                	sext.w	s4,s4
   18cb4:	03f5db13          	srli	s6,a1,0x3f
   18cb8:	020b8763          	beqz	s7,18ce6 <__multf3+0x6c>
   18cbc:	842a                	mv	s0,a0
   18cbe:	08fb8463          	beq	s7,a5,18d46 <__multf3+0xcc>
   18cc2:	4585                	li	a1,1
   18cc4:	03d55613          	srli	a2,a0,0x3d
   18cc8:	15ce                	slli	a1,a1,0x33
   18cca:	00351413          	slli	s0,a0,0x3
   18cce:	7571                	lui	a0,0xffffc
   18cd0:	00349793          	slli	a5,s1,0x3
   18cd4:	8e4d                	or	a2,a2,a1
   18cd6:	0505                	addi	a0,a0,1
   18cd8:	00f664b3          	or	s1,a2,a5
   18cdc:	00a68bb3          	add	s7,a3,a0
   18ce0:	4c01                	li	s8,0
   18ce2:	4901                	li	s2,0
   18ce4:	a895                	j	18d58 <__multf3+0xde>
   18ce6:	00a4e7b3          	or	a5,s1,a0
   18cea:	892a                	mv	s2,a0
   18cec:	cfe1                	beqz	a5,18dc4 <__multf3+0x14a>
   18cee:	c0a1                	beqz	s1,18d2e <__multf3+0xb4>
   18cf0:	8526                	mv	a0,s1
   18cf2:	256010ef          	jal	ra,19f48 <__clzdi2>
   18cf6:	2501                	sext.w	a0,a0
   18cf8:	ff150793          	addi	a5,a0,-15 # ffffffffffffbff1 <__global_pointer$+0xfffffffffffde979>
   18cfc:	03c00713          	li	a4,60
   18d00:	0007861b          	sext.w	a2,a5
   18d04:	02f74b63          	blt	a4,a5,18d3a <__multf3+0xc0>
   18d08:	03d00593          	li	a1,61
   18d0c:	0036041b          	addiw	s0,a2,3
   18d10:	40c5863b          	subw	a2,a1,a2
   18d14:	008497b3          	sll	a5,s1,s0
   18d18:	00c95633          	srl	a2,s2,a2
   18d1c:	00f664b3          	or	s1,a2,a5
   18d20:	00891433          	sll	s0,s2,s0
   18d24:	7bf1                	lui	s7,0xffffc
   18d26:	0bc5                	addi	s7,s7,17
   18d28:	40ab8bb3          	sub	s7,s7,a0
   18d2c:	bf55                	j	18ce0 <__multf3+0x66>
   18d2e:	21a010ef          	jal	ra,19f48 <__clzdi2>
   18d32:	2501                	sext.w	a0,a0
   18d34:	04050513          	addi	a0,a0,64
   18d38:	b7c1                	j	18cf8 <__multf3+0x7e>
   18d3a:	fc36079b          	addiw	a5,a2,-61
   18d3e:	00f914b3          	sll	s1,s2,a5
   18d42:	4401                	li	s0,0
   18d44:	b7c5                	j	18d24 <__multf3+0xaa>
   18d46:	00a4e7b3          	or	a5,s1,a0
   18d4a:	c3d1                	beqz	a5,18dce <__multf3+0x154>
   18d4c:	01049793          	slli	a5,s1,0x10
   18d50:	4c0d                	li	s8,3
   18d52:	4941                	li	s2,16
   18d54:	f807c7e3          	bltz	a5,18ce2 <__multf3+0x68>
   18d58:	67a1                	lui	a5,0x8
   18d5a:	030ad513          	srli	a0,s5,0x30
   18d5e:	17fd                	addi	a5,a5,-1
   18d60:	59fd                	li	s3,-1
   18d62:	00a7f633          	and	a2,a5,a0
   18d66:	e456                	sd	s5,8(sp)
   18d68:	0109d993          	srli	s3,s3,0x10
   18d6c:	0006051b          	sext.w	a0,a2
   18d70:	013af9b3          	and	s3,s5,s3
   18d74:	8766                	mv	a4,s9
   18d76:	03fada93          	srli	s5,s5,0x3f
   18d7a:	cd31                	beqz	a0,18dd6 <__multf3+0x15c>
   18d7c:	0af50e63          	beq	a0,a5,18e38 <__multf3+0x1be>
   18d80:	4685                	li	a3,1
   18d82:	03dcd793          	srli	a5,s9,0x3d
   18d86:	16ce                	slli	a3,a3,0x33
   18d88:	8fd5                	or	a5,a5,a3
   18d8a:	098e                	slli	s3,s3,0x3
   18d8c:	0137e9b3          	or	s3,a5,s3
   18d90:	77f1                	lui	a5,0xffffc
   18d92:	0785                	addi	a5,a5,1
   18d94:	003c9713          	slli	a4,s9,0x3
   18d98:	00f60533          	add	a0,a2,a5
   18d9c:	4681                	li	a3,0
   18d9e:	002c1793          	slli	a5,s8,0x2
   18da2:	8fd5                	or	a5,a5,a3
   18da4:	955e                	add	a0,a0,s7
   18da6:	17fd                	addi	a5,a5,-1
   18da8:	45b9                	li	a1,14
   18daa:	015b4633          	xor	a2,s6,s5
   18dae:	00150813          	addi	a6,a0,1
   18db2:	0cf5e963          	bltu	a1,a5,18e84 <__multf3+0x20a>
   18db6:	65ed                	lui	a1,0x1b
   18db8:	078a                	slli	a5,a5,0x2
   18dba:	c2058593          	addi	a1,a1,-992 # 1ac20 <zeroes.4403+0x10>
   18dbe:	97ae                	add	a5,a5,a1
   18dc0:	439c                	lw	a5,0(a5)
   18dc2:	8782                	jr	a5
   18dc4:	4481                	li	s1,0
   18dc6:	4401                	li	s0,0
   18dc8:	4b81                	li	s7,0
   18dca:	4c05                	li	s8,1
   18dcc:	bf19                	j	18ce2 <__multf3+0x68>
   18dce:	4481                	li	s1,0
   18dd0:	4401                	li	s0,0
   18dd2:	4c09                	li	s8,2
   18dd4:	b739                	j	18ce2 <__multf3+0x68>
   18dd6:	0199e7b3          	or	a5,s3,s9
   18dda:	cbad                	beqz	a5,18e4c <__multf3+0x1d2>
   18ddc:	04098163          	beqz	s3,18e1e <__multf3+0x1a4>
   18de0:	854e                	mv	a0,s3
   18de2:	166010ef          	jal	ra,19f48 <__clzdi2>
   18de6:	2501                	sext.w	a0,a0
   18de8:	ff150713          	addi	a4,a0,-15
   18dec:	03c00693          	li	a3,60
   18df0:	0007079b          	sext.w	a5,a4
   18df4:	02e6cc63          	blt	a3,a4,18e2c <__multf3+0x1b2>
   18df8:	03d00693          	li	a3,61
   18dfc:	0037871b          	addiw	a4,a5,3
   18e00:	40f687bb          	subw	a5,a3,a5
   18e04:	00e999b3          	sll	s3,s3,a4
   18e08:	00fcd7b3          	srl	a5,s9,a5
   18e0c:	0137e9b3          	or	s3,a5,s3
   18e10:	00ec9733          	sll	a4,s9,a4
   18e14:	77f1                	lui	a5,0xffffc
   18e16:	07c5                	addi	a5,a5,17
   18e18:	40a78533          	sub	a0,a5,a0
   18e1c:	b741                	j	18d9c <__multf3+0x122>
   18e1e:	8566                	mv	a0,s9
   18e20:	128010ef          	jal	ra,19f48 <__clzdi2>
   18e24:	2501                	sext.w	a0,a0
   18e26:	04050513          	addi	a0,a0,64
   18e2a:	bf7d                	j	18de8 <__multf3+0x16e>
   18e2c:	fc37899b          	addiw	s3,a5,-61
   18e30:	013c99b3          	sll	s3,s9,s3
   18e34:	4701                	li	a4,0
   18e36:	bff9                	j	18e14 <__multf3+0x19a>
   18e38:	0199e7b3          	or	a5,s3,s9
   18e3c:	cf89                	beqz	a5,18e56 <__multf3+0x1dc>
   18e3e:	01099793          	slli	a5,s3,0x10
   18e42:	468d                	li	a3,3
   18e44:	f407cde3          	bltz	a5,18d9e <__multf3+0x124>
   18e48:	4941                	li	s2,16
   18e4a:	bf91                	j	18d9e <__multf3+0x124>
   18e4c:	4981                	li	s3,0
   18e4e:	4701                	li	a4,0
   18e50:	4501                	li	a0,0
   18e52:	4685                	li	a3,1
   18e54:	b7a9                	j	18d9e <__multf3+0x124>
   18e56:	4981                	li	s3,0
   18e58:	4701                	li	a4,0
   18e5a:	4689                	li	a3,2
   18e5c:	b789                	j	18d9e <__multf3+0x124>
   18e5e:	4785                	li	a5,1
   18e60:	02f79493          	slli	s1,a5,0x2f
   18e64:	4401                	li	s0,0
   18e66:	4601                	li	a2,0
   18e68:	4c0d                	li	s8,3
   18e6a:	4789                	li	a5,2
   18e6c:	44fc0d63          	beq	s8,a5,192c6 <__multf3+0x64c>
   18e70:	478d                	li	a5,3
   18e72:	42fc0963          	beq	s8,a5,192a4 <__multf3+0x62a>
   18e76:	4785                	li	a5,1
   18e78:	1cfc1463          	bne	s8,a5,19040 <__multf3+0x3c6>
   18e7c:	4701                	li	a4,0
   18e7e:	4501                	li	a0,0
   18e80:	4781                	li	a5,0
   18e82:	a481                	j	190c2 <__multf3+0x448>
   18e84:	57fd                	li	a5,-1
   18e86:	9381                	srli	a5,a5,0x20
   18e88:	00848b33          	add	s6,s1,s0
   18e8c:	01370ab3          	add	s5,a4,s3
   18e90:	02045f93          	srli	t6,s0,0x20
   18e94:	02075593          	srli	a1,a4,0x20
   18e98:	008b32b3          	sltu	t0,s6,s0
   18e9c:	00eab3b3          	sltu	t2,s5,a4
   18ea0:	8c7d                	and	s0,s0,a5
   18ea2:	8f7d                	and	a4,a4,a5
   18ea4:	02870333          	mul	t1,a4,s0
   18ea8:	00028e9b          	sext.w	t4,t0
   18eac:	0003869b          	sext.w	a3,t2
   18eb0:	02ef8733          	mul	a4,t6,a4
   18eb4:	02bf87b3          	mul	a5,t6,a1
   18eb8:	028585b3          	mul	a1,a1,s0
   18ebc:	02035413          	srli	s0,t1,0x20
   18ec0:	95ba                	add	a1,a1,a4
   18ec2:	942e                	add	s0,s0,a1
   18ec4:	00e47563          	bleu	a4,s0,18ece <__multf3+0x254>
   18ec8:	4705                	li	a4,1
   18eca:	1702                	slli	a4,a4,0x20
   18ecc:	97ba                	add	a5,a5,a4
   18ece:	02045f93          	srli	t6,s0,0x20
   18ed2:	9fbe                	add	t6,t6,a5
   18ed4:	57fd                	li	a5,-1
   18ed6:	9381                	srli	a5,a5,0x20
   18ed8:	00fb75b3          	and	a1,s6,a5
   18edc:	00f478b3          	and	a7,s0,a5
   18ee0:	00f37333          	and	t1,t1,a5
   18ee4:	020b5b93          	srli	s7,s6,0x20
   18ee8:	020adf13          	srli	t5,s5,0x20
   18eec:	00faf7b3          	and	a5,s5,a5
   18ef0:	02f58733          	mul	a4,a1,a5
   18ef4:	1882                	slli	a7,a7,0x20
   18ef6:	989a                	add	a7,a7,t1
   18ef8:	02fb87b3          	mul	a5,s7,a5
   18efc:	03eb8bb3          	mul	s7,s7,t5
   18f00:	02bf0f33          	mul	t5,t5,a1
   18f04:	02075593          	srli	a1,a4,0x20
   18f08:	9f3e                	add	t5,t5,a5
   18f0a:	95fa                	add	a1,a1,t5
   18f0c:	00f5f563          	bleu	a5,a1,18f16 <__multf3+0x29c>
   18f10:	4785                	li	a5,1
   18f12:	1782                	slli	a5,a5,0x20
   18f14:	9bbe                	add	s7,s7,a5
   18f16:	5f7d                	li	t5,-1
   18f18:	020f5f13          	srli	t5,t5,0x20
   18f1c:	0205de13          	srli	t3,a1,0x20
   18f20:	01e5f5b3          	and	a1,a1,t5
   18f24:	1582                	slli	a1,a1,0x20
   18f26:	01e77733          	and	a4,a4,t5
   18f2a:	0209d313          	srli	t1,s3,0x20
   18f2e:	01e4f7b3          	and	a5,s1,t5
   18f32:	01e9f9b3          	and	s3,s3,t5
   18f36:	972e                	add	a4,a4,a1
   18f38:	0204d593          	srli	a1,s1,0x20
   18f3c:	03378f33          	mul	t5,a5,s3
   18f40:	033589b3          	mul	s3,a1,s3
   18f44:	020f5493          	srli	s1,t5,0x20
   18f48:	026585b3          	mul	a1,a1,t1
   18f4c:	02f30333          	mul	t1,t1,a5
   18f50:	934e                	add	t1,t1,s3
   18f52:	949a                	add	s1,s1,t1
   18f54:	0134f563          	bleu	s3,s1,18f5e <__multf3+0x2e4>
   18f58:	4785                	li	a5,1
   18f5a:	1782                	slli	a5,a5,0x20
   18f5c:	95be                	add	a1,a1,a5
   18f5e:	537d                	li	t1,-1
   18f60:	02035313          	srli	t1,t1,0x20
   18f64:	977e                	add	a4,a4,t6
   18f66:	0064f7b3          	and	a5,s1,t1
   18f6a:	006f7f33          	and	t5,t5,t1
   18f6e:	01f73333          	sltu	t1,a4,t6
   18f72:	9e1a                	add	t3,t3,t1
   18f74:	40d006bb          	negw	a3,a3
   18f78:	9bf2                	add	s7,s7,t3
   18f7a:	0166f6b3          	and	a3,a3,s6
   18f7e:	41d00e3b          	negw	t3,t4
   18f82:	96de                	add	a3,a3,s7
   18f84:	006bb333          	sltu	t1,s7,t1
   18f88:	0072f2b3          	and	t0,t0,t2
   18f8c:	015e7ab3          	and	s5,t3,s5
   18f90:	00da8e33          	add	t3,s5,a3
   18f94:	9316                	add	t1,t1,t0
   18f96:	0176bbb3          	sltu	s7,a3,s7
   18f9a:	1782                	slli	a5,a5,0x20
   18f9c:	935e                	add	t1,t1,s7
   18f9e:	97fa                	add	a5,a5,t5
   18fa0:	00de36b3          	sltu	a3,t3,a3
   18fa4:	41170f33          	sub	t5,a4,a7
   18fa8:	0204d413          	srli	s0,s1,0x20
   18fac:	969a                	add	a3,a3,t1
   18fae:	01e732b3          	sltu	t0,a4,t5
   18fb2:	41fe0333          	sub	t1,t3,t6
   18fb6:	006e3eb3          	sltu	t4,t3,t1
   18fba:	95a2                	add	a1,a1,s0
   18fbc:	40530333          	sub	t1,t1,t0
   18fc0:	4481                	li	s1,0
   18fc2:	01e77663          	bleu	t5,a4,18fce <__multf3+0x354>
   18fc6:	41cf8e33          	sub	t3,t6,t3
   18fca:	001e3493          	seqz	s1,t3
   18fce:	01d4ee33          	or	t3,s1,t4
   18fd2:	40ff0eb3          	sub	t4,t5,a5
   18fd6:	96ae                	add	a3,a3,a1
   18fd8:	01df3433          	sltu	s0,t5,t4
   18fdc:	40b305b3          	sub	a1,t1,a1
   18fe0:	00b33333          	sltu	t1,t1,a1
   18fe4:	40878433          	sub	s0,a5,s0
   18fe8:	4481                	li	s1,0
   18fea:	01df7463          	bleu	t4,t5,18ff2 <__multf3+0x378>
   18fee:	0015b493          	seqz	s1,a1
   18ff2:	95a2                	add	a1,a1,s0
   18ff4:	00f5b7b3          	sltu	a5,a1,a5
   18ff8:	97b6                	add	a5,a5,a3
   18ffa:	0064e333          	or	t1,s1,t1
   18ffe:	41c787b3          	sub	a5,a5,t3
   19002:	00de9413          	slli	s0,t4,0xd
   19006:	406787b3          	sub	a5,a5,t1
   1900a:	07b6                	slli	a5,a5,0xd
   1900c:	0335d713          	srli	a4,a1,0x33
   19010:	01146433          	or	s0,s0,a7
   19014:	00e7e4b3          	or	s1,a5,a4
   19018:	00803433          	snez	s0,s0
   1901c:	033ede93          	srli	t4,t4,0x33
   19020:	01d46433          	or	s0,s0,t4
   19024:	05b6                	slli	a1,a1,0xd
   19026:	00b49793          	slli	a5,s1,0xb
   1902a:	8c4d                	or	s0,s0,a1
   1902c:	0407df63          	bgez	a5,1908a <__multf3+0x410>
   19030:	00145793          	srli	a5,s0,0x1
   19034:	8805                	andi	s0,s0,1
   19036:	03f49513          	slli	a0,s1,0x3f
   1903a:	8c5d                	or	s0,s0,a5
   1903c:	8c49                	or	s0,s0,a0
   1903e:	8085                	srli	s1,s1,0x1
   19040:	6791                	lui	a5,0x4
   19042:	17fd                	addi	a5,a5,-1
   19044:	97c2                	add	a5,a5,a6
   19046:	10f05763          	blez	a5,19154 <__multf3+0x4da>
   1904a:	00747713          	andi	a4,s0,7
   1904e:	c729                	beqz	a4,19098 <__multf3+0x41e>
   19050:	4709                	li	a4,2
   19052:	00196913          	ori	s2,s2,1
   19056:	04ea0063          	beq	s4,a4,19096 <__multf3+0x41c>
   1905a:	470d                	li	a4,3
   1905c:	02ea0963          	beq	s4,a4,1908e <__multf3+0x414>
   19060:	020a1c63          	bnez	s4,19098 <__multf3+0x41e>
   19064:	00f47713          	andi	a4,s0,15
   19068:	4691                	li	a3,4
   1906a:	02d70763          	beq	a4,a3,19098 <__multf3+0x41e>
   1906e:	00440713          	addi	a4,s0,4
   19072:	00873433          	sltu	s0,a4,s0
   19076:	94a2                	add	s1,s1,s0
   19078:	843a                	mv	s0,a4
   1907a:	a839                	j	19098 <__multf3+0x41e>
   1907c:	865a                	mv	a2,s6
   1907e:	b3f5                	j	18e6a <__multf3+0x1f0>
   19080:	8656                	mv	a2,s5
   19082:	84ce                	mv	s1,s3
   19084:	843a                	mv	s0,a4
   19086:	8c36                	mv	s8,a3
   19088:	b3cd                	j	18e6a <__multf3+0x1f0>
   1908a:	882a                	mv	a6,a0
   1908c:	bf55                	j	19040 <__multf3+0x3c6>
   1908e:	e609                	bnez	a2,19098 <__multf3+0x41e>
   19090:	00840713          	addi	a4,s0,8
   19094:	bff9                	j	19072 <__multf3+0x3f8>
   19096:	fe6d                	bnez	a2,19090 <__multf3+0x416>
   19098:	00b49713          	slli	a4,s1,0xb
   1909c:	00075863          	bgez	a4,190ac <__multf3+0x432>
   190a0:	57fd                	li	a5,-1
   190a2:	17d2                	slli	a5,a5,0x34
   190a4:	17fd                	addi	a5,a5,-1
   190a6:	8cfd                	and	s1,s1,a5
   190a8:	6791                	lui	a5,0x4
   190aa:	97c2                	add	a5,a5,a6
   190ac:	6721                	lui	a4,0x8
   190ae:	ffe70693          	addi	a3,a4,-2 # 7ffe <_start-0x80b2>
   190b2:	06f6c963          	blt	a3,a5,19124 <__multf3+0x4aa>
   190b6:	800d                	srli	s0,s0,0x3
   190b8:	03d49513          	slli	a0,s1,0x3d
   190bc:	8d41                	or	a0,a0,s0
   190be:	0034d713          	srli	a4,s1,0x3
   190c2:	56fd                	li	a3,-1
   190c4:	0106d593          	srli	a1,a3,0x10
   190c8:	8f6d                	and	a4,a4,a1
   190ca:	03069593          	slli	a1,a3,0x30
   190ce:	66a2                	ld	a3,8(sp)
   190d0:	061e                	slli	a2,a2,0x7
   190d2:	8eed                	and	a3,a3,a1
   190d4:	8f55                	or	a4,a4,a3
   190d6:	66a1                	lui	a3,0x8
   190d8:	16fd                	addi	a3,a3,-1
   190da:	e43a                	sd	a4,8(sp)
   190dc:	8ff5                	and	a5,a5,a3
   190de:	9341                	srli	a4,a4,0x30
   190e0:	76e1                	lui	a3,0xffff8
   190e2:	8f75                	and	a4,a4,a3
   190e4:	8fd9                	or	a5,a5,a4
   190e6:	0107971b          	slliw	a4,a5,0x10
   190ea:	0107571b          	srliw	a4,a4,0x10
   190ee:	0087571b          	srliw	a4,a4,0x8
   190f2:	07f77713          	andi	a4,a4,127
   190f6:	00f11723          	sh	a5,14(sp)
   190fa:	8e59                	or	a2,a2,a4
   190fc:	00c107a3          	sb	a2,15(sp)
   19100:	65a2                	ld	a1,8(sp)
   19102:	00090463          	beqz	s2,1910a <__multf3+0x490>
   19106:	00192073          	csrs	fflags,s2
   1910a:	70a6                	ld	ra,104(sp)
   1910c:	7406                	ld	s0,96(sp)
   1910e:	64e6                	ld	s1,88(sp)
   19110:	6946                	ld	s2,80(sp)
   19112:	69a6                	ld	s3,72(sp)
   19114:	6a06                	ld	s4,64(sp)
   19116:	7ae2                	ld	s5,56(sp)
   19118:	7b42                	ld	s6,48(sp)
   1911a:	7ba2                	ld	s7,40(sp)
   1911c:	7c02                	ld	s8,32(sp)
   1911e:	6ce2                	ld	s9,24(sp)
   19120:	6165                	addi	sp,sp,112
   19122:	8082                	ret
   19124:	4789                	li	a5,2
   19126:	02fa0263          	beq	s4,a5,1914a <__multf3+0x4d0>
   1912a:	458d                	li	a1,3
   1912c:	fff70793          	addi	a5,a4,-1
   19130:	00ba0663          	beq	s4,a1,1913c <__multf3+0x4c2>
   19134:	000a1563          	bnez	s4,1913e <__multf3+0x4c4>
   19138:	4501                	li	a0,0
   1913a:	a021                	j	19142 <__multf3+0x4c8>
   1913c:	de75                	beqz	a2,19138 <__multf3+0x4be>
   1913e:	557d                	li	a0,-1
   19140:	87b6                	mv	a5,a3
   19142:	00596913          	ori	s2,s2,5
   19146:	872a                	mv	a4,a0
   19148:	bfad                	j	190c2 <__multf3+0x448>
   1914a:	da75                	beqz	a2,1913e <__multf3+0x4c4>
   1914c:	4501                	li	a0,0
   1914e:	fff70793          	addi	a5,a4,-1
   19152:	bfc5                	j	19142 <__multf3+0x4c8>
   19154:	4585                	li	a1,1
   19156:	e7b9                	bnez	a5,191a4 <__multf3+0x52a>
   19158:	00747693          	andi	a3,s0,7
   1915c:	8726                	mv	a4,s1
   1915e:	ce95                	beqz	a3,1919a <__multf3+0x520>
   19160:	4709                	li	a4,2
   19162:	00196913          	ori	s2,s2,1
   19166:	02ea0863          	beq	s4,a4,19196 <__multf3+0x51c>
   1916a:	470d                	li	a4,3
   1916c:	02ea0063          	beq	s4,a4,1918c <__multf3+0x512>
   19170:	8726                	mv	a4,s1
   19172:	020a1463          	bnez	s4,1919a <__multf3+0x520>
   19176:	00f47693          	andi	a3,s0,15
   1917a:	4591                	li	a1,4
   1917c:	00b68f63          	beq	a3,a1,1919a <__multf3+0x520>
   19180:	ffc43713          	sltiu	a4,s0,-4
   19184:	00174713          	xori	a4,a4,1
   19188:	9726                	add	a4,a4,s1
   1918a:	a801                	j	1919a <__multf3+0x520>
   1918c:	8726                	mv	a4,s1
   1918e:	e611                	bnez	a2,1919a <__multf3+0x520>
   19190:	ff843713          	sltiu	a4,s0,-8
   19194:	bfc5                	j	19184 <__multf3+0x50a>
   19196:	8726                	mv	a4,s1
   19198:	fe65                	bnez	a2,19190 <__multf3+0x516>
   1919a:	9351                	srli	a4,a4,0x34
   1919c:	00174713          	xori	a4,a4,1
   191a0:	00177593          	andi	a1,a4,1
   191a4:	4705                	li	a4,1
   191a6:	8f1d                	sub	a4,a4,a5
   191a8:	07400793          	li	a5,116
   191ac:	0ce7c163          	blt	a5,a4,1926e <__multf3+0x5f4>
   191b0:	03f00793          	li	a5,63
   191b4:	0007069b          	sext.w	a3,a4
   191b8:	04e7ca63          	blt	a5,a4,1920c <__multf3+0x592>
   191bc:	04000793          	li	a5,64
   191c0:	9f95                	subw	a5,a5,a3
   191c2:	00f49533          	sll	a0,s1,a5
   191c6:	00d45733          	srl	a4,s0,a3
   191ca:	00f41433          	sll	s0,s0,a5
   191ce:	8d59                	or	a0,a0,a4
   191d0:	00803433          	snez	s0,s0
   191d4:	8d41                	or	a0,a0,s0
   191d6:	00d4d7b3          	srl	a5,s1,a3
   191da:	00757713          	andi	a4,a0,7
   191de:	cf31                	beqz	a4,1923a <__multf3+0x5c0>
   191e0:	4709                	li	a4,2
   191e2:	00196913          	ori	s2,s2,1
   191e6:	04ea0963          	beq	s4,a4,19238 <__multf3+0x5be>
   191ea:	470d                	li	a4,3
   191ec:	04ea0263          	beq	s4,a4,19230 <__multf3+0x5b6>
   191f0:	040a1563          	bnez	s4,1923a <__multf3+0x5c0>
   191f4:	00f57713          	andi	a4,a0,15
   191f8:	4691                	li	a3,4
   191fa:	04d70063          	beq	a4,a3,1923a <__multf3+0x5c0>
   191fe:	00450713          	addi	a4,a0,4
   19202:	00a73533          	sltu	a0,a4,a0
   19206:	97aa                	add	a5,a5,a0
   19208:	853a                	mv	a0,a4
   1920a:	a805                	j	1923a <__multf3+0x5c0>
   1920c:	04000813          	li	a6,64
   19210:	00d4d533          	srl	a0,s1,a3
   19214:	4781                	li	a5,0
   19216:	01070763          	beq	a4,a6,19224 <__multf3+0x5aa>
   1921a:	08000793          	li	a5,128
   1921e:	9f95                	subw	a5,a5,a3
   19220:	00f497b3          	sll	a5,s1,a5
   19224:	8c5d                	or	s0,s0,a5
   19226:	00803433          	snez	s0,s0
   1922a:	8d41                	or	a0,a0,s0
   1922c:	4781                	li	a5,0
   1922e:	b775                	j	191da <__multf3+0x560>
   19230:	e609                	bnez	a2,1923a <__multf3+0x5c0>
   19232:	00850713          	addi	a4,a0,8
   19236:	b7f1                	j	19202 <__multf3+0x588>
   19238:	fe6d                	bnez	a2,19232 <__multf3+0x5b8>
   1923a:	00c79713          	slli	a4,a5,0xc
   1923e:	02075063          	bgez	a4,1925e <__multf3+0x5e4>
   19242:	00196913          	ori	s2,s2,1
   19246:	4701                	li	a4,0
   19248:	4501                	li	a0,0
   1924a:	4785                	li	a5,1
   1924c:	e6058be3          	beqz	a1,190c2 <__multf3+0x448>
   19250:	00197693          	andi	a3,s2,1
   19254:	e60687e3          	beqz	a3,190c2 <__multf3+0x448>
   19258:	00296913          	ori	s2,s2,2
   1925c:	b59d                	j	190c2 <__multf3+0x448>
   1925e:	03d79413          	slli	s0,a5,0x3d
   19262:	810d                	srli	a0,a0,0x3
   19264:	0037d713          	srli	a4,a5,0x3
   19268:	8d41                	or	a0,a0,s0
   1926a:	4781                	li	a5,0
   1926c:	b7c5                	j	1924c <__multf3+0x5d2>
   1926e:	00946533          	or	a0,s0,s1
   19272:	c115                	beqz	a0,19296 <__multf3+0x61c>
   19274:	4789                	li	a5,2
   19276:	00196913          	ori	s2,s2,1
   1927a:	02fa0263          	beq	s4,a5,1929e <__multf3+0x624>
   1927e:	478d                	li	a5,3
   19280:	00fa0763          	beq	s4,a5,1928e <__multf3+0x614>
   19284:	4415                	li	s0,5
   19286:	000a0663          	beqz	s4,19292 <__multf3+0x618>
   1928a:	4405                	li	s0,1
   1928c:	a019                	j	19292 <__multf3+0x618>
   1928e:	4425                	li	s0,9
   19290:	fe6d                	bnez	a2,1928a <__multf3+0x610>
   19292:	00345513          	srli	a0,s0,0x3
   19296:	00296913          	ori	s2,s2,2
   1929a:	4701                	li	a4,0
   1929c:	b6d5                	j	18e80 <__multf3+0x206>
   1929e:	4425                	li	s0,9
   192a0:	fa6d                	bnez	a2,19292 <__multf3+0x618>
   192a2:	b7e5                	j	1928a <__multf3+0x610>
   192a4:	4785                	li	a5,1
   192a6:	02f79713          	slli	a4,a5,0x2f
   192aa:	67a1                	lui	a5,0x8
   192ac:	4501                	li	a0,0
   192ae:	17fd                	addi	a5,a5,-1
   192b0:	4601                	li	a2,0
   192b2:	bd01                	j	190c2 <__multf3+0x448>
   192b4:	4785                	li	a5,1
   192b6:	02f79713          	slli	a4,a5,0x2f
   192ba:	67a1                	lui	a5,0x8
   192bc:	4501                	li	a0,0
   192be:	17fd                	addi	a5,a5,-1
   192c0:	4601                	li	a2,0
   192c2:	4941                	li	s2,16
   192c4:	bbfd                	j	190c2 <__multf3+0x448>
   192c6:	67a1                	lui	a5,0x8
   192c8:	4701                	li	a4,0
   192ca:	4501                	li	a0,0
   192cc:	17fd                	addi	a5,a5,-1
   192ce:	bbd5                	j	190c2 <__multf3+0x448>

00000000000192d0 <__subtf3>:
   192d0:	7139                	addi	sp,sp,-64
   192d2:	fc06                	sd	ra,56(sp)
   192d4:	f822                	sd	s0,48(sp)
   192d6:	f426                	sd	s1,40(sp)
   192d8:	f04a                	sd	s2,32(sp)
   192da:	ec4e                	sd	s3,24(sp)
   192dc:	e852                	sd	s4,16(sp)
   192de:	00202973          	frrm	s2
   192e2:	5ffd                	li	t6,-1
   192e4:	010fdf93          	srli	t6,t6,0x10
   192e8:	0305de93          	srli	t4,a1,0x30
   192ec:	03f5d413          	srli	s0,a1,0x3f
   192f0:	01f5f5b3          	and	a1,a1,t6
   192f4:	058e                	slli	a1,a1,0x3
   192f6:	03d55493          	srli	s1,a0,0x3d
   192fa:	6821                	lui	a6,0x8
   192fc:	187d                	addi	a6,a6,-1
   192fe:	00b4e333          	or	t1,s1,a1
   19302:	e436                	sd	a3,8(sp)
   19304:	0306d593          	srli	a1,a3,0x30
   19308:	03f6de13          	srli	t3,a3,0x3f
   1930c:	01f6f6b3          	and	a3,a3,t6
   19310:	01d87eb3          	and	t4,a6,t4
   19314:	00351893          	slli	a7,a0,0x3
   19318:	00b875b3          	and	a1,a6,a1
   1931c:	068e                	slli	a3,a3,0x3
   1931e:	03d65513          	srli	a0,a2,0x3d
   19322:	2901                	sext.w	s2,s2
   19324:	89f6                	mv	s3,t4
   19326:	8f2e                	mv	t5,a1
   19328:	8ec9                	or	a3,a3,a0
   1932a:	00361793          	slli	a5,a2,0x3
   1932e:	01059563          	bne	a1,a6,19338 <__subtf3+0x68>
   19332:	00f6e733          	or	a4,a3,a5
   19336:	e319                	bnez	a4,1933c <__subtf3+0x6c>
   19338:	001e4e13          	xori	t3,t3,1
   1933c:	40be873b          	subw	a4,t4,a1
   19340:	6621                	lui	a2,0x8
   19342:	00070f9b          	sext.w	t6,a4
   19346:	fff60813          	addi	a6,a2,-1 # 7fff <_start-0x80b1>
   1934a:	388e1863          	bne	t3,s0,196da <__subtf3+0x40a>
   1934e:	0ff05563          	blez	t6,19438 <__subtf3+0x168>
   19352:	edb5                	bnez	a1,193ce <__subtf3+0xfe>
   19354:	00f6e633          	or	a2,a3,a5
   19358:	e611                	bnez	a2,19364 <__subtf3+0x94>
   1935a:	050e8f63          	beq	t4,a6,193b8 <__subtf3+0xe8>
   1935e:	869a                	mv	a3,t1
   19360:	8f76                	mv	t5,t4
   19362:	a5e5                	j	19a4a <__subtf3+0x77a>
   19364:	fff70f9b          	addiw	t6,a4,-1
   19368:	040f9663          	bnez	t6,193b4 <__subtf3+0xe4>
   1936c:	97c6                	add	a5,a5,a7
   1936e:	0117b8b3          	sltu	a7,a5,a7
   19372:	969a                	add	a3,a3,t1
   19374:	96c6                	add	a3,a3,a7
   19376:	8f76                	mv	t5,t4
   19378:	88be                	mv	a7,a5
   1937a:	00c69793          	slli	a5,a3,0xc
   1937e:	6c07d663          	bgez	a5,19a4a <__subtf3+0x77a>
   19382:	6721                	lui	a4,0x8
   19384:	001f0993          	addi	s3,t5,1 # 10001 <_start-0xaf>
   19388:	fff70793          	addi	a5,a4,-1 # 7fff <_start-0x80b1>
   1938c:	32f98363          	beq	s3,a5,196b2 <__subtf3+0x3e2>
   19390:	55fd                	li	a1,-1
   19392:	15ce                	slli	a1,a1,0x33
   19394:	15fd                	addi	a1,a1,-1
   19396:	0018d793          	srli	a5,a7,0x1
   1939a:	8df5                	and	a1,a1,a3
   1939c:	0018f893          	andi	a7,a7,1
   193a0:	03f59693          	slli	a3,a1,0x3f
   193a4:	0117e8b3          	or	a7,a5,a7
   193a8:	0116e7b3          	or	a5,a3,a7
   193ac:	0015d693          	srli	a3,a1,0x1
   193b0:	4f81                	li	t6,0
   193b2:	a47d                	j	19660 <__subtf3+0x390>
   193b4:	030e9263          	bne	t4,a6,193d8 <__subtf3+0x108>
   193b8:	011367b3          	or	a5,t1,a7
   193bc:	6c078a63          	beqz	a5,19a90 <__subtf3+0x7c0>
   193c0:	00d31793          	slli	a5,t1,0xd
   193c4:	869a                	mv	a3,t1
   193c6:	6c07d763          	bgez	a5,19a94 <__subtf3+0x7c4>
   193ca:	87c6                	mv	a5,a7
   193cc:	b7d5                	j	193b0 <__subtf3+0xe0>
   193ce:	ff0e85e3          	beq	t4,a6,193b8 <__subtf3+0xe8>
   193d2:	4705                	li	a4,1
   193d4:	174e                	slli	a4,a4,0x33
   193d6:	8ed9                	or	a3,a3,a4
   193d8:	07400713          	li	a4,116
   193dc:	05f74a63          	blt	a4,t6,19430 <__subtf3+0x160>
   193e0:	03f00713          	li	a4,63
   193e4:	03f74363          	blt	a4,t6,1940a <__subtf3+0x13a>
   193e8:	04000613          	li	a2,64
   193ec:	41f6063b          	subw	a2,a2,t6
   193f0:	00c695b3          	sll	a1,a3,a2
   193f4:	01f7d733          	srl	a4,a5,t6
   193f8:	00c797b3          	sll	a5,a5,a2
   193fc:	8dd9                	or	a1,a1,a4
   193fe:	00f037b3          	snez	a5,a5
   19402:	8fcd                	or	a5,a5,a1
   19404:	01f6d6b3          	srl	a3,a3,t6
   19408:	b795                	j	1936c <__subtf3+0x9c>
   1940a:	04000713          	li	a4,64
   1940e:	01f6d5b3          	srl	a1,a3,t6
   19412:	4601                	li	a2,0
   19414:	00ef8863          	beq	t6,a4,19424 <__subtf3+0x154>
   19418:	08000613          	li	a2,128
   1941c:	41f6063b          	subw	a2,a2,t6
   19420:	00c69633          	sll	a2,a3,a2
   19424:	8fd1                	or	a5,a5,a2
   19426:	00f037b3          	snez	a5,a5
   1942a:	8fcd                	or	a5,a5,a1
   1942c:	4681                	li	a3,0
   1942e:	bf3d                	j	1936c <__subtf3+0x9c>
   19430:	8edd                	or	a3,a3,a5
   19432:	00d037b3          	snez	a5,a3
   19436:	bfdd                	j	1942c <__subtf3+0x15c>
   19438:	0c0f8663          	beqz	t6,19504 <__subtf3+0x234>
   1943c:	080e9163          	bnez	t4,194be <__subtf3+0x1ee>
   19440:	01136633          	or	a2,t1,a7
   19444:	e205                	bnez	a2,19464 <__subtf3+0x194>
   19446:	88be                	mv	a7,a5
   19448:	61059163          	bne	a1,a6,19a4a <__subtf3+0x77a>
   1944c:	00f6e733          	or	a4,a3,a5
   19450:	62070b63          	beqz	a4,19a86 <__subtf3+0x7b6>
   19454:	00d69713          	slli	a4,a3,0xd
   19458:	89ae                	mv	s3,a1
   1945a:	4f81                	li	t6,0
   1945c:	20074263          	bltz	a4,19660 <__subtf3+0x390>
   19460:	4741                	li	a4,16
   19462:	a0d5                	j	19546 <__subtf3+0x276>
   19464:	567d                	li	a2,-1
   19466:	00cf9863          	bne	t6,a2,19476 <__subtf3+0x1a6>
   1946a:	98be                	add	a7,a7,a5
   1946c:	969a                	add	a3,a3,t1
   1946e:	00f8b7b3          	sltu	a5,a7,a5
   19472:	96be                	add	a3,a3,a5
   19474:	b719                	j	1937a <__subtf3+0xaa>
   19476:	fd058be3          	beq	a1,a6,1944c <__subtf3+0x17c>
   1947a:	fff74713          	not	a4,a4
   1947e:	0007061b          	sext.w	a2,a4
   19482:	07400713          	li	a4,116
   19486:	06c74a63          	blt	a4,a2,194fa <__subtf3+0x22a>
   1948a:	03f00713          	li	a4,63
   1948e:	04c74163          	blt	a4,a2,194d0 <__subtf3+0x200>
   19492:	04000513          	li	a0,64
   19496:	9d11                	subw	a0,a0,a2
   19498:	00c8d733          	srl	a4,a7,a2
   1949c:	00a314b3          	sll	s1,t1,a0
   194a0:	00a898b3          	sll	a7,a7,a0
   194a4:	8cd9                	or	s1,s1,a4
   194a6:	011038b3          	snez	a7,a7
   194aa:	0114e8b3          	or	a7,s1,a7
   194ae:	00c35633          	srl	a2,t1,a2
   194b2:	98be                	add	a7,a7,a5
   194b4:	9636                	add	a2,a2,a3
   194b6:	00f8b6b3          	sltu	a3,a7,a5
   194ba:	96b2                	add	a3,a3,a2
   194bc:	bd7d                	j	1937a <__subtf3+0xaa>
   194be:	f90587e3          	beq	a1,a6,1944c <__subtf3+0x17c>
   194c2:	40e0063b          	negw	a2,a4
   194c6:	4705                	li	a4,1
   194c8:	174e                	slli	a4,a4,0x33
   194ca:	00e36333          	or	t1,t1,a4
   194ce:	bf55                	j	19482 <__subtf3+0x1b2>
   194d0:	04000713          	li	a4,64
   194d4:	00c354b3          	srl	s1,t1,a2
   194d8:	4501                	li	a0,0
   194da:	00e60863          	beq	a2,a4,194ea <__subtf3+0x21a>
   194de:	08000513          	li	a0,128
   194e2:	40c5063b          	subw	a2,a0,a2
   194e6:	00c31533          	sll	a0,t1,a2
   194ea:	011568b3          	or	a7,a0,a7
   194ee:	011038b3          	snez	a7,a7
   194f2:	0114e8b3          	or	a7,s1,a7
   194f6:	4601                	li	a2,0
   194f8:	bf6d                	j	194b2 <__subtf3+0x1e2>
   194fa:	011368b3          	or	a7,t1,a7
   194fe:	011038b3          	snez	a7,a7
   19502:	bfd5                	j	194f6 <__subtf3+0x226>
   19504:	001e8f13          	addi	t5,t4,1
   19508:	010f7733          	and	a4,t5,a6
   1950c:	4e05                	li	t3,1
   1950e:	12ee4963          	blt	t3,a4,19640 <__subtf3+0x370>
   19512:	01136633          	or	a2,t1,a7
   19516:	040e9463          	bnez	t4,1955e <__subtf3+0x28e>
   1951a:	54060063          	beqz	a2,19a5a <__subtf3+0x78a>
   1951e:	00f6e733          	or	a4,a3,a5
   19522:	54070063          	beqz	a4,19a62 <__subtf3+0x792>
   19526:	97c6                	add	a5,a5,a7
   19528:	969a                	add	a3,a3,t1
   1952a:	0117b8b3          	sltu	a7,a5,a7
   1952e:	96c6                	add	a3,a3,a7
   19530:	1e4e                	slli	t3,t3,0x33
   19532:	01c6fe33          	and	t3,a3,t3
   19536:	520e0263          	beqz	t3,19a5a <__subtf3+0x78a>
   1953a:	577d                	li	a4,-1
   1953c:	174e                	slli	a4,a4,0x33
   1953e:	177d                	addi	a4,a4,-1
   19540:	8ef9                	and	a3,a3,a4
   19542:	4985                	li	s3,1
   19544:	4701                	li	a4,0
   19546:	0077f613          	andi	a2,a5,7
   1954a:	12061863          	bnez	a2,1967a <__subtf3+0x3aa>
   1954e:	040f8863          	beqz	t6,1959e <__subtf3+0x2ce>
   19552:	00177613          	andi	a2,a4,1
   19556:	c621                	beqz	a2,1959e <__subtf3+0x2ce>
   19558:	00276713          	ori	a4,a4,2
   1955c:	a089                	j	1959e <__subtf3+0x2ce>
   1955e:	0d0e9c63          	bne	t4,a6,19636 <__subtf3+0x366>
   19562:	58060363          	beqz	a2,19ae8 <__subtf3+0x818>
   19566:	032e1713          	slli	a4,t3,0x32
   1956a:	00e37733          	and	a4,t1,a4
   1956e:	00173713          	seqz	a4,a4
   19572:	0712                	slli	a4,a4,0x4
   19574:	01d59c63          	bne	a1,t4,1958c <__subtf3+0x2bc>
   19578:	00f6e5b3          	or	a1,a3,a5
   1957c:	c591                	beqz	a1,19588 <__subtf3+0x2b8>
   1957e:	00d69593          	slli	a1,a3,0xd
   19582:	0005c363          	bltz	a1,19588 <__subtf3+0x2b8>
   19586:	4741                	li	a4,16
   19588:	3c060d63          	beqz	a2,19962 <__subtf3+0x692>
   1958c:	8edd                	or	a3,a3,a5
   1958e:	3c068863          	beqz	a3,1995e <__subtf3+0x68e>
   19592:	4685                	li	a3,1
   19594:	69a1                	lui	s3,0x8
   19596:	16ca                	slli	a3,a3,0x32
   19598:	4781                	li	a5,0
   1959a:	19fd                	addi	s3,s3,-1
   1959c:	4401                	li	s0,0
   1959e:	00c69613          	slli	a2,a3,0xc
   195a2:	00065c63          	bgez	a2,195ba <__subtf3+0x2ea>
   195a6:	6621                	lui	a2,0x8
   195a8:	0985                	addi	s3,s3,1
   195aa:	fff60593          	addi	a1,a2,-1 # 7fff <_start-0x80b1>
   195ae:	50b98663          	beq	s3,a1,19aba <__subtf3+0x7ea>
   195b2:	567d                	li	a2,-1
   195b4:	164e                	slli	a2,a2,0x33
   195b6:	167d                	addi	a2,a2,-1
   195b8:	8ef1                	and	a3,a3,a2
   195ba:	838d                	srli	a5,a5,0x3
   195bc:	03d69513          	slli	a0,a3,0x3d
   195c0:	8d5d                	or	a0,a0,a5
   195c2:	67a1                	lui	a5,0x8
   195c4:	17fd                	addi	a5,a5,-1
   195c6:	828d                	srli	a3,a3,0x3
   195c8:	00f99963          	bne	s3,a5,195da <__subtf3+0x30a>
   195cc:	8d55                	or	a0,a0,a3
   195ce:	4681                	li	a3,0
   195d0:	c509                	beqz	a0,195da <__subtf3+0x30a>
   195d2:	4685                	li	a3,1
   195d4:	16be                	slli	a3,a3,0x2f
   195d6:	4501                	li	a0,0
   195d8:	4401                	li	s0,0
   195da:	57fd                	li	a5,-1
   195dc:	0107d593          	srli	a1,a5,0x10
   195e0:	8df5                	and	a1,a1,a3
   195e2:	66a2                	ld	a3,8(sp)
   195e4:	17c2                	slli	a5,a5,0x30
   195e6:	041e                	slli	s0,s0,0x7
   195e8:	8efd                	and	a3,a3,a5
   195ea:	67a1                	lui	a5,0x8
   195ec:	8ecd                	or	a3,a3,a1
   195ee:	17fd                	addi	a5,a5,-1
   195f0:	e436                	sd	a3,8(sp)
   195f2:	00f9f7b3          	and	a5,s3,a5
   195f6:	0306d993          	srli	s3,a3,0x30
   195fa:	76e1                	lui	a3,0xffff8
   195fc:	00d9f9b3          	and	s3,s3,a3
   19600:	00f9e9b3          	or	s3,s3,a5
   19604:	0109979b          	slliw	a5,s3,0x10
   19608:	0107d79b          	srliw	a5,a5,0x10
   1960c:	0087d79b          	srliw	a5,a5,0x8
   19610:	07f7f793          	andi	a5,a5,127
   19614:	01311723          	sh	s3,14(sp)
   19618:	8fc1                	or	a5,a5,s0
   1961a:	00f107a3          	sb	a5,15(sp)
   1961e:	65a2                	ld	a1,8(sp)
   19620:	c319                	beqz	a4,19626 <__subtf3+0x356>
   19622:	00172073          	csrs	fflags,a4
   19626:	70e2                	ld	ra,56(sp)
   19628:	7442                	ld	s0,48(sp)
   1962a:	74a2                	ld	s1,40(sp)
   1962c:	7902                	ld	s2,32(sp)
   1962e:	69e2                	ld	s3,24(sp)
   19630:	6a42                	ld	s4,16(sp)
   19632:	6121                	addi	sp,sp,64
   19634:	8082                	ret
   19636:	4701                	li	a4,0
   19638:	f50598e3          	bne	a1,a6,19588 <__subtf3+0x2b8>
   1963c:	4701                	li	a4,0
   1963e:	bf2d                	j	19578 <__subtf3+0x2a8>
   19640:	030f0263          	beq	t5,a6,19664 <__subtf3+0x394>
   19644:	97c6                	add	a5,a5,a7
   19646:	00d304b3          	add	s1,t1,a3
   1964a:	0117b6b3          	sltu	a3,a5,a7
   1964e:	00d488b3          	add	a7,s1,a3
   19652:	03f89693          	slli	a3,a7,0x3f
   19656:	8385                	srli	a5,a5,0x1
   19658:	8fd5                	or	a5,a5,a3
   1965a:	89fa                	mv	s3,t5
   1965c:	0018d693          	srli	a3,a7,0x1
   19660:	4701                	li	a4,0
   19662:	b5d5                	j	19546 <__subtf3+0x276>
   19664:	04090563          	beqz	s2,196ae <__subtf3+0x3de>
   19668:	478d                	li	a5,3
   1966a:	02f91e63          	bne	s2,a5,196a6 <__subtf3+0x3d6>
   1966e:	c021                	beqz	s0,196ae <__subtf3+0x3de>
   19670:	56fd                	li	a3,-1
   19672:	57fd                	li	a5,-1
   19674:	ffe60993          	addi	s3,a2,-2
   19678:	4715                	li	a4,5
   1967a:	4609                	li	a2,2
   1967c:	00176713          	ori	a4,a4,1
   19680:	42c90a63          	beq	s2,a2,19ab4 <__subtf3+0x7e4>
   19684:	460d                	li	a2,3
   19686:	42c90263          	beq	s2,a2,19aaa <__subtf3+0x7da>
   1968a:	ec0912e3          	bnez	s2,1954e <__subtf3+0x27e>
   1968e:	00f7f613          	andi	a2,a5,15
   19692:	4591                	li	a1,4
   19694:	eab60de3          	beq	a2,a1,1954e <__subtf3+0x27e>
   19698:	00478593          	addi	a1,a5,4 # 8004 <_start-0x80ac>
   1969c:	00f5b7b3          	sltu	a5,a1,a5
   196a0:	96be                	add	a3,a3,a5
   196a2:	87ae                	mv	a5,a1
   196a4:	b56d                	j	1954e <__subtf3+0x27e>
   196a6:	4789                	li	a5,2
   196a8:	fcf914e3          	bne	s2,a5,19670 <__subtf3+0x3a0>
   196ac:	d071                	beqz	s0,19670 <__subtf3+0x3a0>
   196ae:	89fa                	mv	s3,t5
   196b0:	a00d                	j	196d2 <__subtf3+0x402>
   196b2:	02090063          	beqz	s2,196d2 <__subtf3+0x402>
   196b6:	478d                	li	a5,3
   196b8:	00f91963          	bne	s2,a5,196ca <__subtf3+0x3fa>
   196bc:	c819                	beqz	s0,196d2 <__subtf3+0x402>
   196be:	56fd                	li	a3,-1
   196c0:	57fd                	li	a5,-1
   196c2:	ffe70993          	addi	s3,a4,-2
   196c6:	4f81                	li	t6,0
   196c8:	bf45                	j	19678 <__subtf3+0x3a8>
   196ca:	4789                	li	a5,2
   196cc:	fef919e3          	bne	s2,a5,196be <__subtf3+0x3ee>
   196d0:	d47d                	beqz	s0,196be <__subtf3+0x3ee>
   196d2:	4681                	li	a3,0
   196d4:	4781                	li	a5,0
   196d6:	4715                	li	a4,5
   196d8:	b5d9                	j	1959e <__subtf3+0x2ce>
   196da:	0bf05763          	blez	t6,19788 <__subtf3+0x4b8>
   196de:	e9a5                	bnez	a1,1974e <__subtf3+0x47e>
   196e0:	00f6e633          	or	a2,a3,a5
   196e4:	c6060be3          	beqz	a2,1935a <__subtf3+0x8a>
   196e8:	fff70f9b          	addiw	t6,a4,-1
   196ec:	020f9663          	bnez	t6,19718 <__subtf3+0x448>
   196f0:	40f887b3          	sub	a5,a7,a5
   196f4:	00f8b8b3          	sltu	a7,a7,a5
   196f8:	40d306b3          	sub	a3,t1,a3
   196fc:	411686b3          	sub	a3,a3,a7
   19700:	8f76                	mv	t5,t4
   19702:	88be                	mv	a7,a5
   19704:	00c69793          	slli	a5,a3,0xc
   19708:	3407d163          	bgez	a5,19a4a <__subtf3+0x77a>
   1970c:	54fd                	li	s1,-1
   1970e:	80b5                	srli	s1,s1,0xd
   19710:	8cf5                	and	s1,s1,a3
   19712:	8a46                	mv	s4,a7
   19714:	89fa                	mv	s3,t5
   19716:	ac9d                	j	1998c <__subtf3+0x6bc>
   19718:	cb0e80e3          	beq	t4,a6,193b8 <__subtf3+0xe8>
   1971c:	07400713          	li	a4,116
   19720:	07f74063          	blt	a4,t6,19780 <__subtf3+0x4b0>
   19724:	03f00713          	li	a4,63
   19728:	03f74963          	blt	a4,t6,1975a <__subtf3+0x48a>
   1972c:	04000613          	li	a2,64
   19730:	41f6063b          	subw	a2,a2,t6
   19734:	00c695b3          	sll	a1,a3,a2
   19738:	01f7d733          	srl	a4,a5,t6
   1973c:	00c797b3          	sll	a5,a5,a2
   19740:	8dd9                	or	a1,a1,a4
   19742:	00f037b3          	snez	a5,a5
   19746:	8fcd                	or	a5,a5,a1
   19748:	01f6d6b3          	srl	a3,a3,t6
   1974c:	b755                	j	196f0 <__subtf3+0x420>
   1974e:	c70e85e3          	beq	t4,a6,193b8 <__subtf3+0xe8>
   19752:	4705                	li	a4,1
   19754:	174e                	slli	a4,a4,0x33
   19756:	8ed9                	or	a3,a3,a4
   19758:	b7d1                	j	1971c <__subtf3+0x44c>
   1975a:	04000713          	li	a4,64
   1975e:	01f6d5b3          	srl	a1,a3,t6
   19762:	4601                	li	a2,0
   19764:	00ef8863          	beq	t6,a4,19774 <__subtf3+0x4a4>
   19768:	08000613          	li	a2,128
   1976c:	41f6063b          	subw	a2,a2,t6
   19770:	00c69633          	sll	a2,a3,a2
   19774:	8fd1                	or	a5,a5,a2
   19776:	00f037b3          	snez	a5,a5
   1977a:	8fcd                	or	a5,a5,a1
   1977c:	4681                	li	a3,0
   1977e:	bf8d                	j	196f0 <__subtf3+0x420>
   19780:	8edd                	or	a3,a3,a5
   19782:	00d037b3          	snez	a5,a3
   19786:	bfdd                	j	1977c <__subtf3+0x4ac>
   19788:	0c0f8763          	beqz	t6,19856 <__subtf3+0x586>
   1978c:	080e9263          	bnez	t4,19810 <__subtf3+0x540>
   19790:	01136633          	or	a2,t1,a7
   19794:	ee01                	bnez	a2,197ac <__subtf3+0x4dc>
   19796:	2b059f63          	bne	a1,a6,19a54 <__subtf3+0x784>
   1979a:	00f6e733          	or	a4,a3,a5
   1979e:	2e070e63          	beqz	a4,19a9a <__subtf3+0x7ca>
   197a2:	00d69713          	slli	a4,a3,0xd
   197a6:	89ae                	mv	s3,a1
   197a8:	8472                	mv	s0,t3
   197aa:	b945                	j	1945a <__subtf3+0x18a>
   197ac:	567d                	li	a2,-1
   197ae:	00cf9b63          	bne	t6,a2,197c4 <__subtf3+0x4f4>
   197b2:	411788b3          	sub	a7,a5,a7
   197b6:	406686b3          	sub	a3,a3,t1
   197ba:	0117b7b3          	sltu	a5,a5,a7
   197be:	8e9d                	sub	a3,a3,a5
   197c0:	8472                	mv	s0,t3
   197c2:	b789                	j	19704 <__subtf3+0x434>
   197c4:	fd058be3          	beq	a1,a6,1979a <__subtf3+0x4ca>
   197c8:	fff74713          	not	a4,a4
   197cc:	2701                	sext.w	a4,a4
   197ce:	07400613          	li	a2,116
   197d2:	06e64d63          	blt	a2,a4,1984c <__subtf3+0x57c>
   197d6:	03f00613          	li	a2,63
   197da:	04e64463          	blt	a2,a4,19822 <__subtf3+0x552>
   197de:	04000513          	li	a0,64
   197e2:	9d19                	subw	a0,a0,a4
   197e4:	00e8d633          	srl	a2,a7,a4
   197e8:	00a314b3          	sll	s1,t1,a0
   197ec:	00a898b3          	sll	a7,a7,a0
   197f0:	8cd1                	or	s1,s1,a2
   197f2:	011038b3          	snez	a7,a7
   197f6:	0114e8b3          	or	a7,s1,a7
   197fa:	00e35733          	srl	a4,t1,a4
   197fe:	411788b3          	sub	a7,a5,a7
   19802:	40e68733          	sub	a4,a3,a4
   19806:	0117b6b3          	sltu	a3,a5,a7
   1980a:	40d706b3          	sub	a3,a4,a3
   1980e:	bf4d                	j	197c0 <__subtf3+0x4f0>
   19810:	f90585e3          	beq	a1,a6,1979a <__subtf3+0x4ca>
   19814:	4605                	li	a2,1
   19816:	164e                	slli	a2,a2,0x33
   19818:	40e0073b          	negw	a4,a4
   1981c:	00c36333          	or	t1,t1,a2
   19820:	b77d                	j	197ce <__subtf3+0x4fe>
   19822:	04000613          	li	a2,64
   19826:	00e354b3          	srl	s1,t1,a4
   1982a:	4501                	li	a0,0
   1982c:	00c70863          	beq	a4,a2,1983c <__subtf3+0x56c>
   19830:	08000513          	li	a0,128
   19834:	40e5073b          	subw	a4,a0,a4
   19838:	00e31533          	sll	a0,t1,a4
   1983c:	011568b3          	or	a7,a0,a7
   19840:	011038b3          	snez	a7,a7
   19844:	0114e8b3          	or	a7,s1,a7
   19848:	4701                	li	a4,0
   1984a:	bf55                	j	197fe <__subtf3+0x52e>
   1984c:	011368b3          	or	a7,t1,a7
   19850:	011038b3          	snez	a7,a7
   19854:	bfd5                	j	19848 <__subtf3+0x578>
   19856:	001e8713          	addi	a4,t4,1
   1985a:	01077733          	and	a4,a4,a6
   1985e:	4505                	li	a0,1
   19860:	10e54463          	blt	a0,a4,19968 <__subtf3+0x698>
   19864:	01136f33          	or	t5,t1,a7
   19868:	00f6e633          	or	a2,a3,a5
   1986c:	0a0e9363          	bnez	t4,19912 <__subtf3+0x642>
   19870:	060f1263          	bnez	t5,198d4 <__subtf3+0x604>
   19874:	1e061563          	bnez	a2,19a5e <__subtf3+0x78e>
   19878:	ffe90413          	addi	s0,s2,-2
   1987c:	00143413          	seqz	s0,s0
   19880:	4681                	li	a3,0
   19882:	4881                	li	a7,0
   19884:	00d8e7b3          	or	a5,a7,a3
   19888:	20078e63          	beqz	a5,19aa4 <__subtf3+0x7d4>
   1988c:	03f8d793          	srli	a5,a7,0x3f
   19890:	00169613          	slli	a2,a3,0x1
   19894:	963e                	add	a2,a2,a5
   19896:	00189793          	slli	a5,a7,0x1
   1989a:	0077f593          	andi	a1,a5,7
   1989e:	4701                	li	a4,0
   198a0:	c195                	beqz	a1,198c4 <__subtf3+0x5f4>
   198a2:	4709                	li	a4,2
   198a4:	1ce90d63          	beq	s2,a4,19a7e <__subtf3+0x7ae>
   198a8:	470d                	li	a4,3
   198aa:	1ce90163          	beq	s2,a4,19a6c <__subtf3+0x79c>
   198ae:	4705                	li	a4,1
   198b0:	00091a63          	bnez	s2,198c4 <__subtf3+0x5f4>
   198b4:	00f7f593          	andi	a1,a5,15
   198b8:	4511                	li	a0,4
   198ba:	4705                	li	a4,1
   198bc:	ffc7b793          	sltiu	a5,a5,-4
   198c0:	1aa59b63          	bne	a1,a0,19a76 <__subtf3+0x7a6>
   198c4:	9251                	srli	a2,a2,0x34
   198c6:	00164613          	xori	a2,a2,1
   198ca:	00167f93          	andi	t6,a2,1
   198ce:	87c6                	mv	a5,a7
   198d0:	4981                	li	s3,0
   198d2:	b995                	j	19546 <__subtf3+0x276>
   198d4:	18060763          	beqz	a2,19a62 <__subtf3+0x792>
   198d8:	40f88633          	sub	a2,a7,a5
   198dc:	40d30733          	sub	a4,t1,a3
   198e0:	00c8b5b3          	sltu	a1,a7,a2
   198e4:	8f0d                	sub	a4,a4,a1
   198e6:	154e                	slli	a0,a0,0x33
   198e8:	8d79                	and	a0,a0,a4
   198ea:	c911                	beqz	a0,198fe <__subtf3+0x62e>
   198ec:	411788b3          	sub	a7,a5,a7
   198f0:	406686b3          	sub	a3,a3,t1
   198f4:	0117b7b3          	sltu	a5,a5,a7
   198f8:	8e9d                	sub	a3,a3,a5
   198fa:	8472                	mv	s0,t3
   198fc:	b761                	j	19884 <__subtf3+0x5b4>
   198fe:	00e668b3          	or	a7,a2,a4
   19902:	16089263          	bnez	a7,19a66 <__subtf3+0x796>
   19906:	ffe90413          	addi	s0,s2,-2
   1990a:	00143413          	seqz	s0,s0
   1990e:	4681                	li	a3,0
   19910:	bf95                	j	19884 <__subtf3+0x5b4>
   19912:	030e9f63          	bne	t4,a6,19950 <__subtf3+0x680>
   19916:	1c0f0563          	beqz	t5,19ae0 <__subtf3+0x810>
   1991a:	03251713          	slli	a4,a0,0x32
   1991e:	00e37733          	and	a4,t1,a4
   19922:	00173713          	seqz	a4,a4
   19926:	0712                	slli	a4,a4,0x4
   19928:	03d59963          	bne	a1,t4,1995a <__subtf3+0x68a>
   1992c:	c611                	beqz	a2,19938 <__subtf3+0x668>
   1992e:	00d69593          	slli	a1,a3,0xd
   19932:	0005c363          	bltz	a1,19938 <__subtf3+0x668>
   19936:	4741                	li	a4,16
   19938:	020f1163          	bnez	t5,1995a <__subtf3+0x68a>
   1993c:	8472                	mv	s0,t3
   1993e:	e215                	bnez	a2,19962 <__subtf3+0x692>
   19940:	4685                	li	a3,1
   19942:	69a1                	lui	s3,0x8
   19944:	4781                	li	a5,0
   19946:	16ca                	slli	a3,a3,0x32
   19948:	19fd                	addi	s3,s3,-1
   1994a:	4401                	li	s0,0
   1994c:	4741                	li	a4,16
   1994e:	b981                	j	1959e <__subtf3+0x2ce>
   19950:	4701                	li	a4,0
   19952:	ff0593e3          	bne	a1,a6,19938 <__subtf3+0x668>
   19956:	4701                	li	a4,0
   19958:	bfd1                	j	1992c <__subtf3+0x65c>
   1995a:	c2061ce3          	bnez	a2,19592 <__subtf3+0x2c2>
   1995e:	869a                	mv	a3,t1
   19960:	87c6                	mv	a5,a7
   19962:	69a1                	lui	s3,0x8
   19964:	19fd                	addi	s3,s3,-1
   19966:	b6c5                	j	19546 <__subtf3+0x276>
   19968:	40f88a33          	sub	s4,a7,a5
   1996c:	40d304b3          	sub	s1,t1,a3
   19970:	0148b633          	sltu	a2,a7,s4
   19974:	8c91                	sub	s1,s1,a2
   19976:	154e                	slli	a0,a0,0x33
   19978:	8d65                	and	a0,a0,s1
   1997a:	cd2d                	beqz	a0,199f4 <__subtf3+0x724>
   1997c:	41178a33          	sub	s4,a5,a7
   19980:	406684b3          	sub	s1,a3,t1
   19984:	0147b6b3          	sltu	a3,a5,s4
   19988:	8c95                	sub	s1,s1,a3
   1998a:	8472                	mv	s0,t3
   1998c:	c8ad                	beqz	s1,199fe <__subtf3+0x72e>
   1998e:	8526                	mv	a0,s1
   19990:	5b8000ef          	jal	ra,19f48 <__clzdi2>
   19994:	2501                	sext.w	a0,a0
   19996:	ff450f1b          	addiw	t5,a0,-12
   1999a:	03f00793          	li	a5,63
   1999e:	877a                	mv	a4,t5
   199a0:	07e7c563          	blt	a5,t5,19a0a <__subtf3+0x73a>
   199a4:	04000693          	li	a3,64
   199a8:	41e686bb          	subw	a3,a3,t5
   199ac:	01e494b3          	sll	s1,s1,t5
   199b0:	00da56b3          	srl	a3,s4,a3
   199b4:	8cd5                	or	s1,s1,a3
   199b6:	01ea18b3          	sll	a7,s4,t5
   199ba:	093f4263          	blt	t5,s3,19a3e <__subtf3+0x76e>
   199be:	413709bb          	subw	s3,a4,s3
   199c2:	2985                	addiw	s3,s3,1
   199c4:	0009869b          	sext.w	a3,s3
   199c8:	03f00793          	li	a5,63
   199cc:	04d7c563          	blt	a5,a3,19a16 <__subtf3+0x746>
   199d0:	04000513          	li	a0,64
   199d4:	4135053b          	subw	a0,a0,s3
   199d8:	00d8d733          	srl	a4,a7,a3
   199dc:	00a497b3          	sll	a5,s1,a0
   199e0:	00a898b3          	sll	a7,a7,a0
   199e4:	8fd9                	or	a5,a5,a4
   199e6:	011038b3          	snez	a7,a7
   199ea:	0117e8b3          	or	a7,a5,a7
   199ee:	00d4d6b3          	srl	a3,s1,a3
   199f2:	bd49                	j	19884 <__subtf3+0x5b4>
   199f4:	009a68b3          	or	a7,s4,s1
   199f8:	f8089ae3          	bnez	a7,1998c <__subtf3+0x6bc>
   199fc:	b729                	j	19906 <__subtf3+0x636>
   199fe:	8552                	mv	a0,s4
   19a00:	548000ef          	jal	ra,19f48 <__clzdi2>
   19a04:	0405051b          	addiw	a0,a0,64
   19a08:	b779                	j	19996 <__subtf3+0x6c6>
   19a0a:	fb45049b          	addiw	s1,a0,-76
   19a0e:	009a14b3          	sll	s1,s4,s1
   19a12:	4881                	li	a7,0
   19a14:	b75d                	j	199ba <__subtf3+0x6ea>
   19a16:	04000713          	li	a4,64
   19a1a:	0134d7b3          	srl	a5,s1,s3
   19a1e:	4501                	li	a0,0
   19a20:	00e68863          	beq	a3,a4,19a30 <__subtf3+0x760>
   19a24:	08000513          	li	a0,128
   19a28:	4135053b          	subw	a0,a0,s3
   19a2c:	00a49533          	sll	a0,s1,a0
   19a30:	00a8e8b3          	or	a7,a7,a0
   19a34:	011036b3          	snez	a3,a7
   19a38:	00d7e8b3          	or	a7,a5,a3
   19a3c:	bdc9                	j	1990e <__subtf3+0x63e>
   19a3e:	56fd                	li	a3,-1
   19a40:	16ce                	slli	a3,a3,0x33
   19a42:	16fd                	addi	a3,a3,-1
   19a44:	41e98f33          	sub	t5,s3,t5
   19a48:	8ee5                	and	a3,a3,s1
   19a4a:	e20f0de3          	beqz	t5,19884 <__subtf3+0x5b4>
   19a4e:	87c6                	mv	a5,a7
   19a50:	89fa                	mv	s3,t5
   19a52:	bab9                	j	193b0 <__subtf3+0xe0>
   19a54:	88be                	mv	a7,a5
   19a56:	8472                	mv	s0,t3
   19a58:	bfcd                	j	19a4a <__subtf3+0x77a>
   19a5a:	88be                	mv	a7,a5
   19a5c:	b525                	j	19884 <__subtf3+0x5b4>
   19a5e:	88be                	mv	a7,a5
   19a60:	bd69                	j	198fa <__subtf3+0x62a>
   19a62:	869a                	mv	a3,t1
   19a64:	b505                	j	19884 <__subtf3+0x5b4>
   19a66:	86ba                	mv	a3,a4
   19a68:	88b2                	mv	a7,a2
   19a6a:	bd29                	j	19884 <__subtf3+0x5b4>
   19a6c:	4705                	li	a4,1
   19a6e:	e4041be3          	bnez	s0,198c4 <__subtf3+0x5f4>
   19a72:	ff87b793          	sltiu	a5,a5,-8
   19a76:	0017c793          	xori	a5,a5,1
   19a7a:	963e                	add	a2,a2,a5
   19a7c:	b5a1                	j	198c4 <__subtf3+0x5f4>
   19a7e:	4705                	li	a4,1
   19a80:	e40402e3          	beqz	s0,198c4 <__subtf3+0x5f4>
   19a84:	b7fd                	j	19a72 <__subtf3+0x7a2>
   19a86:	4681                	li	a3,0
   19a88:	4781                	li	a5,0
   19a8a:	89ae                	mv	s3,a1
   19a8c:	4701                	li	a4,0
   19a8e:	be01                	j	1959e <__subtf3+0x2ce>
   19a90:	4681                	li	a3,0
   19a92:	bfed                	j	19a8c <__subtf3+0x7bc>
   19a94:	87c6                	mv	a5,a7
   19a96:	4f81                	li	t6,0
   19a98:	b2e1                	j	19460 <__subtf3+0x190>
   19a9a:	4681                	li	a3,0
   19a9c:	4781                	li	a5,0
   19a9e:	89ae                	mv	s3,a1
   19aa0:	8472                	mv	s0,t3
   19aa2:	b7ed                	j	19a8c <__subtf3+0x7bc>
   19aa4:	4681                	li	a3,0
   19aa6:	4981                	li	s3,0
   19aa8:	b7d5                	j	19a8c <__subtf3+0x7bc>
   19aaa:	aa0412e3          	bnez	s0,1954e <__subtf3+0x27e>
   19aae:	00878593          	addi	a1,a5,8
   19ab2:	b6ed                	j	1969c <__subtf3+0x3cc>
   19ab4:	a8040de3          	beqz	s0,1954e <__subtf3+0x27e>
   19ab8:	bfdd                	j	19aae <__subtf3+0x7de>
   19aba:	4781                	li	a5,0
   19abc:	00090e63          	beqz	s2,19ad8 <__subtf3+0x808>
   19ac0:	468d                	li	a3,3
   19ac2:	00d91763          	bne	s2,a3,19ad0 <__subtf3+0x800>
   19ac6:	c809                	beqz	s0,19ad8 <__subtf3+0x808>
   19ac8:	57fd                	li	a5,-1
   19aca:	ffe60993          	addi	s3,a2,-2
   19ace:	a029                	j	19ad8 <__subtf3+0x808>
   19ad0:	4689                	li	a3,2
   19ad2:	fed91be3          	bne	s2,a3,19ac8 <__subtf3+0x7f8>
   19ad6:	d86d                	beqz	s0,19ac8 <__subtf3+0x7f8>
   19ad8:	00576713          	ori	a4,a4,5
   19adc:	86be                	mv	a3,a5
   19ade:	bcf1                	j	195ba <__subtf3+0x2ea>
   19ae0:	4701                	li	a4,0
   19ae2:	e5d59de3          	bne	a1,t4,1993c <__subtf3+0x66c>
   19ae6:	bd85                	j	19956 <__subtf3+0x686>
   19ae8:	b7d59ce3          	bne	a1,t4,19660 <__subtf3+0x390>
   19aec:	be81                	j	1963c <__subtf3+0x36c>

0000000000019aee <__fixtfsi>:
   19aee:	1141                	addi	sp,sp,-16
   19af0:	002027f3          	frrm	a5
   19af4:	57fd                	li	a5,-1
   19af6:	00159613          	slli	a2,a1,0x1
   19afa:	6811                	lui	a6,0x4
   19afc:	83c1                	srli	a5,a5,0x10
   19afe:	9245                	srli	a2,a2,0x31
   19b00:	ffe80713          	addi	a4,a6,-2 # 3ffe <_start-0xc0b2>
   19b04:	8fed                	and	a5,a5,a1
   19b06:	00c74963          	blt	a4,a2,19b18 <__fixtfsi+0x2a>
   19b0a:	e62d                	bnez	a2,19b74 <__fixtfsi+0x86>
   19b0c:	8fc9                	or	a5,a5,a0
   19b0e:	4681                	li	a3,0
   19b10:	eb95                	bnez	a5,19b44 <__fixtfsi+0x56>
   19b12:	8536                	mv	a0,a3
   19b14:	0141                	addi	sp,sp,16
   19b16:	8082                	ret
   19b18:	01d80713          	addi	a4,a6,29
   19b1c:	91fd                	srli	a1,a1,0x3f
   19b1e:	02c75563          	ble	a2,a4,19b48 <__fixtfsi+0x5a>
   19b22:	800006b7          	lui	a3,0x80000
   19b26:	fff6c693          	not	a3,a3
   19b2a:	9ead                	addw	a3,a3,a1
   19b2c:	c5b1                	beqz	a1,19b78 <__fixtfsi+0x8a>
   19b2e:	0879                	addi	a6,a6,30
   19b30:	45c1                	li	a1,16
   19b32:	05061463          	bne	a2,a6,19b7a <__fixtfsi+0x8c>
   19b36:	0117d713          	srli	a4,a5,0x11
   19b3a:	e321                	bnez	a4,19b7a <__fixtfsi+0x8c>
   19b3c:	02f79713          	slli	a4,a5,0x2f
   19b40:	8f49                	or	a4,a4,a0
   19b42:	db61                	beqz	a4,19b12 <__fixtfsi+0x24>
   19b44:	4585                	li	a1,1
   19b46:	a815                	j	19b7a <__fixtfsi+0x8c>
   19b48:	4705                	li	a4,1
   19b4a:	1742                	slli	a4,a4,0x30
   19b4c:	2601                	sext.w	a2,a2
   19b4e:	8fd9                	or	a5,a5,a4
   19b50:	01160713          	addi	a4,a2,17
   19b54:	00e79733          	sll	a4,a5,a4
   19b58:	8f49                	or	a4,a4,a0
   19b5a:	6511                	lui	a0,0x4
   19b5c:	02f5051b          	addiw	a0,a0,47
   19b60:	40c5063b          	subw	a2,a0,a2
   19b64:	00c7d7b3          	srl	a5,a5,a2
   19b68:	0007869b          	sext.w	a3,a5
   19b6c:	d9f9                	beqz	a1,19b42 <__fixtfsi+0x54>
   19b6e:	40d006bb          	negw	a3,a3
   19b72:	bfc1                	j	19b42 <__fixtfsi+0x54>
   19b74:	4681                	li	a3,0
   19b76:	b7f9                	j	19b44 <__fixtfsi+0x56>
   19b78:	45c1                	li	a1,16
   19b7a:	0015a073          	csrs	fflags,a1
   19b7e:	bf51                	j	19b12 <__fixtfsi+0x24>

0000000000019b80 <__floatsitf>:
   19b80:	7179                	addi	sp,sp,-48
   19b82:	f406                	sd	ra,40(sp)
   19b84:	f022                	sd	s0,32(sp)
   19b86:	ec26                	sd	s1,24(sp)
   19b88:	c149                	beqz	a0,19c0a <__floatsitf+0x8a>
   19b8a:	0005071b          	sext.w	a4,a0
   19b8e:	03f55493          	srli	s1,a0,0x3f
   19b92:	00055463          	bgez	a0,19b9a <__floatsitf+0x1a>
   19b96:	40e0073b          	negw	a4,a4
   19b9a:	02071413          	slli	s0,a4,0x20
   19b9e:	9001                	srli	s0,s0,0x20
   19ba0:	8522                	mv	a0,s0
   19ba2:	3a6000ef          	jal	ra,19f48 <__clzdi2>
   19ba6:	6691                	lui	a3,0x4
   19ba8:	03e6871b          	addiw	a4,a3,62
   19bac:	40a707bb          	subw	a5,a4,a0
   19bb0:	02f6869b          	addiw	a3,a3,47
   19bb4:	40f6873b          	subw	a4,a3,a5
   19bb8:	00e41433          	sll	s0,s0,a4
   19bbc:	577d                	li	a4,-1
   19bbe:	01075513          	srli	a0,a4,0x10
   19bc2:	03071693          	slli	a3,a4,0x30
   19bc6:	6722                	ld	a4,8(sp)
   19bc8:	8c69                	and	s0,s0,a0
   19bca:	049e                	slli	s1,s1,0x7
   19bcc:	8f75                	and	a4,a4,a3
   19bce:	66a1                	lui	a3,0x8
   19bd0:	8f41                	or	a4,a4,s0
   19bd2:	16fd                	addi	a3,a3,-1
   19bd4:	e43a                	sd	a4,8(sp)
   19bd6:	8efd                	and	a3,a3,a5
   19bd8:	03075793          	srli	a5,a4,0x30
   19bdc:	7761                	lui	a4,0xffff8
   19bde:	8ff9                	and	a5,a5,a4
   19be0:	8fd5                	or	a5,a5,a3
   19be2:	0107971b          	slliw	a4,a5,0x10
   19be6:	0107571b          	srliw	a4,a4,0x10
   19bea:	0087571b          	srliw	a4,a4,0x8
   19bee:	70a2                	ld	ra,40(sp)
   19bf0:	7402                	ld	s0,32(sp)
   19bf2:	07f77713          	andi	a4,a4,127
   19bf6:	00f11723          	sh	a5,14(sp)
   19bfa:	8f45                	or	a4,a4,s1
   19bfc:	00e107a3          	sb	a4,15(sp)
   19c00:	65a2                	ld	a1,8(sp)
   19c02:	64e2                	ld	s1,24(sp)
   19c04:	4501                	li	a0,0
   19c06:	6145                	addi	sp,sp,48
   19c08:	8082                	ret
   19c0a:	4401                	li	s0,0
   19c0c:	4781                	li	a5,0
   19c0e:	4481                	li	s1,0
   19c10:	b775                	j	19bbc <__floatsitf+0x3c>

0000000000019c12 <__extenddftf2>:
   19c12:	7179                	addi	sp,sp,-48
   19c14:	ec26                	sd	s1,24(sp)
   19c16:	f406                	sd	ra,40(sp)
   19c18:	f022                	sd	s0,32(sp)
   19c1a:	e20504d3          	fmv.x.d	s1,fa0
   19c1e:	002027f3          	frrm	a5
   19c22:	0344d513          	srli	a0,s1,0x34
   19c26:	7ff57513          	andi	a0,a0,2047
   19c2a:	547d                	li	s0,-1
   19c2c:	00150713          	addi	a4,a0,1 # 4001 <_start-0xc0af>
   19c30:	8031                	srli	s0,s0,0xc
   19c32:	7ff77713          	andi	a4,a4,2047
   19c36:	4785                	li	a5,1
   19c38:	8c65                	and	s0,s0,s1
   19c3a:	90fd                	srli	s1,s1,0x3f
   19c3c:	00e7db63          	ble	a4,a5,19c52 <__extenddftf2+0x40>
   19c40:	6791                	lui	a5,0x4
   19c42:	c0078793          	addi	a5,a5,-1024 # 3c00 <_start-0xc4b0>
   19c46:	00445713          	srli	a4,s0,0x4
   19c4a:	953e                	add	a0,a0,a5
   19c4c:	1472                	slli	s0,s0,0x3c
   19c4e:	4681                	li	a3,0
   19c50:	a8b1                	j	19cac <__extenddftf2+0x9a>
   19c52:	ed1d                	bnez	a0,19c90 <__extenddftf2+0x7e>
   19c54:	4701                	li	a4,0
   19c56:	dc65                	beqz	s0,19c4e <__extenddftf2+0x3c>
   19c58:	8522                	mv	a0,s0
   19c5a:	2ee000ef          	jal	ra,19f48 <__clzdi2>
   19c5e:	0005071b          	sext.w	a4,a0
   19c62:	47b9                	li	a5,14
   19c64:	02e7c063          	blt	a5,a4,19c84 <__extenddftf2+0x72>
   19c68:	473d                	li	a4,15
   19c6a:	9f09                	subw	a4,a4,a0
   19c6c:	0315079b          	addiw	a5,a0,49
   19c70:	00e45733          	srl	a4,s0,a4
   19c74:	00f41433          	sll	s0,s0,a5
   19c78:	6791                	lui	a5,0x4
   19c7a:	c0c7879b          	addiw	a5,a5,-1012
   19c7e:	40a7853b          	subw	a0,a5,a0
   19c82:	b7f1                	j	19c4e <__extenddftf2+0x3c>
   19c84:	ff15071b          	addiw	a4,a0,-15
   19c88:	00e41733          	sll	a4,s0,a4
   19c8c:	4401                	li	s0,0
   19c8e:	b7ed                	j	19c78 <__extenddftf2+0x66>
   19c90:	c43d                	beqz	s0,19cfe <__extenddftf2+0xec>
   19c92:	03379693          	slli	a3,a5,0x33
   19c96:	8ee1                	and	a3,a3,s0
   19c98:	00445713          	srli	a4,s0,0x4
   19c9c:	0016b693          	seqz	a3,a3
   19ca0:	17be                	slli	a5,a5,0x2f
   19ca2:	6521                	lui	a0,0x8
   19ca4:	0692                	slli	a3,a3,0x4
   19ca6:	8f5d                	or	a4,a4,a5
   19ca8:	1472                	slli	s0,s0,0x3c
   19caa:	157d                	addi	a0,a0,-1
   19cac:	57fd                	li	a5,-1
   19cae:	0107d613          	srli	a2,a5,0x10
   19cb2:	8f71                	and	a4,a4,a2
   19cb4:	03079613          	slli	a2,a5,0x30
   19cb8:	67a2                	ld	a5,8(sp)
   19cba:	049e                	slli	s1,s1,0x7
   19cbc:	8ff1                	and	a5,a5,a2
   19cbe:	8f5d                	or	a4,a4,a5
   19cc0:	67a1                	lui	a5,0x8
   19cc2:	17fd                	addi	a5,a5,-1
   19cc4:	e43a                	sd	a4,8(sp)
   19cc6:	8d7d                	and	a0,a0,a5
   19cc8:	9341                	srli	a4,a4,0x30
   19cca:	77e1                	lui	a5,0xffff8
   19ccc:	8f7d                	and	a4,a4,a5
   19cce:	8d59                	or	a0,a0,a4
   19cd0:	0105179b          	slliw	a5,a0,0x10
   19cd4:	0107d79b          	srliw	a5,a5,0x10
   19cd8:	0087d79b          	srliw	a5,a5,0x8
   19cdc:	07f7f793          	andi	a5,a5,127
   19ce0:	00a11723          	sh	a0,14(sp)
   19ce4:	8fc5                	or	a5,a5,s1
   19ce6:	00f107a3          	sb	a5,15(sp)
   19cea:	65a2                	ld	a1,8(sp)
   19cec:	c299                	beqz	a3,19cf2 <__extenddftf2+0xe0>
   19cee:	0016a073          	csrs	fflags,a3
   19cf2:	8522                	mv	a0,s0
   19cf4:	70a2                	ld	ra,40(sp)
   19cf6:	7402                	ld	s0,32(sp)
   19cf8:	64e2                	ld	s1,24(sp)
   19cfa:	6145                	addi	sp,sp,48
   19cfc:	8082                	ret
   19cfe:	6521                	lui	a0,0x8
   19d00:	4701                	li	a4,0
   19d02:	157d                	addi	a0,a0,-1
   19d04:	b7a9                	j	19c4e <__extenddftf2+0x3c>

0000000000019d06 <__trunctfdf2>:
   19d06:	1141                	addi	sp,sp,-16
   19d08:	002028f3          	frrm	a7
   19d0c:	57fd                	li	a5,-1
   19d0e:	83c1                	srli	a5,a5,0x10
   19d10:	6321                	lui	t1,0x8
   19d12:	0305d713          	srli	a4,a1,0x30
   19d16:	137d                	addi	t1,t1,-1
   19d18:	03f5d813          	srli	a6,a1,0x3f
   19d1c:	8dfd                	and	a1,a1,a5
   19d1e:	00359793          	slli	a5,a1,0x3
   19d22:	00e37733          	and	a4,t1,a4
   19d26:	03d55593          	srli	a1,a0,0x3d
   19d2a:	8ddd                	or	a1,a1,a5
   19d2c:	00170793          	addi	a5,a4,1 # ffffffffffff8001 <__global_pointer$+0xfffffffffffda989>
   19d30:	0067f7b3          	and	a5,a5,t1
   19d34:	4605                	li	a2,1
   19d36:	2881                	sext.w	a7,a7
   19d38:	00351e93          	slli	t4,a0,0x3
   19d3c:	18f65163          	ble	a5,a2,19ebe <__trunctfdf2+0x1b8>
   19d40:	77f1                	lui	a5,0xffffc
   19d42:	40078793          	addi	a5,a5,1024 # ffffffffffffc400 <__global_pointer$+0xfffffffffffded88>
   19d46:	973e                	add	a4,a4,a5
   19d48:	7fe00793          	li	a5,2046
   19d4c:	0ae7d063          	ble	a4,a5,19dec <__trunctfdf2+0xe6>
   19d50:	04088263          	beqz	a7,19d94 <__trunctfdf2+0x8e>
   19d54:	478d                	li	a5,3
   19d56:	02f89a63          	bne	a7,a5,19d8a <__trunctfdf2+0x84>
   19d5a:	02080d63          	beqz	a6,19d94 <__trunctfdf2+0x8e>
   19d5e:	57fd                	li	a5,-1
   19d60:	7fe00713          	li	a4,2046
   19d64:	4681                	li	a3,0
   19d66:	4e15                	li	t3,5
   19d68:	4609                	li	a2,2
   19d6a:	001e6e13          	ori	t3,t3,1
   19d6e:	1ac88663          	beq	a7,a2,19f1a <__trunctfdf2+0x214>
   19d72:	460d                	li	a2,3
   19d74:	18c88f63          	beq	a7,a2,19f12 <__trunctfdf2+0x20c>
   19d78:	12089a63          	bnez	a7,19eac <__trunctfdf2+0x1a6>
   19d7c:	00f7f613          	andi	a2,a5,15
   19d80:	4591                	li	a1,4
   19d82:	12b60563          	beq	a2,a1,19eac <__trunctfdf2+0x1a6>
   19d86:	0791                	addi	a5,a5,4
   19d88:	a215                	j	19eac <__trunctfdf2+0x1a6>
   19d8a:	4789                	li	a5,2
   19d8c:	fcf899e3          	bne	a7,a5,19d5e <__trunctfdf2+0x58>
   19d90:	fc0807e3          	beqz	a6,19d5e <__trunctfdf2+0x58>
   19d94:	4781                	li	a5,0
   19d96:	7ff00713          	li	a4,2047
   19d9a:	4e15                	li	t3,5
   19d9c:	00879693          	slli	a3,a5,0x8
   19da0:	0006db63          	bgez	a3,19db6 <__trunctfdf2+0xb0>
   19da4:	0705                	addi	a4,a4,1
   19da6:	7ff00693          	li	a3,2047
   19daa:	16d70b63          	beq	a4,a3,19f20 <__trunctfdf2+0x21a>
   19dae:	55fd                	li	a1,-1
   19db0:	15de                	slli	a1,a1,0x37
   19db2:	15fd                	addi	a1,a1,-1
   19db4:	8fed                	and	a5,a5,a1
   19db6:	7ff00693          	li	a3,2047
   19dba:	838d                	srli	a5,a5,0x3
   19dbc:	00d71663          	bne	a4,a3,19dc8 <__trunctfdf2+0xc2>
   19dc0:	c781                	beqz	a5,19dc8 <__trunctfdf2+0xc2>
   19dc2:	4785                	li	a5,1
   19dc4:	17ce                	slli	a5,a5,0x33
   19dc6:	4801                	li	a6,0
   19dc8:	56fd                	li	a3,-1
   19dca:	82b1                	srli	a3,a3,0xc
   19dcc:	7ff77713          	andi	a4,a4,2047
   19dd0:	8ff5                	and	a5,a5,a3
   19dd2:	1752                	slli	a4,a4,0x34
   19dd4:	03f81693          	slli	a3,a6,0x3f
   19dd8:	8fd9                	or	a5,a5,a4
   19dda:	8fd5                	or	a5,a5,a3
   19ddc:	000e0463          	beqz	t3,19de4 <__trunctfdf2+0xde>
   19de0:	001e2073          	csrs	fflags,t3
   19de4:	f2078553          	fmv.d.x	fa0,a5
   19de8:	0141                	addi	sp,sp,16
   19dea:	8082                	ret
   19dec:	0ae04163          	bgtz	a4,19e8e <__trunctfdf2+0x188>
   19df0:	fcc00793          	li	a5,-52
   19df4:	10f74063          	blt	a4,a5,19ef4 <__trunctfdf2+0x1ee>
   19df8:	164e                	slli	a2,a2,0x33
   19dfa:	8dd1                	or	a1,a1,a2
   19dfc:	03d00613          	li	a2,61
   19e00:	8e19                	sub	a2,a2,a4
   19e02:	03f00793          	li	a5,63
   19e06:	2701                	sext.w	a4,a4
   19e08:	06c7c063          	blt	a5,a2,19e68 <__trunctfdf2+0x162>
   19e0c:	0037061b          	addiw	a2,a4,3
   19e10:	03d00793          	li	a5,61
   19e14:	9f99                	subw	a5,a5,a4
   19e16:	00ce96b3          	sll	a3,t4,a2
   19e1a:	00fed7b3          	srl	a5,t4,a5
   19e1e:	00d036b3          	snez	a3,a3
   19e22:	8fd5                	or	a5,a5,a3
   19e24:	00c595b3          	sll	a1,a1,a2
   19e28:	8fcd                	or	a5,a5,a1
   19e2a:	4701                	li	a4,0
   19e2c:	c3ed                	beqz	a5,19f0e <__trunctfdf2+0x208>
   19e2e:	00179713          	slli	a4,a5,0x1
   19e32:	00777693          	andi	a3,a4,7
   19e36:	4e01                	li	t3,0
   19e38:	c28d                	beqz	a3,19e5a <__trunctfdf2+0x154>
   19e3a:	4689                	li	a3,2
   19e3c:	0cd88363          	beq	a7,a3,19f02 <__trunctfdf2+0x1fc>
   19e40:	468d                	li	a3,3
   19e42:	0ad88b63          	beq	a7,a3,19ef8 <__trunctfdf2+0x1f2>
   19e46:	4e05                	li	t3,1
   19e48:	00089963          	bnez	a7,19e5a <__trunctfdf2+0x154>
   19e4c:	00f77693          	andi	a3,a4,15
   19e50:	4611                	li	a2,4
   19e52:	4e05                	li	t3,1
   19e54:	00c68363          	beq	a3,a2,19e5a <__trunctfdf2+0x154>
   19e58:	0711                	addi	a4,a4,4
   19e5a:	03875693          	srli	a3,a4,0x38
   19e5e:	0016c693          	xori	a3,a3,1
   19e62:	8a85                	andi	a3,a3,1
   19e64:	4701                	li	a4,0
   19e66:	a83d                	j	19ea4 <__trunctfdf2+0x19e>
   19e68:	57f5                	li	a5,-3
   19e6a:	9f99                	subw	a5,a5,a4
   19e6c:	04000513          	li	a0,64
   19e70:	00f5d7b3          	srl	a5,a1,a5
   19e74:	4681                	li	a3,0
   19e76:	00a60663          	beq	a2,a0,19e82 <__trunctfdf2+0x17c>
   19e7a:	0437071b          	addiw	a4,a4,67
   19e7e:	00e596b3          	sll	a3,a1,a4
   19e82:	01d6e6b3          	or	a3,a3,t4
   19e86:	00d036b3          	snez	a3,a3
   19e8a:	8fd5                	or	a5,a5,a3
   19e8c:	bf79                	j	19e2a <__trunctfdf2+0x124>
   19e8e:	051e                	slli	a0,a0,0x7
   19e90:	03ced693          	srli	a3,t4,0x3c
   19e94:	00a03533          	snez	a0,a0
   19e98:	8d55                	or	a0,a0,a3
   19e9a:	0592                	slli	a1,a1,0x4
   19e9c:	00a5e7b3          	or	a5,a1,a0
   19ea0:	4681                	li	a3,0
   19ea2:	4e01                	li	t3,0
   19ea4:	0077f613          	andi	a2,a5,7
   19ea8:	ec0610e3          	bnez	a2,19d68 <__trunctfdf2+0x62>
   19eac:	ee0688e3          	beqz	a3,19d9c <__trunctfdf2+0x96>
   19eb0:	001e7693          	andi	a3,t3,1
   19eb4:	ee0684e3          	beqz	a3,19d9c <__trunctfdf2+0x96>
   19eb8:	002e6e13          	ori	t3,t3,2
   19ebc:	b5c5                	j	19d9c <__trunctfdf2+0x96>
   19ebe:	01d5e7b3          	or	a5,a1,t4
   19ec2:	e701                	bnez	a4,19eca <__trunctfdf2+0x1c4>
   19ec4:	00f037b3          	snez	a5,a5
   19ec8:	b78d                	j	19e2a <__trunctfdf2+0x124>
   19eca:	c3a1                	beqz	a5,19f0a <__trunctfdf2+0x204>
   19ecc:	4e01                	li	t3,0
   19ece:	00671763          	bne	a4,t1,19edc <__trunctfdf2+0x1d6>
   19ed2:	164a                	slli	a2,a2,0x32
   19ed4:	8e6d                	and	a2,a2,a1
   19ed6:	00163e13          	seqz	t3,a2
   19eda:	0e12                	slli	t3,t3,0x4
   19edc:	03ced513          	srli	a0,t4,0x3c
   19ee0:	0592                	slli	a1,a1,0x4
   19ee2:	8dc9                	or	a1,a1,a0
   19ee4:	4785                	li	a5,1
   19ee6:	99e1                	andi	a1,a1,-8
   19ee8:	17da                	slli	a5,a5,0x36
   19eea:	8fcd                	or	a5,a5,a1
   19eec:	7ff00713          	li	a4,2047
   19ef0:	4681                	li	a3,0
   19ef2:	bf4d                	j	19ea4 <__trunctfdf2+0x19e>
   19ef4:	4785                	li	a5,1
   19ef6:	bf25                	j	19e2e <__trunctfdf2+0x128>
   19ef8:	4e05                	li	t3,1
   19efa:	f60810e3          	bnez	a6,19e5a <__trunctfdf2+0x154>
   19efe:	0721                	addi	a4,a4,8
   19f00:	bfa9                	j	19e5a <__trunctfdf2+0x154>
   19f02:	4e05                	li	t3,1
   19f04:	f4080be3          	beqz	a6,19e5a <__trunctfdf2+0x154>
   19f08:	bfdd                	j	19efe <__trunctfdf2+0x1f8>
   19f0a:	7ff00713          	li	a4,2047
   19f0e:	4e01                	li	t3,0
   19f10:	b571                	j	19d9c <__trunctfdf2+0x96>
   19f12:	f8081de3          	bnez	a6,19eac <__trunctfdf2+0x1a6>
   19f16:	07a1                	addi	a5,a5,8
   19f18:	bf51                	j	19eac <__trunctfdf2+0x1a6>
   19f1a:	f80809e3          	beqz	a6,19eac <__trunctfdf2+0x1a6>
   19f1e:	bfe5                	j	19f16 <__trunctfdf2+0x210>
   19f20:	4781                	li	a5,0
   19f22:	02088063          	beqz	a7,19f42 <__trunctfdf2+0x23c>
   19f26:	468d                	li	a3,3
   19f28:	00d89863          	bne	a7,a3,19f38 <__trunctfdf2+0x232>
   19f2c:	00080b63          	beqz	a6,19f42 <__trunctfdf2+0x23c>
   19f30:	57fd                	li	a5,-1
   19f32:	7fe00713          	li	a4,2046
   19f36:	a031                	j	19f42 <__trunctfdf2+0x23c>
   19f38:	4689                	li	a3,2
   19f3a:	fed89be3          	bne	a7,a3,19f30 <__trunctfdf2+0x22a>
   19f3e:	fe0809e3          	beqz	a6,19f30 <__trunctfdf2+0x22a>
   19f42:	005e6e13          	ori	t3,t3,5
   19f46:	bd85                	j	19db6 <__trunctfdf2+0xb0>

0000000000019f48 <__clzdi2>:
   19f48:	03800793          	li	a5,56
   19f4c:	00f55733          	srl	a4,a0,a5
   19f50:	0ff77713          	andi	a4,a4,255
   19f54:	e319                	bnez	a4,19f5a <__clzdi2+0x12>
   19f56:	17e1                	addi	a5,a5,-8
   19f58:	fbf5                	bnez	a5,19f4c <__clzdi2+0x4>
   19f5a:	04000713          	li	a4,64
   19f5e:	8f1d                	sub	a4,a4,a5
   19f60:	00f557b3          	srl	a5,a0,a5
   19f64:	656d                	lui	a0,0x1b
   19f66:	c6050513          	addi	a0,a0,-928 # 1ac60 <__clz_tab>
   19f6a:	97aa                	add	a5,a5,a0
   19f6c:	0007c503          	lbu	a0,0(a5)
   19f70:	40a7053b          	subw	a0,a4,a0
   19f74:	8082                	ret
